
PPTMB.elf:     file format elf32-littlearm

Sections:
Idx Name          Size      VMA       LMA       File off  Algn
  0 .isr_vector   00000298  08000000  08000000  00010000  2**0
                  CONTENTS, ALLOC, LOAD, READONLY, DATA
  1 .text         0000b72c  080002a0  080002a0  000102a0  2**4
                  CONTENTS, ALLOC, LOAD, READONLY, CODE
  2 .rodata       0000011c  0800b9cc  0800b9cc  0001b9cc  2**2
                  CONTENTS, ALLOC, LOAD, READONLY, DATA
  3 .ARM.extab    00000000  0800bae8  0800bae8  00020078  2**0
                  CONTENTS
  4 .ARM          00000008  0800bae8  0800bae8  0001bae8  2**2
                  CONTENTS, ALLOC, LOAD, READONLY, DATA
  5 .preinit_array 00000000  0800baf0  0800baf0  00020078  2**0
                  CONTENTS, ALLOC, LOAD, DATA
  6 .init_array   00000004  0800baf0  0800baf0  0001baf0  2**2
                  CONTENTS, ALLOC, LOAD, DATA
  7 .fini_array   00000004  0800baf4  0800baf4  0001baf4  2**2
                  CONTENTS, ALLOC, LOAD, DATA
  8 .data         00000078  24000000  0800baf8  00020000  2**2
                  CONTENTS, ALLOC, LOAD, DATA
  9 .bss          00027db0  24000078  0800bb70  00020078  2**2
                  ALLOC
 10 ._user_heap_stack 00000c00  24027e28  0800bb70  00027e28  2**0
                  ALLOC
 11 .ARM.attributes 0000002e  00000000  00000000  00020078  2**0
                  CONTENTS, READONLY
 12 .comment      00000053  00000000  00000000  000200a6  2**0
                  CONTENTS, READONLY
 13 .debug_frame  000003c4  00000000  00000000  000200fc  2**2
                  CONTENTS, READONLY, DEBUGGING, OCTETS

Disassembly of section .text:

080002a0 <__do_global_dtors_aux>:
 80002a0:	b510      	push	{r4, lr}
 80002a2:	4c05      	ldr	r4, [pc, #20]	; (80002b8 <__do_global_dtors_aux+0x18>)
 80002a4:	7823      	ldrb	r3, [r4, #0]
 80002a6:	b933      	cbnz	r3, 80002b6 <__do_global_dtors_aux+0x16>
 80002a8:	4b04      	ldr	r3, [pc, #16]	; (80002bc <__do_global_dtors_aux+0x1c>)
 80002aa:	b113      	cbz	r3, 80002b2 <__do_global_dtors_aux+0x12>
 80002ac:	4804      	ldr	r0, [pc, #16]	; (80002c0 <__do_global_dtors_aux+0x20>)
 80002ae:	f3af 8000 	nop.w
 80002b2:	2301      	movs	r3, #1
 80002b4:	7023      	strb	r3, [r4, #0]
 80002b6:	bd10      	pop	{r4, pc}
 80002b8:	24000078 	.word	0x24000078
 80002bc:	00000000 	.word	0x00000000
 80002c0:	0800b9b4 	.word	0x0800b9b4

080002c4 <frame_dummy>:
 80002c4:	b508      	push	{r3, lr}
 80002c6:	4b03      	ldr	r3, [pc, #12]	; (80002d4 <frame_dummy+0x10>)
 80002c8:	b11b      	cbz	r3, 80002d2 <frame_dummy+0xe>
 80002ca:	4903      	ldr	r1, [pc, #12]	; (80002d8 <frame_dummy+0x14>)
 80002cc:	4803      	ldr	r0, [pc, #12]	; (80002dc <frame_dummy+0x18>)
 80002ce:	f3af 8000 	nop.w
 80002d2:	bd08      	pop	{r3, pc}
 80002d4:	00000000 	.word	0x00000000
 80002d8:	2400007c 	.word	0x2400007c
 80002dc:	0800b9b4 	.word	0x0800b9b4

080002e0 <__aeabi_uldivmod>:
 80002e0:	b953      	cbnz	r3, 80002f8 <__aeabi_uldivmod+0x18>
 80002e2:	b94a      	cbnz	r2, 80002f8 <__aeabi_uldivmod+0x18>
 80002e4:	2900      	cmp	r1, #0
 80002e6:	bf08      	it	eq
 80002e8:	2800      	cmpeq	r0, #0
 80002ea:	bf1c      	itt	ne
 80002ec:	f04f 31ff 	movne.w	r1, #4294967295
 80002f0:	f04f 30ff 	movne.w	r0, #4294967295
 80002f4:	f000 b96e 	b.w	80005d4 <__aeabi_idiv0>
 80002f8:	f1ad 0c08 	sub.w	ip, sp, #8
 80002fc:	e96d ce04 	strd	ip, lr, [sp, #-16]!
 8000300:	f000 f806 	bl	8000310 <__udivmoddi4>
 8000304:	f8dd e004 	ldr.w	lr, [sp, #4]
 8000308:	e9dd 2302 	ldrd	r2, r3, [sp, #8]
 800030c:	b004      	add	sp, #16
 800030e:	4770      	bx	lr

08000310 <__udivmoddi4>:
 8000310:	e92d 47f0 	stmdb	sp!, {r4, r5, r6, r7, r8, r9, sl, lr}
 8000314:	9d08      	ldr	r5, [sp, #32]
 8000316:	4604      	mov	r4, r0
 8000318:	468c      	mov	ip, r1
 800031a:	2b00      	cmp	r3, #0
 800031c:	f040 8083 	bne.w	8000426 <__udivmoddi4+0x116>
 8000320:	428a      	cmp	r2, r1
 8000322:	4617      	mov	r7, r2
 8000324:	d947      	bls.n	80003b6 <__udivmoddi4+0xa6>
 8000326:	fab2 f282 	clz	r2, r2
 800032a:	b142      	cbz	r2, 800033e <__udivmoddi4+0x2e>
 800032c:	f1c2 0020 	rsb	r0, r2, #32
 8000330:	fa24 f000 	lsr.w	r0, r4, r0
 8000334:	4091      	lsls	r1, r2
 8000336:	4097      	lsls	r7, r2
 8000338:	ea40 0c01 	orr.w	ip, r0, r1
 800033c:	4094      	lsls	r4, r2
 800033e:	ea4f 4817 	mov.w	r8, r7, lsr #16
 8000342:	0c23      	lsrs	r3, r4, #16
 8000344:	fbbc f6f8 	udiv	r6, ip, r8
 8000348:	fa1f fe87 	uxth.w	lr, r7
 800034c:	fb08 c116 	mls	r1, r8, r6, ip
 8000350:	ea43 4301 	orr.w	r3, r3, r1, lsl #16
 8000354:	fb06 f10e 	mul.w	r1, r6, lr
 8000358:	4299      	cmp	r1, r3
 800035a:	d909      	bls.n	8000370 <__udivmoddi4+0x60>
 800035c:	18fb      	adds	r3, r7, r3
 800035e:	f106 30ff 	add.w	r0, r6, #4294967295
 8000362:	f080 8119 	bcs.w	8000598 <__udivmoddi4+0x288>
 8000366:	4299      	cmp	r1, r3
 8000368:	f240 8116 	bls.w	8000598 <__udivmoddi4+0x288>
 800036c:	3e02      	subs	r6, #2
 800036e:	443b      	add	r3, r7
 8000370:	1a5b      	subs	r3, r3, r1
 8000372:	b2a4      	uxth	r4, r4
 8000374:	fbb3 f0f8 	udiv	r0, r3, r8
 8000378:	fb08 3310 	mls	r3, r8, r0, r3
 800037c:	ea44 4403 	orr.w	r4, r4, r3, lsl #16
 8000380:	fb00 fe0e 	mul.w	lr, r0, lr
 8000384:	45a6      	cmp	lr, r4
 8000386:	d909      	bls.n	800039c <__udivmoddi4+0x8c>
 8000388:	193c      	adds	r4, r7, r4
 800038a:	f100 33ff 	add.w	r3, r0, #4294967295
 800038e:	f080 8105 	bcs.w	800059c <__udivmoddi4+0x28c>
 8000392:	45a6      	cmp	lr, r4
 8000394:	f240 8102 	bls.w	800059c <__udivmoddi4+0x28c>
 8000398:	3802      	subs	r0, #2
 800039a:	443c      	add	r4, r7
 800039c:	ea40 4006 	orr.w	r0, r0, r6, lsl #16
 80003a0:	eba4 040e 	sub.w	r4, r4, lr
 80003a4:	2600      	movs	r6, #0
 80003a6:	b11d      	cbz	r5, 80003b0 <__udivmoddi4+0xa0>
 80003a8:	40d4      	lsrs	r4, r2
 80003aa:	2300      	movs	r3, #0
 80003ac:	e9c5 4300 	strd	r4, r3, [r5]
 80003b0:	4631      	mov	r1, r6
 80003b2:	e8bd 87f0 	ldmia.w	sp!, {r4, r5, r6, r7, r8, r9, sl, pc}
 80003b6:	b902      	cbnz	r2, 80003ba <__udivmoddi4+0xaa>
 80003b8:	deff      	udf	#255	; 0xff
 80003ba:	fab2 f282 	clz	r2, r2
 80003be:	2a00      	cmp	r2, #0
 80003c0:	d150      	bne.n	8000464 <__udivmoddi4+0x154>
 80003c2:	1bcb      	subs	r3, r1, r7
 80003c4:	ea4f 4e17 	mov.w	lr, r7, lsr #16
 80003c8:	fa1f f887 	uxth.w	r8, r7
 80003cc:	2601      	movs	r6, #1
 80003ce:	fbb3 fcfe 	udiv	ip, r3, lr
 80003d2:	0c21      	lsrs	r1, r4, #16
 80003d4:	fb0e 331c 	mls	r3, lr, ip, r3
 80003d8:	ea41 4103 	orr.w	r1, r1, r3, lsl #16
 80003dc:	fb08 f30c 	mul.w	r3, r8, ip
 80003e0:	428b      	cmp	r3, r1
 80003e2:	d907      	bls.n	80003f4 <__udivmoddi4+0xe4>
 80003e4:	1879      	adds	r1, r7, r1
 80003e6:	f10c 30ff 	add.w	r0, ip, #4294967295
 80003ea:	d202      	bcs.n	80003f2 <__udivmoddi4+0xe2>
 80003ec:	428b      	cmp	r3, r1
 80003ee:	f200 80e9 	bhi.w	80005c4 <__udivmoddi4+0x2b4>
 80003f2:	4684      	mov	ip, r0
 80003f4:	1ac9      	subs	r1, r1, r3
 80003f6:	b2a3      	uxth	r3, r4
 80003f8:	fbb1 f0fe 	udiv	r0, r1, lr
 80003fc:	fb0e 1110 	mls	r1, lr, r0, r1
 8000400:	ea43 4401 	orr.w	r4, r3, r1, lsl #16
 8000404:	fb08 f800 	mul.w	r8, r8, r0
 8000408:	45a0      	cmp	r8, r4
 800040a:	d907      	bls.n	800041c <__udivmoddi4+0x10c>
 800040c:	193c      	adds	r4, r7, r4
 800040e:	f100 33ff 	add.w	r3, r0, #4294967295
 8000412:	d202      	bcs.n	800041a <__udivmoddi4+0x10a>
 8000414:	45a0      	cmp	r8, r4
 8000416:	f200 80d9 	bhi.w	80005cc <__udivmoddi4+0x2bc>
 800041a:	4618      	mov	r0, r3
 800041c:	eba4 0408 	sub.w	r4, r4, r8
 8000420:	ea40 400c 	orr.w	r0, r0, ip, lsl #16
 8000424:	e7bf      	b.n	80003a6 <__udivmoddi4+0x96>
 8000426:	428b      	cmp	r3, r1
 8000428:	d909      	bls.n	800043e <__udivmoddi4+0x12e>
 800042a:	2d00      	cmp	r5, #0
 800042c:	f000 80b1 	beq.w	8000592 <__udivmoddi4+0x282>
 8000430:	2600      	movs	r6, #0
 8000432:	e9c5 0100 	strd	r0, r1, [r5]
 8000436:	4630      	mov	r0, r6
 8000438:	4631      	mov	r1, r6
 800043a:	e8bd 87f0 	ldmia.w	sp!, {r4, r5, r6, r7, r8, r9, sl, pc}
 800043e:	fab3 f683 	clz	r6, r3
 8000442:	2e00      	cmp	r6, #0
 8000444:	d14a      	bne.n	80004dc <__udivmoddi4+0x1cc>
 8000446:	428b      	cmp	r3, r1
 8000448:	d302      	bcc.n	8000450 <__udivmoddi4+0x140>
 800044a:	4282      	cmp	r2, r0
 800044c:	f200 80b8 	bhi.w	80005c0 <__udivmoddi4+0x2b0>
 8000450:	1a84      	subs	r4, r0, r2
 8000452:	eb61 0103 	sbc.w	r1, r1, r3
 8000456:	2001      	movs	r0, #1
 8000458:	468c      	mov	ip, r1
 800045a:	2d00      	cmp	r5, #0
 800045c:	d0a8      	beq.n	80003b0 <__udivmoddi4+0xa0>
 800045e:	e9c5 4c00 	strd	r4, ip, [r5]
 8000462:	e7a5      	b.n	80003b0 <__udivmoddi4+0xa0>
 8000464:	f1c2 0320 	rsb	r3, r2, #32
 8000468:	fa20 f603 	lsr.w	r6, r0, r3
 800046c:	4097      	lsls	r7, r2
 800046e:	fa01 f002 	lsl.w	r0, r1, r2
 8000472:	ea4f 4e17 	mov.w	lr, r7, lsr #16
 8000476:	40d9      	lsrs	r1, r3
 8000478:	4330      	orrs	r0, r6
 800047a:	0c03      	lsrs	r3, r0, #16
 800047c:	fbb1 f6fe 	udiv	r6, r1, lr
 8000480:	fa1f f887 	uxth.w	r8, r7
 8000484:	fb0e 1116 	mls	r1, lr, r6, r1
 8000488:	ea43 4301 	orr.w	r3, r3, r1, lsl #16
 800048c:	fb06 f108 	mul.w	r1, r6, r8
 8000490:	4299      	cmp	r1, r3
 8000492:	fa04 f402 	lsl.w	r4, r4, r2
 8000496:	d909      	bls.n	80004ac <__udivmoddi4+0x19c>
 8000498:	18fb      	adds	r3, r7, r3
 800049a:	f106 3cff 	add.w	ip, r6, #4294967295
 800049e:	f080 808d 	bcs.w	80005bc <__udivmoddi4+0x2ac>
 80004a2:	4299      	cmp	r1, r3
 80004a4:	f240 808a 	bls.w	80005bc <__udivmoddi4+0x2ac>
 80004a8:	3e02      	subs	r6, #2
 80004aa:	443b      	add	r3, r7
 80004ac:	1a5b      	subs	r3, r3, r1
 80004ae:	b281      	uxth	r1, r0
 80004b0:	fbb3 f0fe 	udiv	r0, r3, lr
 80004b4:	fb0e 3310 	mls	r3, lr, r0, r3
 80004b8:	ea41 4103 	orr.w	r1, r1, r3, lsl #16
 80004bc:	fb00 f308 	mul.w	r3, r0, r8
 80004c0:	428b      	cmp	r3, r1
 80004c2:	d907      	bls.n	80004d4 <__udivmoddi4+0x1c4>
 80004c4:	1879      	adds	r1, r7, r1
 80004c6:	f100 3cff 	add.w	ip, r0, #4294967295
 80004ca:	d273      	bcs.n	80005b4 <__udivmoddi4+0x2a4>
 80004cc:	428b      	cmp	r3, r1
 80004ce:	d971      	bls.n	80005b4 <__udivmoddi4+0x2a4>
 80004d0:	3802      	subs	r0, #2
 80004d2:	4439      	add	r1, r7
 80004d4:	1acb      	subs	r3, r1, r3
 80004d6:	ea40 4606 	orr.w	r6, r0, r6, lsl #16
 80004da:	e778      	b.n	80003ce <__udivmoddi4+0xbe>
 80004dc:	f1c6 0c20 	rsb	ip, r6, #32
 80004e0:	fa03 f406 	lsl.w	r4, r3, r6
 80004e4:	fa22 f30c 	lsr.w	r3, r2, ip
 80004e8:	431c      	orrs	r4, r3
 80004ea:	fa20 f70c 	lsr.w	r7, r0, ip
 80004ee:	fa01 f306 	lsl.w	r3, r1, r6
 80004f2:	ea4f 4e14 	mov.w	lr, r4, lsr #16
 80004f6:	fa21 f10c 	lsr.w	r1, r1, ip
 80004fa:	431f      	orrs	r7, r3
 80004fc:	0c3b      	lsrs	r3, r7, #16
 80004fe:	fbb1 f9fe 	udiv	r9, r1, lr
 8000502:	fa1f f884 	uxth.w	r8, r4
 8000506:	fb0e 1119 	mls	r1, lr, r9, r1
 800050a:	ea43 4101 	orr.w	r1, r3, r1, lsl #16
 800050e:	fb09 fa08 	mul.w	sl, r9, r8
 8000512:	458a      	cmp	sl, r1
 8000514:	fa02 f206 	lsl.w	r2, r2, r6
 8000518:	fa00 f306 	lsl.w	r3, r0, r6
 800051c:	d908      	bls.n	8000530 <__udivmoddi4+0x220>
 800051e:	1861      	adds	r1, r4, r1
 8000520:	f109 30ff 	add.w	r0, r9, #4294967295
 8000524:	d248      	bcs.n	80005b8 <__udivmoddi4+0x2a8>
 8000526:	458a      	cmp	sl, r1
 8000528:	d946      	bls.n	80005b8 <__udivmoddi4+0x2a8>
 800052a:	f1a9 0902 	sub.w	r9, r9, #2
 800052e:	4421      	add	r1, r4
 8000530:	eba1 010a 	sub.w	r1, r1, sl
 8000534:	b2bf      	uxth	r7, r7
 8000536:	fbb1 f0fe 	udiv	r0, r1, lr
 800053a:	fb0e 1110 	mls	r1, lr, r0, r1
 800053e:	ea47 4701 	orr.w	r7, r7, r1, lsl #16
 8000542:	fb00 f808 	mul.w	r8, r0, r8
 8000546:	45b8      	cmp	r8, r7
 8000548:	d907      	bls.n	800055a <__udivmoddi4+0x24a>
 800054a:	19e7      	adds	r7, r4, r7
 800054c:	f100 31ff 	add.w	r1, r0, #4294967295
 8000550:	d22e      	bcs.n	80005b0 <__udivmoddi4+0x2a0>
 8000552:	45b8      	cmp	r8, r7
 8000554:	d92c      	bls.n	80005b0 <__udivmoddi4+0x2a0>
 8000556:	3802      	subs	r0, #2
 8000558:	4427      	add	r7, r4
 800055a:	ea40 4009 	orr.w	r0, r0, r9, lsl #16
 800055e:	eba7 0708 	sub.w	r7, r7, r8
 8000562:	fba0 8902 	umull	r8, r9, r0, r2
 8000566:	454f      	cmp	r7, r9
 8000568:	46c6      	mov	lr, r8
 800056a:	4649      	mov	r1, r9
 800056c:	d31a      	bcc.n	80005a4 <__udivmoddi4+0x294>
 800056e:	d017      	beq.n	80005a0 <__udivmoddi4+0x290>
 8000570:	b15d      	cbz	r5, 800058a <__udivmoddi4+0x27a>
 8000572:	ebb3 020e 	subs.w	r2, r3, lr
 8000576:	eb67 0701 	sbc.w	r7, r7, r1
 800057a:	fa07 fc0c 	lsl.w	ip, r7, ip
 800057e:	40f2      	lsrs	r2, r6
 8000580:	ea4c 0202 	orr.w	r2, ip, r2
 8000584:	40f7      	lsrs	r7, r6
 8000586:	e9c5 2700 	strd	r2, r7, [r5]
 800058a:	2600      	movs	r6, #0
 800058c:	4631      	mov	r1, r6
 800058e:	e8bd 87f0 	ldmia.w	sp!, {r4, r5, r6, r7, r8, r9, sl, pc}
 8000592:	462e      	mov	r6, r5
 8000594:	4628      	mov	r0, r5
 8000596:	e70b      	b.n	80003b0 <__udivmoddi4+0xa0>
 8000598:	4606      	mov	r6, r0
 800059a:	e6e9      	b.n	8000370 <__udivmoddi4+0x60>
 800059c:	4618      	mov	r0, r3
 800059e:	e6fd      	b.n	800039c <__udivmoddi4+0x8c>
 80005a0:	4543      	cmp	r3, r8
 80005a2:	d2e5      	bcs.n	8000570 <__udivmoddi4+0x260>
 80005a4:	ebb8 0e02 	subs.w	lr, r8, r2
 80005a8:	eb69 0104 	sbc.w	r1, r9, r4
 80005ac:	3801      	subs	r0, #1
 80005ae:	e7df      	b.n	8000570 <__udivmoddi4+0x260>
 80005b0:	4608      	mov	r0, r1
 80005b2:	e7d2      	b.n	800055a <__udivmoddi4+0x24a>
 80005b4:	4660      	mov	r0, ip
 80005b6:	e78d      	b.n	80004d4 <__udivmoddi4+0x1c4>
 80005b8:	4681      	mov	r9, r0
 80005ba:	e7b9      	b.n	8000530 <__udivmoddi4+0x220>
 80005bc:	4666      	mov	r6, ip
 80005be:	e775      	b.n	80004ac <__udivmoddi4+0x19c>
 80005c0:	4630      	mov	r0, r6
 80005c2:	e74a      	b.n	800045a <__udivmoddi4+0x14a>
 80005c4:	f1ac 0c02 	sub.w	ip, ip, #2
 80005c8:	4439      	add	r1, r7
 80005ca:	e713      	b.n	80003f4 <__udivmoddi4+0xe4>
 80005cc:	3802      	subs	r0, #2
 80005ce:	443c      	add	r4, r7
 80005d0:	e724      	b.n	800041c <__udivmoddi4+0x10c>
 80005d2:	bf00      	nop

080005d4 <__aeabi_idiv0>:
 80005d4:	4770      	bx	lr
 80005d6:	bf00      	nop

080005d8 <HAL_Init>:
 80005d8:	b538      	push	{r3, r4, r5, lr}
 80005da:	2003      	movs	r0, #3
 80005dc:	4c12      	ldr	r4, [pc, #72]	; (8000628 <HAL_Init+0x50>)
 80005de:	f000 fdf7 	bl	80011d0 <HAL_NVIC_SetPriorityGrouping>
 80005e2:	4d12      	ldr	r5, [pc, #72]	; (800062c <HAL_Init+0x54>)
 80005e4:	f002 ff48 	bl	8003478 <HAL_RCC_GetSysClockFreq>
 80005e8:	4b11      	ldr	r3, [pc, #68]	; (8000630 <HAL_Init+0x58>)
 80005ea:	4602      	mov	r2, r0
 80005ec:	2000      	movs	r0, #0
 80005ee:	6999      	ldr	r1, [r3, #24]
 80005f0:	699b      	ldr	r3, [r3, #24]
 80005f2:	f3c1 2103 	ubfx	r1, r1, #8, #4
 80005f6:	f003 030f 	and.w	r3, r3, #15
 80005fa:	5c61      	ldrb	r1, [r4, r1]
 80005fc:	5ce3      	ldrb	r3, [r4, r3]
 80005fe:	f001 011f 	and.w	r1, r1, #31
 8000602:	4c0c      	ldr	r4, [pc, #48]	; (8000634 <HAL_Init+0x5c>)
 8000604:	f003 031f 	and.w	r3, r3, #31
 8000608:	40ca      	lsrs	r2, r1
 800060a:	fa22 f303 	lsr.w	r3, r2, r3
 800060e:	6022      	str	r2, [r4, #0]
 8000610:	602b      	str	r3, [r5, #0]
 8000612:	f00a fc71 	bl	800aef8 <HAL_InitTick>
 8000616:	b110      	cbz	r0, 800061e <HAL_Init+0x46>
 8000618:	2401      	movs	r4, #1
 800061a:	4620      	mov	r0, r4
 800061c:	bd38      	pop	{r3, r4, r5, pc}
 800061e:	4604      	mov	r4, r0
 8000620:	f00a f91a 	bl	800a858 <HAL_MspInit>
 8000624:	4620      	mov	r0, r4
 8000626:	bd38      	pop	{r3, r4, r5, pc}
 8000628:	0800ba60 	.word	0x0800ba60
 800062c:	24000010 	.word	0x24000010
 8000630:	58024400 	.word	0x58024400
 8000634:	2400000c 	.word	0x2400000c

08000638 <HAL_IncTick>:
 8000638:	4a03      	ldr	r2, [pc, #12]	; (8000648 <HAL_IncTick+0x10>)
 800063a:	4b04      	ldr	r3, [pc, #16]	; (800064c <HAL_IncTick+0x14>)
 800063c:	6811      	ldr	r1, [r2, #0]
 800063e:	781b      	ldrb	r3, [r3, #0]
 8000640:	440b      	add	r3, r1
 8000642:	6013      	str	r3, [r2, #0]
 8000644:	4770      	bx	lr
 8000646:	bf00      	nop
 8000648:	2402737c 	.word	0x2402737c
 800064c:	24000000 	.word	0x24000000

08000650 <HAL_GetTick>:
 8000650:	4b01      	ldr	r3, [pc, #4]	; (8000658 <HAL_GetTick+0x8>)
 8000652:	6818      	ldr	r0, [r3, #0]
 8000654:	4770      	bx	lr
 8000656:	bf00      	nop
 8000658:	2402737c 	.word	0x2402737c

0800065c <HAL_GetREVID>:
 800065c:	4b01      	ldr	r3, [pc, #4]	; (8000664 <HAL_GetREVID+0x8>)
 800065e:	6818      	ldr	r0, [r3, #0]
 8000660:	0c00      	lsrs	r0, r0, #16
 8000662:	4770      	bx	lr
 8000664:	5c001000 	.word	0x5c001000

08000668 <HAL_ADC_LevelOutOfWindowCallback>:
 8000668:	4770      	bx	lr
 800066a:	bf00      	nop

0800066c <HAL_ADC_ErrorCallback>:
 800066c:	4770      	bx	lr
 800066e:	bf00      	nop

08000670 <HAL_ADC_IRQHandler>:
 8000670:	b5f8      	push	{r3, r4, r5, r6, r7, lr}
 8000672:	4a9a      	ldr	r2, [pc, #616]	; (80008dc <HAL_ADC_IRQHandler+0x26c>)
 8000674:	4604      	mov	r4, r0
 8000676:	6803      	ldr	r3, [r0, #0]
 8000678:	4293      	cmp	r3, r2
 800067a:	681d      	ldr	r5, [r3, #0]
 800067c:	685e      	ldr	r6, [r3, #4]
 800067e:	f000 8095 	beq.w	80007ac <HAL_ADC_IRQHandler+0x13c>
 8000682:	f502 7280 	add.w	r2, r2, #256	; 0x100
 8000686:	4293      	cmp	r3, r2
 8000688:	f000 8090 	beq.w	80007ac <HAL_ADC_IRQHandler+0x13c>
 800068c:	4a94      	ldr	r2, [pc, #592]	; (80008e0 <HAL_ADC_IRQHandler+0x270>)
 800068e:	6897      	ldr	r7, [r2, #8]
 8000690:	07a9      	lsls	r1, r5, #30
 8000692:	f007 071f 	and.w	r7, r7, #31
 8000696:	d502      	bpl.n	800069e <HAL_ADC_IRQHandler+0x2e>
 8000698:	07b2      	lsls	r2, r6, #30
 800069a:	f100 80a9 	bmi.w	80007f0 <HAL_ADC_IRQHandler+0x180>
 800069e:	0769      	lsls	r1, r5, #29
 80006a0:	d579      	bpl.n	8000796 <HAL_ADC_IRQHandler+0x126>
 80006a2:	0772      	lsls	r2, r6, #29
 80006a4:	d577      	bpl.n	8000796 <HAL_ADC_IRQHandler+0x126>
 80006a6:	6d62      	ldr	r2, [r4, #84]	; 0x54
 80006a8:	06d2      	lsls	r2, r2, #27
 80006aa:	d403      	bmi.n	80006b4 <HAL_ADC_IRQHandler+0x44>
 80006ac:	6d62      	ldr	r2, [r4, #84]	; 0x54
 80006ae:	f442 7200 	orr.w	r2, r2, #512	; 0x200
 80006b2:	6562      	str	r2, [r4, #84]	; 0x54
 80006b4:	68da      	ldr	r2, [r3, #12]
 80006b6:	f412 6f40 	tst.w	r2, #3072	; 0xc00
 80006ba:	d11c      	bne.n	80006f6 <HAL_ADC_IRQHandler+0x86>
 80006bc:	4a89      	ldr	r2, [pc, #548]	; (80008e4 <HAL_ADC_IRQHandler+0x274>)
 80006be:	4293      	cmp	r3, r2
 80006c0:	f000 80e7 	beq.w	8000892 <HAL_ADC_IRQHandler+0x222>
 80006c4:	68da      	ldr	r2, [r3, #12]
 80006c6:	0490      	lsls	r0, r2, #18
 80006c8:	d415      	bmi.n	80006f6 <HAL_ADC_IRQHandler+0x86>
 80006ca:	681a      	ldr	r2, [r3, #0]
 80006cc:	0711      	lsls	r1, r2, #28
 80006ce:	d512      	bpl.n	80006f6 <HAL_ADC_IRQHandler+0x86>
 80006d0:	689a      	ldr	r2, [r3, #8]
 80006d2:	0752      	lsls	r2, r2, #29
 80006d4:	f100 80ed 	bmi.w	80008b2 <HAL_ADC_IRQHandler+0x242>
 80006d8:	685a      	ldr	r2, [r3, #4]
 80006da:	f022 020c 	bic.w	r2, r2, #12
 80006de:	605a      	str	r2, [r3, #4]
 80006e0:	6d63      	ldr	r3, [r4, #84]	; 0x54
 80006e2:	f423 7380 	bic.w	r3, r3, #256	; 0x100
 80006e6:	6563      	str	r3, [r4, #84]	; 0x54
 80006e8:	6d63      	ldr	r3, [r4, #84]	; 0x54
 80006ea:	04db      	lsls	r3, r3, #19
 80006ec:	d403      	bmi.n	80006f6 <HAL_ADC_IRQHandler+0x86>
 80006ee:	6d63      	ldr	r3, [r4, #84]	; 0x54
 80006f0:	f043 0301 	orr.w	r3, r3, #1
 80006f4:	6563      	str	r3, [r4, #84]	; 0x54
 80006f6:	4620      	mov	r0, r4
 80006f8:	f009 f9b4 	bl	8009a64 <HAL_ADC_ConvCpltCallback>
 80006fc:	6823      	ldr	r3, [r4, #0]
 80006fe:	220c      	movs	r2, #12
 8000700:	601a      	str	r2, [r3, #0]
 8000702:	06a8      	lsls	r0, r5, #26
 8000704:	d54d      	bpl.n	80007a2 <HAL_ADC_IRQHandler+0x132>
 8000706:	06b1      	lsls	r1, r6, #26
 8000708:	d54b      	bpl.n	80007a2 <HAL_ADC_IRQHandler+0x132>
 800070a:	6d62      	ldr	r2, [r4, #84]	; 0x54
 800070c:	06d1      	lsls	r1, r2, #27
 800070e:	d403      	bmi.n	8000718 <HAL_ADC_IRQHandler+0xa8>
 8000710:	6d62      	ldr	r2, [r4, #84]	; 0x54
 8000712:	f442 5200 	orr.w	r2, r2, #8192	; 0x2000
 8000716:	6562      	str	r2, [r4, #84]	; 0x54
 8000718:	4972      	ldr	r1, [pc, #456]	; (80008e4 <HAL_ADC_IRQHandler+0x274>)
 800071a:	6cda      	ldr	r2, [r3, #76]	; 0x4c
 800071c:	428b      	cmp	r3, r1
 800071e:	68d8      	ldr	r0, [r3, #12]
 8000720:	f402 72c0 	and.w	r2, r2, #384	; 0x180
 8000724:	d072      	beq.n	800080c <HAL_ADC_IRQHandler+0x19c>
 8000726:	68d9      	ldr	r1, [r3, #12]
 8000728:	b9d2      	cbnz	r2, 8000760 <HAL_ADC_IRQHandler+0xf0>
 800072a:	018a      	lsls	r2, r1, #6
 800072c:	f100 80a9 	bmi.w	8000882 <HAL_ADC_IRQHandler+0x212>
 8000730:	681a      	ldr	r2, [r3, #0]
 8000732:	0650      	lsls	r0, r2, #25
 8000734:	d514      	bpl.n	8000760 <HAL_ADC_IRQHandler+0xf0>
 8000736:	0289      	lsls	r1, r1, #10
 8000738:	d412      	bmi.n	8000760 <HAL_ADC_IRQHandler+0xf0>
 800073a:	689a      	ldr	r2, [r3, #8]
 800073c:	0712      	lsls	r2, r2, #28
 800073e:	f100 80c3 	bmi.w	80008c8 <HAL_ADC_IRQHandler+0x258>
 8000742:	685a      	ldr	r2, [r3, #4]
 8000744:	f022 0260 	bic.w	r2, r2, #96	; 0x60
 8000748:	605a      	str	r2, [r3, #4]
 800074a:	6d63      	ldr	r3, [r4, #84]	; 0x54
 800074c:	f423 5380 	bic.w	r3, r3, #4096	; 0x1000
 8000750:	6563      	str	r3, [r4, #84]	; 0x54
 8000752:	6d63      	ldr	r3, [r4, #84]	; 0x54
 8000754:	05d8      	lsls	r0, r3, #23
 8000756:	d403      	bmi.n	8000760 <HAL_ADC_IRQHandler+0xf0>
 8000758:	6d63      	ldr	r3, [r4, #84]	; 0x54
 800075a:	f043 0301 	orr.w	r3, r3, #1
 800075e:	6563      	str	r3, [r4, #84]	; 0x54
 8000760:	4620      	mov	r0, r4
 8000762:	f000 fcc3 	bl	80010ec <HAL_ADCEx_InjectedConvCpltCallback>
 8000766:	6823      	ldr	r3, [r4, #0]
 8000768:	2260      	movs	r2, #96	; 0x60
 800076a:	601a      	str	r2, [r3, #0]
 800076c:	0629      	lsls	r1, r5, #24
 800076e:	d501      	bpl.n	8000774 <HAL_ADC_IRQHandler+0x104>
 8000770:	0632      	lsls	r2, r6, #24
 8000772:	d45f      	bmi.n	8000834 <HAL_ADC_IRQHandler+0x1c4>
 8000774:	05e8      	lsls	r0, r5, #23
 8000776:	d501      	bpl.n	800077c <HAL_ADC_IRQHandler+0x10c>
 8000778:	05f1      	lsls	r1, r6, #23
 800077a:	d466      	bmi.n	800084a <HAL_ADC_IRQHandler+0x1da>
 800077c:	05aa      	lsls	r2, r5, #22
 800077e:	d501      	bpl.n	8000784 <HAL_ADC_IRQHandler+0x114>
 8000780:	05b0      	lsls	r0, r6, #22
 8000782:	d44b      	bmi.n	800081c <HAL_ADC_IRQHandler+0x1ac>
 8000784:	06e9      	lsls	r1, r5, #27
 8000786:	d501      	bpl.n	800078c <HAL_ADC_IRQHandler+0x11c>
 8000788:	06f2      	lsls	r2, r6, #27
 800078a:	d411      	bmi.n	80007b0 <HAL_ADC_IRQHandler+0x140>
 800078c:	0568      	lsls	r0, r5, #21
 800078e:	d501      	bpl.n	8000794 <HAL_ADC_IRQHandler+0x124>
 8000790:	0571      	lsls	r1, r6, #21
 8000792:	d466      	bmi.n	8000862 <HAL_ADC_IRQHandler+0x1f2>
 8000794:	bdf8      	pop	{r3, r4, r5, r6, r7, pc}
 8000796:	0728      	lsls	r0, r5, #28
 8000798:	d5b3      	bpl.n	8000702 <HAL_ADC_IRQHandler+0x92>
 800079a:	0731      	lsls	r1, r6, #28
 800079c:	d483      	bmi.n	80006a6 <HAL_ADC_IRQHandler+0x36>
 800079e:	06a8      	lsls	r0, r5, #26
 80007a0:	d4b1      	bmi.n	8000706 <HAL_ADC_IRQHandler+0x96>
 80007a2:	066a      	lsls	r2, r5, #25
 80007a4:	d5e2      	bpl.n	800076c <HAL_ADC_IRQHandler+0xfc>
 80007a6:	0670      	lsls	r0, r6, #25
 80007a8:	d5e0      	bpl.n	800076c <HAL_ADC_IRQHandler+0xfc>
 80007aa:	e7ae      	b.n	800070a <HAL_ADC_IRQHandler+0x9a>
 80007ac:	4a4e      	ldr	r2, [pc, #312]	; (80008e8 <HAL_ADC_IRQHandler+0x278>)
 80007ae:	e76e      	b.n	800068e <HAL_ADC_IRQHandler+0x1e>
 80007b0:	6b22      	ldr	r2, [r4, #48]	; 0x30
 80007b2:	b172      	cbz	r2, 80007d2 <HAL_ADC_IRQHandler+0x162>
 80007b4:	2f00      	cmp	r7, #0
 80007b6:	d071      	beq.n	800089c <HAL_ADC_IRQHandler+0x22c>
 80007b8:	4a48      	ldr	r2, [pc, #288]	; (80008dc <HAL_ADC_IRQHandler+0x26c>)
 80007ba:	4293      	cmp	r3, r2
 80007bc:	f000 8082 	beq.w	80008c4 <HAL_ADC_IRQHandler+0x254>
 80007c0:	f502 7280 	add.w	r2, r2, #256	; 0x100
 80007c4:	4293      	cmp	r3, r2
 80007c6:	d07d      	beq.n	80008c4 <HAL_ADC_IRQHandler+0x254>
 80007c8:	4a45      	ldr	r2, [pc, #276]	; (80008e0 <HAL_ADC_IRQHandler+0x270>)
 80007ca:	6892      	ldr	r2, [r2, #8]
 80007cc:	f412 4f40 	tst.w	r2, #49152	; 0xc000
 80007d0:	d00b      	beq.n	80007ea <HAL_ADC_IRQHandler+0x17a>
 80007d2:	6d63      	ldr	r3, [r4, #84]	; 0x54
 80007d4:	4620      	mov	r0, r4
 80007d6:	f443 6380 	orr.w	r3, r3, #1024	; 0x400
 80007da:	6563      	str	r3, [r4, #84]	; 0x54
 80007dc:	6da3      	ldr	r3, [r4, #88]	; 0x58
 80007de:	f043 0302 	orr.w	r3, r3, #2
 80007e2:	65a3      	str	r3, [r4, #88]	; 0x58
 80007e4:	f7ff ff42 	bl	800066c <HAL_ADC_ErrorCallback>
 80007e8:	6823      	ldr	r3, [r4, #0]
 80007ea:	2210      	movs	r2, #16
 80007ec:	601a      	str	r2, [r3, #0]
 80007ee:	e7cd      	b.n	800078c <HAL_ADC_IRQHandler+0x11c>
 80007f0:	6d63      	ldr	r3, [r4, #84]	; 0x54
 80007f2:	06d8      	lsls	r0, r3, #27
 80007f4:	d403      	bmi.n	80007fe <HAL_ADC_IRQHandler+0x18e>
 80007f6:	6d63      	ldr	r3, [r4, #84]	; 0x54
 80007f8:	f443 6300 	orr.w	r3, r3, #2048	; 0x800
 80007fc:	6563      	str	r3, [r4, #84]	; 0x54
 80007fe:	4620      	mov	r0, r4
 8000800:	f000 fc7c 	bl	80010fc <HAL_ADCEx_EndOfSamplingCallback>
 8000804:	6823      	ldr	r3, [r4, #0]
 8000806:	2202      	movs	r2, #2
 8000808:	601a      	str	r2, [r3, #0]
 800080a:	e748      	b.n	800069e <HAL_ADC_IRQHandler+0x2e>
 800080c:	1fb9      	subs	r1, r7, #6
 800080e:	2901      	cmp	r1, #1
 8000810:	d989      	bls.n	8000726 <HAL_ADC_IRQHandler+0xb6>
 8000812:	2f00      	cmp	r7, #0
 8000814:	d087      	beq.n	8000726 <HAL_ADC_IRQHandler+0xb6>
 8000816:	4931      	ldr	r1, [pc, #196]	; (80008dc <HAL_ADC_IRQHandler+0x26c>)
 8000818:	68c9      	ldr	r1, [r1, #12]
 800081a:	e785      	b.n	8000728 <HAL_ADC_IRQHandler+0xb8>
 800081c:	6d63      	ldr	r3, [r4, #84]	; 0x54
 800081e:	4620      	mov	r0, r4
 8000820:	f443 2380 	orr.w	r3, r3, #262144	; 0x40000
 8000824:	6563      	str	r3, [r4, #84]	; 0x54
 8000826:	f000 fc67 	bl	80010f8 <HAL_ADCEx_LevelOutOfWindow3Callback>
 800082a:	6823      	ldr	r3, [r4, #0]
 800082c:	f44f 7200 	mov.w	r2, #512	; 0x200
 8000830:	601a      	str	r2, [r3, #0]
 8000832:	e7a7      	b.n	8000784 <HAL_ADC_IRQHandler+0x114>
 8000834:	6d63      	ldr	r3, [r4, #84]	; 0x54
 8000836:	4620      	mov	r0, r4
 8000838:	f443 3380 	orr.w	r3, r3, #65536	; 0x10000
 800083c:	6563      	str	r3, [r4, #84]	; 0x54
 800083e:	f7ff ff13 	bl	8000668 <HAL_ADC_LevelOutOfWindowCallback>
 8000842:	6823      	ldr	r3, [r4, #0]
 8000844:	2280      	movs	r2, #128	; 0x80
 8000846:	601a      	str	r2, [r3, #0]
 8000848:	e794      	b.n	8000774 <HAL_ADC_IRQHandler+0x104>
 800084a:	6d63      	ldr	r3, [r4, #84]	; 0x54
 800084c:	4620      	mov	r0, r4
 800084e:	f443 3300 	orr.w	r3, r3, #131072	; 0x20000
 8000852:	6563      	str	r3, [r4, #84]	; 0x54
 8000854:	f000 fc4e 	bl	80010f4 <HAL_ADCEx_LevelOutOfWindow2Callback>
 8000858:	6823      	ldr	r3, [r4, #0]
 800085a:	f44f 7280 	mov.w	r2, #256	; 0x100
 800085e:	601a      	str	r2, [r3, #0]
 8000860:	e78c      	b.n	800077c <HAL_ADC_IRQHandler+0x10c>
 8000862:	6d62      	ldr	r2, [r4, #84]	; 0x54
 8000864:	f44f 6180 	mov.w	r1, #1024	; 0x400
 8000868:	4620      	mov	r0, r4
 800086a:	f442 4280 	orr.w	r2, r2, #16384	; 0x4000
 800086e:	6562      	str	r2, [r4, #84]	; 0x54
 8000870:	6da2      	ldr	r2, [r4, #88]	; 0x58
 8000872:	f042 0208 	orr.w	r2, r2, #8
 8000876:	65a2      	str	r2, [r4, #88]	; 0x58
 8000878:	6019      	str	r1, [r3, #0]
 800087a:	e8bd 40f8 	ldmia.w	sp!, {r3, r4, r5, r6, r7, lr}
 800087e:	f000 bc37 	b.w	80010f0 <HAL_ADCEx_InjectedQueueOverflowCallback>
 8000882:	f400 6040 	and.w	r0, r0, #3072	; 0xc00
 8000886:	f401 5200 	and.w	r2, r1, #8192	; 0x2000
 800088a:	4302      	orrs	r2, r0
 800088c:	f47f af68 	bne.w	8000760 <HAL_ADC_IRQHandler+0xf0>
 8000890:	e74e      	b.n	8000730 <HAL_ADC_IRQHandler+0xc0>
 8000892:	2f09      	cmp	r7, #9
 8000894:	d906      	bls.n	80008a4 <HAL_ADC_IRQHandler+0x234>
 8000896:	4a11      	ldr	r2, [pc, #68]	; (80008dc <HAL_ADC_IRQHandler+0x26c>)
 8000898:	68d2      	ldr	r2, [r2, #12]
 800089a:	e714      	b.n	80006c6 <HAL_ADC_IRQHandler+0x56>
 800089c:	68da      	ldr	r2, [r3, #12]
 800089e:	0797      	lsls	r7, r2, #30
 80008a0:	d0a3      	beq.n	80007ea <HAL_ADC_IRQHandler+0x17a>
 80008a2:	e796      	b.n	80007d2 <HAL_ADC_IRQHandler+0x162>
 80008a4:	f240 2221 	movw	r2, #545	; 0x221
 80008a8:	40fa      	lsrs	r2, r7
 80008aa:	07d2      	lsls	r2, r2, #31
 80008ac:	f53f af0a 	bmi.w	80006c4 <HAL_ADC_IRQHandler+0x54>
 80008b0:	e7f1      	b.n	8000896 <HAL_ADC_IRQHandler+0x226>
 80008b2:	6d63      	ldr	r3, [r4, #84]	; 0x54
 80008b4:	f043 0310 	orr.w	r3, r3, #16
 80008b8:	6563      	str	r3, [r4, #84]	; 0x54
 80008ba:	6da3      	ldr	r3, [r4, #88]	; 0x58
 80008bc:	f043 0301 	orr.w	r3, r3, #1
 80008c0:	65a3      	str	r3, [r4, #88]	; 0x58
 80008c2:	e718      	b.n	80006f6 <HAL_ADC_IRQHandler+0x86>
 80008c4:	4a08      	ldr	r2, [pc, #32]	; (80008e8 <HAL_ADC_IRQHandler+0x278>)
 80008c6:	e780      	b.n	80007ca <HAL_ADC_IRQHandler+0x15a>
 80008c8:	6d63      	ldr	r3, [r4, #84]	; 0x54
 80008ca:	f043 0310 	orr.w	r3, r3, #16
 80008ce:	6563      	str	r3, [r4, #84]	; 0x54
 80008d0:	6da3      	ldr	r3, [r4, #88]	; 0x58
 80008d2:	f043 0301 	orr.w	r3, r3, #1
 80008d6:	65a3      	str	r3, [r4, #88]	; 0x58
 80008d8:	e742      	b.n	8000760 <HAL_ADC_IRQHandler+0xf0>
 80008da:	bf00      	nop
 80008dc:	40022000 	.word	0x40022000
 80008e0:	58026300 	.word	0x58026300
 80008e4:	40022100 	.word	0x40022100
 80008e8:	40022300 	.word	0x40022300

080008ec <HAL_ADC_ConfigChannel>:
 80008ec:	b5f0      	push	{r4, r5, r6, r7, lr}
 80008ee:	2200      	movs	r2, #0
 80008f0:	b083      	sub	sp, #12
 80008f2:	9201      	str	r2, [sp, #4]
 80008f4:	f890 2050 	ldrb.w	r2, [r0, #80]	; 0x50
 80008f8:	2a01      	cmp	r2, #1
 80008fa:	f000 813a 	beq.w	8000b72 <HAL_ADC_ConfigChannel+0x286>
 80008fe:	4603      	mov	r3, r0
 8000900:	2001      	movs	r0, #1
 8000902:	681a      	ldr	r2, [r3, #0]
 8000904:	f883 0050 	strb.w	r0, [r3, #80]	; 0x50
 8000908:	6894      	ldr	r4, [r2, #8]
 800090a:	0766      	lsls	r6, r4, #29
 800090c:	f100 8099 	bmi.w	8000a42 <HAL_ADC_ConfigChannel+0x156>
 8000910:	680c      	ldr	r4, [r1, #0]
 8000912:	f3c4 0513 	ubfx	r5, r4, #0, #20
 8000916:	2d00      	cmp	r5, #0
 8000918:	f040 809e 	bne.w	8000a58 <HAL_ADC_ConfigChannel+0x16c>
 800091c:	f3c4 6c84 	ubfx	ip, r4, #26, #5
 8000920:	fa00 f00c 	lsl.w	r0, r0, ip
 8000924:	684c      	ldr	r4, [r1, #4]
 8000926:	261f      	movs	r6, #31
 8000928:	69d5      	ldr	r5, [r2, #28]
 800092a:	09a7      	lsrs	r7, r4, #6
 800092c:	4034      	ands	r4, r6
 800092e:	4328      	orrs	r0, r5
 8000930:	f102 0530 	add.w	r5, r2, #48	; 0x30
 8000934:	f007 070c 	and.w	r7, r7, #12
 8000938:	40a6      	lsls	r6, r4
 800093a:	61d0      	str	r0, [r2, #28]
 800093c:	fa0c f404 	lsl.w	r4, ip, r4
 8000940:	5978      	ldr	r0, [r7, r5]
 8000942:	ea20 0006 	bic.w	r0, r0, r6
 8000946:	4320      	orrs	r0, r4
 8000948:	5178      	str	r0, [r7, r5]
 800094a:	6890      	ldr	r0, [r2, #8]
 800094c:	0745      	lsls	r5, r0, #29
 800094e:	f100 8081 	bmi.w	8000a54 <HAL_ADC_ConfigChannel+0x168>
 8000952:	6895      	ldr	r5, [r2, #8]
 8000954:	f015 0508 	ands.w	r5, r5, #8
 8000958:	d157      	bne.n	8000a0a <HAL_ADC_ConfigChannel+0x11e>
 800095a:	680c      	ldr	r4, [r1, #0]
 800095c:	f102 0614 	add.w	r6, r2, #20
 8000960:	2007      	movs	r0, #7
 8000962:	688f      	ldr	r7, [r1, #8]
 8000964:	ea4f 5cd4 	mov.w	ip, r4, lsr #23
 8000968:	f3c4 5404 	ubfx	r4, r4, #20, #5
 800096c:	f00c 0c04 	and.w	ip, ip, #4
 8000970:	fa00 fe04 	lsl.w	lr, r0, r4
 8000974:	fa07 f404 	lsl.w	r4, r7, r4
 8000978:	4fc4      	ldr	r7, [pc, #784]	; (8000c8c <HAL_ADC_ConfigChannel+0x3a0>)
 800097a:	f85c 0006 	ldr.w	r0, [ip, r6]
 800097e:	ea20 000e 	bic.w	r0, r0, lr
 8000982:	4320      	orrs	r0, r4
 8000984:	f84c 0006 	str.w	r0, [ip, r6]
 8000988:	6838      	ldr	r0, [r7, #0]
 800098a:	f000 4070 	and.w	r0, r0, #4026531840	; 0xf0000000
 800098e:	f1b0 5f80 	cmp.w	r0, #268435456	; 0x10000000
 8000992:	f000 8098 	beq.w	8000ac6 <HAL_ADC_ConfigChannel+0x1da>
 8000996:	68d0      	ldr	r0, [r2, #12]
 8000998:	68d6      	ldr	r6, [r2, #12]
 800099a:	f010 0f10 	tst.w	r0, #16
 800099e:	6948      	ldr	r0, [r1, #20]
 80009a0:	f040 8107 	bne.w	8000bb2 <HAL_ADC_ConfigChannel+0x2c6>
 80009a4:	f3c6 0682 	ubfx	r6, r6, #2, #3
 80009a8:	0076      	lsls	r6, r6, #1
 80009aa:	fa00 f606 	lsl.w	r6, r0, r6
 80009ae:	690f      	ldr	r7, [r1, #16]
 80009b0:	2f04      	cmp	r7, #4
 80009b2:	f000 80e1 	beq.w	8000b78 <HAL_ADC_ConfigChannel+0x28c>
 80009b6:	f102 0460 	add.w	r4, r2, #96	; 0x60
 80009ba:	6808      	ldr	r0, [r1, #0]
 80009bc:	f854 c027 	ldr.w	ip, [r4, r7, lsl #2]
 80009c0:	f000 40f8 	and.w	r0, r0, #2080374784	; 0x7c000000
 80009c4:	f00c 4c00 	and.w	ip, ip, #2147483648	; 0x80000000
 80009c8:	ea40 000c 	orr.w	r0, r0, ip
 80009cc:	4330      	orrs	r0, r6
 80009ce:	f844 0027 	str.w	r0, [r4, r7, lsl #2]
 80009d2:	7e4f      	ldrb	r7, [r1, #25]
 80009d4:	690e      	ldr	r6, [r1, #16]
 80009d6:	2f01      	cmp	r7, #1
 80009d8:	f854 0026 	ldr.w	r0, [r4, r6, lsl #2]
 80009dc:	bf0c      	ite	eq
 80009de:	f04f 4700 	moveq.w	r7, #2147483648	; 0x80000000
 80009e2:	2700      	movne	r7, #0
 80009e4:	f020 4000 	bic.w	r0, r0, #2147483648	; 0x80000000
 80009e8:	4338      	orrs	r0, r7
 80009ea:	f844 0026 	str.w	r0, [r4, r6, lsl #2]
 80009ee:	7e0c      	ldrb	r4, [r1, #24]
 80009f0:	6908      	ldr	r0, [r1, #16]
 80009f2:	2c01      	cmp	r4, #1
 80009f4:	d104      	bne.n	8000a00 <HAL_ADC_ConfigChannel+0x114>
 80009f6:	f000 001f 	and.w	r0, r0, #31
 80009fa:	f44f 6500 	mov.w	r5, #2048	; 0x800
 80009fe:	4085      	lsls	r5, r0
 8000a00:	6910      	ldr	r0, [r2, #16]
 8000a02:	f420 40f0 	bic.w	r0, r0, #30720	; 0x7800
 8000a06:	4305      	orrs	r5, r0
 8000a08:	6115      	str	r5, [r2, #16]
 8000a0a:	6890      	ldr	r0, [r2, #8]
 8000a0c:	07c4      	lsls	r4, r0, #31
 8000a0e:	d416      	bmi.n	8000a3e <HAL_ADC_ConfigChannel+0x152>
 8000a10:	68ce      	ldr	r6, [r1, #12]
 8000a12:	6808      	ldr	r0, [r1, #0]
 8000a14:	f006 0718 	and.w	r7, r6, #24
 8000a18:	4c9d      	ldr	r4, [pc, #628]	; (8000c90 <HAL_ADC_ConfigChannel+0x3a4>)
 8000a1a:	f8d2 50c0 	ldr.w	r5, [r2, #192]	; 0xc0
 8000a1e:	40fc      	lsrs	r4, r7
 8000a20:	f3c0 0713 	ubfx	r7, r0, #0, #20
 8000a24:	f8df c28c 	ldr.w	ip, [pc, #652]	; 8000cb4 <HAL_ADC_ConfigChannel+0x3c8>
 8000a28:	4004      	ands	r4, r0
 8000a2a:	ea25 0507 	bic.w	r5, r5, r7
 8000a2e:	4566      	cmp	r6, ip
 8000a30:	ea44 0405 	orr.w	r4, r4, r5
 8000a34:	f8c2 40c0 	str.w	r4, [r2, #192]	; 0xc0
 8000a38:	d04d      	beq.n	8000ad6 <HAL_ADC_ConfigChannel+0x1ea>
 8000a3a:	2800      	cmp	r0, #0
 8000a3c:	db15      	blt.n	8000a6a <HAL_ADC_ConfigChannel+0x17e>
 8000a3e:	2000      	movs	r0, #0
 8000a40:	e003      	b.n	8000a4a <HAL_ADC_ConfigChannel+0x15e>
 8000a42:	6d5a      	ldr	r2, [r3, #84]	; 0x54
 8000a44:	f042 0220 	orr.w	r2, r2, #32
 8000a48:	655a      	str	r2, [r3, #84]	; 0x54
 8000a4a:	2200      	movs	r2, #0
 8000a4c:	f883 2050 	strb.w	r2, [r3, #80]	; 0x50
 8000a50:	b003      	add	sp, #12
 8000a52:	bdf0      	pop	{r4, r5, r6, r7, pc}
 8000a54:	6890      	ldr	r0, [r2, #8]
 8000a56:	e7d8      	b.n	8000a0a <HAL_ADC_ConfigChannel+0x11e>
 8000a58:	fa94 f5a4 	rbit	r5, r4
 8000a5c:	b115      	cbz	r5, 8000a64 <HAL_ADC_ConfigChannel+0x178>
 8000a5e:	fab5 f585 	clz	r5, r5
 8000a62:	40a8      	lsls	r0, r5
 8000a64:	f3c4 6c84 	ubfx	ip, r4, #26, #5
 8000a68:	e75c      	b.n	8000924 <HAL_ADC_ConfigChannel+0x38>
 8000a6a:	498a      	ldr	r1, [pc, #552]	; (8000c94 <HAL_ADC_ConfigChannel+0x3a8>)
 8000a6c:	428a      	cmp	r2, r1
 8000a6e:	f000 80c6 	beq.w	8000bfe <HAL_ADC_ConfigChannel+0x312>
 8000a72:	f501 7180 	add.w	r1, r1, #256	; 0x100
 8000a76:	428a      	cmp	r2, r1
 8000a78:	f000 80c1 	beq.w	8000bfe <HAL_ADC_ConfigChannel+0x312>
 8000a7c:	4e86      	ldr	r6, [pc, #536]	; (8000c98 <HAL_ADC_ConfigChannel+0x3ac>)
 8000a7e:	4d87      	ldr	r5, [pc, #540]	; (8000c9c <HAL_ADC_ConfigChannel+0x3b0>)
 8000a80:	68a9      	ldr	r1, [r5, #8]
 8000a82:	68b4      	ldr	r4, [r6, #8]
 8000a84:	f001 76e0 	and.w	r6, r1, #29360128	; 0x1c00000
 8000a88:	43e4      	mvns	r4, r4
 8000a8a:	f004 0401 	and.w	r4, r4, #1
 8000a8e:	2c00      	cmp	r4, #0
 8000a90:	f000 80c3 	beq.w	8000c1a <HAL_ADC_ConfigChannel+0x32e>
 8000a94:	4c82      	ldr	r4, [pc, #520]	; (8000ca0 <HAL_ADC_ConfigChannel+0x3b4>)
 8000a96:	42a0      	cmp	r0, r4
 8000a98:	f000 810e 	beq.w	8000cb8 <HAL_ADC_ConfigChannel+0x3cc>
 8000a9c:	4c81      	ldr	r4, [pc, #516]	; (8000ca4 <HAL_ADC_ConfigChannel+0x3b8>)
 8000a9e:	42a0      	cmp	r0, r4
 8000aa0:	f000 812d 	beq.w	8000cfe <HAL_ADC_ConfigChannel+0x412>
 8000aa4:	4c80      	ldr	r4, [pc, #512]	; (8000ca8 <HAL_ADC_ConfigChannel+0x3bc>)
 8000aa6:	42a0      	cmp	r0, r4
 8000aa8:	d1c9      	bne.n	8000a3e <HAL_ADC_ConfigChannel+0x152>
 8000aaa:	0249      	lsls	r1, r1, #9
 8000aac:	d4c7      	bmi.n	8000a3e <HAL_ADC_ConfigChannel+0x152>
 8000aae:	497a      	ldr	r1, [pc, #488]	; (8000c98 <HAL_ADC_ConfigChannel+0x3ac>)
 8000ab0:	428a      	cmp	r2, r1
 8000ab2:	d1c4      	bne.n	8000a3e <HAL_ADC_ConfigChannel+0x152>
 8000ab4:	68aa      	ldr	r2, [r5, #8]
 8000ab6:	2000      	movs	r0, #0
 8000ab8:	f022 72e0 	bic.w	r2, r2, #29360128	; 0x1c00000
 8000abc:	4332      	orrs	r2, r6
 8000abe:	f442 0280 	orr.w	r2, r2, #4194304	; 0x400000
 8000ac2:	60aa      	str	r2, [r5, #8]
 8000ac4:	e7c1      	b.n	8000a4a <HAL_ADC_ConfigChannel+0x15e>
 8000ac6:	68d6      	ldr	r6, [r2, #12]
 8000ac8:	6948      	ldr	r0, [r1, #20]
 8000aca:	f3c6 0682 	ubfx	r6, r6, #2, #3
 8000ace:	0076      	lsls	r6, r6, #1
 8000ad0:	fa00 f606 	lsl.w	r6, r0, r6
 8000ad4:	e76b      	b.n	80009ae <HAL_ADC_ConfigChannel+0xc2>
 8000ad6:	2f00      	cmp	r7, #0
 8000ad8:	d071      	beq.n	8000bbe <HAL_ADC_ConfigChannel+0x2d2>
 8000ada:	fa90 f4a0 	rbit	r4, r0
 8000ade:	2c00      	cmp	r4, #0
 8000ae0:	f000 80af 	beq.w	8000c42 <HAL_ADC_ConfigChannel+0x356>
 8000ae4:	fab4 f484 	clz	r4, r4
 8000ae8:	3401      	adds	r4, #1
 8000aea:	f004 041f 	and.w	r4, r4, #31
 8000aee:	2c09      	cmp	r4, #9
 8000af0:	f240 80a7 	bls.w	8000c42 <HAL_ADC_ConfigChannel+0x356>
 8000af4:	fa90 f5a0 	rbit	r5, r0
 8000af8:	2d00      	cmp	r5, #0
 8000afa:	f000 8114 	beq.w	8000d26 <HAL_ADC_ConfigChannel+0x43a>
 8000afe:	fab5 f585 	clz	r5, r5
 8000b02:	3501      	adds	r5, #1
 8000b04:	06ad      	lsls	r5, r5, #26
 8000b06:	f005 45f8 	and.w	r5, r5, #2080374784	; 0x7c000000
 8000b0a:	fa90 f4a0 	rbit	r4, r0
 8000b0e:	2c00      	cmp	r4, #0
 8000b10:	f000 8107 	beq.w	8000d22 <HAL_ADC_ConfigChannel+0x436>
 8000b14:	2601      	movs	r6, #1
 8000b16:	fab4 f484 	clz	r4, r4
 8000b1a:	4434      	add	r4, r6
 8000b1c:	f004 041f 	and.w	r4, r4, #31
 8000b20:	fa06 f404 	lsl.w	r4, r6, r4
 8000b24:	4325      	orrs	r5, r4
 8000b26:	fa90 f0a0 	rbit	r0, r0
 8000b2a:	2800      	cmp	r0, #0
 8000b2c:	f000 80f7 	beq.w	8000d1e <HAL_ADC_ConfigChannel+0x432>
 8000b30:	fab0 f480 	clz	r4, r0
 8000b34:	3401      	adds	r4, #1
 8000b36:	f004 041f 	and.w	r4, r4, #31
 8000b3a:	eb04 0444 	add.w	r4, r4, r4, lsl #1
 8000b3e:	f1a4 001e 	sub.w	r0, r4, #30
 8000b42:	0500      	lsls	r0, r0, #20
 8000b44:	f040 7000 	orr.w	r0, r0, #33554432	; 0x2000000
 8000b48:	4328      	orrs	r0, r5
 8000b4a:	f04f 0c07 	mov.w	ip, #7
 8000b4e:	f102 0514 	add.w	r5, r2, #20
 8000b52:	688e      	ldr	r6, [r1, #8]
 8000b54:	0dc7      	lsrs	r7, r0, #23
 8000b56:	f3c0 5004 	ubfx	r0, r0, #20, #5
 8000b5a:	f007 0704 	and.w	r7, r7, #4
 8000b5e:	fa0c fc00 	lsl.w	ip, ip, r0
 8000b62:	4086      	lsls	r6, r0
 8000b64:	597c      	ldr	r4, [r7, r5]
 8000b66:	ea24 000c 	bic.w	r0, r4, ip
 8000b6a:	4330      	orrs	r0, r6
 8000b6c:	5178      	str	r0, [r7, r5]
 8000b6e:	6808      	ldr	r0, [r1, #0]
 8000b70:	e763      	b.n	8000a3a <HAL_ADC_ConfigChannel+0x14e>
 8000b72:	2002      	movs	r0, #2
 8000b74:	b003      	add	sp, #12
 8000b76:	bdf0      	pop	{r4, r5, r6, r7, pc}
 8000b78:	6e10      	ldr	r0, [r2, #96]	; 0x60
 8000b7a:	680d      	ldr	r5, [r1, #0]
 8000b7c:	f000 40f8 	and.w	r0, r0, #2080374784	; 0x7c000000
 8000b80:	06ac      	lsls	r4, r5, #26
 8000b82:	ebb0 6f85 	cmp.w	r0, r5, lsl #26
 8000b86:	d030      	beq.n	8000bea <HAL_ADC_ConfigChannel+0x2fe>
 8000b88:	6e50      	ldr	r0, [r2, #100]	; 0x64
 8000b8a:	f000 40f8 	and.w	r0, r0, #2080374784	; 0x7c000000
 8000b8e:	4284      	cmp	r4, r0
 8000b90:	d026      	beq.n	8000be0 <HAL_ADC_ConfigChannel+0x2f4>
 8000b92:	6e90      	ldr	r0, [r2, #104]	; 0x68
 8000b94:	f000 40f8 	and.w	r0, r0, #2080374784	; 0x7c000000
 8000b98:	4284      	cmp	r4, r0
 8000b9a:	d02b      	beq.n	8000bf4 <HAL_ADC_ConfigChannel+0x308>
 8000b9c:	6ed0      	ldr	r0, [r2, #108]	; 0x6c
 8000b9e:	f000 40f8 	and.w	r0, r0, #2080374784	; 0x7c000000
 8000ba2:	4284      	cmp	r4, r0
 8000ba4:	f47f af31 	bne.w	8000a0a <HAL_ADC_ConfigChannel+0x11e>
 8000ba8:	6ed0      	ldr	r0, [r2, #108]	; 0x6c
 8000baa:	f020 4000 	bic.w	r0, r0, #2147483648	; 0x80000000
 8000bae:	66d0      	str	r0, [r2, #108]	; 0x6c
 8000bb0:	e72b      	b.n	8000a0a <HAL_ADC_ConfigChannel+0x11e>
 8000bb2:	0876      	lsrs	r6, r6, #1
 8000bb4:	f006 0608 	and.w	r6, r6, #8
 8000bb8:	fa00 f606 	lsl.w	r6, r0, r6
 8000bbc:	e6f7      	b.n	80009ae <HAL_ADC_ConfigChannel+0xc2>
 8000bbe:	0e80      	lsrs	r0, r0, #26
 8000bc0:	1c44      	adds	r4, r0, #1
 8000bc2:	f004 061f 	and.w	r6, r4, #31
 8000bc6:	2e09      	cmp	r6, #9
 8000bc8:	d82d      	bhi.n	8000c26 <HAL_ADC_ConfigChannel+0x33a>
 8000bca:	06a5      	lsls	r5, r4, #26
 8000bcc:	2401      	movs	r4, #1
 8000bce:	eb06 0046 	add.w	r0, r6, r6, lsl #1
 8000bd2:	f005 45f8 	and.w	r5, r5, #2080374784	; 0x7c000000
 8000bd6:	fa04 f606 	lsl.w	r6, r4, r6
 8000bda:	0500      	lsls	r0, r0, #20
 8000bdc:	4335      	orrs	r5, r6
 8000bde:	e7b3      	b.n	8000b48 <HAL_ADC_ConfigChannel+0x25c>
 8000be0:	6e50      	ldr	r0, [r2, #100]	; 0x64
 8000be2:	f020 4000 	bic.w	r0, r0, #2147483648	; 0x80000000
 8000be6:	6650      	str	r0, [r2, #100]	; 0x64
 8000be8:	e7d3      	b.n	8000b92 <HAL_ADC_ConfigChannel+0x2a6>
 8000bea:	6e10      	ldr	r0, [r2, #96]	; 0x60
 8000bec:	f020 4000 	bic.w	r0, r0, #2147483648	; 0x80000000
 8000bf0:	6610      	str	r0, [r2, #96]	; 0x60
 8000bf2:	e7c9      	b.n	8000b88 <HAL_ADC_ConfigChannel+0x29c>
 8000bf4:	6e90      	ldr	r0, [r2, #104]	; 0x68
 8000bf6:	f020 4000 	bic.w	r0, r0, #2147483648	; 0x80000000
 8000bfa:	6690      	str	r0, [r2, #104]	; 0x68
 8000bfc:	e7ce      	b.n	8000b9c <HAL_ADC_ConfigChannel+0x2b0>
 8000bfe:	492b      	ldr	r1, [pc, #172]	; (8000cac <HAL_ADC_ConfigChannel+0x3c0>)
 8000c00:	4e24      	ldr	r6, [pc, #144]	; (8000c94 <HAL_ADC_ConfigChannel+0x3a8>)
 8000c02:	4c2b      	ldr	r4, [pc, #172]	; (8000cb0 <HAL_ADC_ConfigChannel+0x3c4>)
 8000c04:	460d      	mov	r5, r1
 8000c06:	6889      	ldr	r1, [r1, #8]
 8000c08:	68b7      	ldr	r7, [r6, #8]
 8000c0a:	68a4      	ldr	r4, [r4, #8]
 8000c0c:	f001 76e0 	and.w	r6, r1, #29360128	; 0x1c00000
 8000c10:	433c      	orrs	r4, r7
 8000c12:	43e4      	mvns	r4, r4
 8000c14:	f004 0401 	and.w	r4, r4, #1
 8000c18:	e739      	b.n	8000a8e <HAL_ADC_ConfigChannel+0x1a2>
 8000c1a:	6d5a      	ldr	r2, [r3, #84]	; 0x54
 8000c1c:	2001      	movs	r0, #1
 8000c1e:	f042 0220 	orr.w	r2, r2, #32
 8000c22:	655a      	str	r2, [r3, #84]	; 0x54
 8000c24:	e711      	b.n	8000a4a <HAL_ADC_ConfigChannel+0x15e>
 8000c26:	eb06 0046 	add.w	r0, r6, r6, lsl #1
 8000c2a:	2701      	movs	r7, #1
 8000c2c:	06a5      	lsls	r5, r4, #26
 8000c2e:	381e      	subs	r0, #30
 8000c30:	fa07 f606 	lsl.w	r6, r7, r6
 8000c34:	f005 45f8 	and.w	r5, r5, #2080374784	; 0x7c000000
 8000c38:	0500      	lsls	r0, r0, #20
 8000c3a:	4335      	orrs	r5, r6
 8000c3c:	f040 7000 	orr.w	r0, r0, #33554432	; 0x2000000
 8000c40:	e782      	b.n	8000b48 <HAL_ADC_ConfigChannel+0x25c>
 8000c42:	fa90 f5a0 	rbit	r5, r0
 8000c46:	2d00      	cmp	r5, #0
 8000c48:	d075      	beq.n	8000d36 <HAL_ADC_ConfigChannel+0x44a>
 8000c4a:	fab5 f585 	clz	r5, r5
 8000c4e:	3501      	adds	r5, #1
 8000c50:	06ad      	lsls	r5, r5, #26
 8000c52:	f005 45f8 	and.w	r5, r5, #2080374784	; 0x7c000000
 8000c56:	fa90 f4a0 	rbit	r4, r0
 8000c5a:	2c00      	cmp	r4, #0
 8000c5c:	d069      	beq.n	8000d32 <HAL_ADC_ConfigChannel+0x446>
 8000c5e:	2601      	movs	r6, #1
 8000c60:	fab4 f484 	clz	r4, r4
 8000c64:	4434      	add	r4, r6
 8000c66:	f004 041f 	and.w	r4, r4, #31
 8000c6a:	fa06 f404 	lsl.w	r4, r6, r4
 8000c6e:	4325      	orrs	r5, r4
 8000c70:	fa90 f0a0 	rbit	r0, r0
 8000c74:	2800      	cmp	r0, #0
 8000c76:	d059      	beq.n	8000d2c <HAL_ADC_ConfigChannel+0x440>
 8000c78:	fab0 f480 	clz	r4, r0
 8000c7c:	3401      	adds	r4, #1
 8000c7e:	f004 041f 	and.w	r4, r4, #31
 8000c82:	eb04 0444 	add.w	r4, r4, r4, lsl #1
 8000c86:	0520      	lsls	r0, r4, #20
 8000c88:	e75e      	b.n	8000b48 <HAL_ADC_ConfigChannel+0x25c>
 8000c8a:	bf00      	nop
 8000c8c:	5c001000 	.word	0x5c001000
 8000c90:	000fffff 	.word	0x000fffff
 8000c94:	40022000 	.word	0x40022000
 8000c98:	58026000 	.word	0x58026000
 8000c9c:	58026300 	.word	0x58026300
 8000ca0:	cb840000 	.word	0xcb840000
 8000ca4:	c7520000 	.word	0xc7520000
 8000ca8:	cfb80000 	.word	0xcfb80000
 8000cac:	40022300 	.word	0x40022300
 8000cb0:	40022100 	.word	0x40022100
 8000cb4:	47ff0000 	.word	0x47ff0000
 8000cb8:	0208      	lsls	r0, r1, #8
 8000cba:	f53f aec0 	bmi.w	8000a3e <HAL_ADC_ConfigChannel+0x152>
 8000cbe:	491f      	ldr	r1, [pc, #124]	; (8000d3c <HAL_ADC_ConfigChannel+0x450>)
 8000cc0:	428a      	cmp	r2, r1
 8000cc2:	f47f aebc 	bne.w	8000a3e <HAL_ADC_ConfigChannel+0x152>
 8000cc6:	4a1e      	ldr	r2, [pc, #120]	; (8000d40 <HAL_ADC_ConfigChannel+0x454>)
 8000cc8:	481e      	ldr	r0, [pc, #120]	; (8000d44 <HAL_ADC_ConfigChannel+0x458>)
 8000cca:	6812      	ldr	r2, [r2, #0]
 8000ccc:	68a9      	ldr	r1, [r5, #8]
 8000cce:	0992      	lsrs	r2, r2, #6
 8000cd0:	f021 71e0 	bic.w	r1, r1, #29360128	; 0x1c00000
 8000cd4:	fba0 0202 	umull	r0, r2, r0, r2
 8000cd8:	4331      	orrs	r1, r6
 8000cda:	0992      	lsrs	r2, r2, #6
 8000cdc:	f441 0100 	orr.w	r1, r1, #8388608	; 0x800000
 8000ce0:	3201      	adds	r2, #1
 8000ce2:	60a9      	str	r1, [r5, #8]
 8000ce4:	0052      	lsls	r2, r2, #1
 8000ce6:	9201      	str	r2, [sp, #4]
 8000ce8:	9a01      	ldr	r2, [sp, #4]
 8000cea:	2a00      	cmp	r2, #0
 8000cec:	f43f aea7 	beq.w	8000a3e <HAL_ADC_ConfigChannel+0x152>
 8000cf0:	9a01      	ldr	r2, [sp, #4]
 8000cf2:	3a01      	subs	r2, #1
 8000cf4:	9201      	str	r2, [sp, #4]
 8000cf6:	9a01      	ldr	r2, [sp, #4]
 8000cf8:	2a00      	cmp	r2, #0
 8000cfa:	d1f9      	bne.n	8000cf0 <HAL_ADC_ConfigChannel+0x404>
 8000cfc:	e69f      	b.n	8000a3e <HAL_ADC_ConfigChannel+0x152>
 8000cfe:	f011 7080 	ands.w	r0, r1, #16777216	; 0x1000000
 8000d02:	f47f ae9c 	bne.w	8000a3e <HAL_ADC_ConfigChannel+0x152>
 8000d06:	490d      	ldr	r1, [pc, #52]	; (8000d3c <HAL_ADC_ConfigChannel+0x450>)
 8000d08:	428a      	cmp	r2, r1
 8000d0a:	f47f ae98 	bne.w	8000a3e <HAL_ADC_ConfigChannel+0x152>
 8000d0e:	68aa      	ldr	r2, [r5, #8]
 8000d10:	f022 72e0 	bic.w	r2, r2, #29360128	; 0x1c00000
 8000d14:	4332      	orrs	r2, r6
 8000d16:	f042 7280 	orr.w	r2, r2, #16777216	; 0x1000000
 8000d1a:	60aa      	str	r2, [r5, #8]
 8000d1c:	e695      	b.n	8000a4a <HAL_ADC_ConfigChannel+0x15e>
 8000d1e:	480a      	ldr	r0, [pc, #40]	; (8000d48 <HAL_ADC_ConfigChannel+0x45c>)
 8000d20:	e712      	b.n	8000b48 <HAL_ADC_ConfigChannel+0x25c>
 8000d22:	2402      	movs	r4, #2
 8000d24:	e6fe      	b.n	8000b24 <HAL_ADC_ConfigChannel+0x238>
 8000d26:	f04f 6580 	mov.w	r5, #67108864	; 0x4000000
 8000d2a:	e6ee      	b.n	8000b0a <HAL_ADC_ConfigChannel+0x21e>
 8000d2c:	f44f 1040 	mov.w	r0, #3145728	; 0x300000
 8000d30:	e70a      	b.n	8000b48 <HAL_ADC_ConfigChannel+0x25c>
 8000d32:	2402      	movs	r4, #2
 8000d34:	e79b      	b.n	8000c6e <HAL_ADC_ConfigChannel+0x382>
 8000d36:	f04f 6580 	mov.w	r5, #67108864	; 0x4000000
 8000d3a:	e78c      	b.n	8000c56 <HAL_ADC_ConfigChannel+0x36a>
 8000d3c:	58026000 	.word	0x58026000
 8000d40:	2400000c 	.word	0x2400000c
 8000d44:	053e2d63 	.word	0x053e2d63
 8000d48:	fe500000 	.word	0xfe500000

08000d4c <ADC_ConfigureBoostMode>:
 8000d4c:	b538      	push	{r3, r4, r5, lr}
 8000d4e:	4a5a      	ldr	r2, [pc, #360]	; (8000eb8 <ADC_ConfigureBoostMode+0x16c>)
 8000d50:	4604      	mov	r4, r0
 8000d52:	6803      	ldr	r3, [r0, #0]
 8000d54:	4293      	cmp	r3, r2
 8000d56:	d029      	beq.n	8000dac <ADC_ConfigureBoostMode+0x60>
 8000d58:	f502 7280 	add.w	r2, r2, #256	; 0x100
 8000d5c:	4293      	cmp	r3, r2
 8000d5e:	d025      	beq.n	8000dac <ADC_ConfigureBoostMode+0x60>
 8000d60:	4b56      	ldr	r3, [pc, #344]	; (8000ebc <ADC_ConfigureBoostMode+0x170>)
 8000d62:	689b      	ldr	r3, [r3, #8]
 8000d64:	f413 3f40 	tst.w	r3, #196608	; 0x30000
 8000d68:	bf14      	ite	ne
 8000d6a:	2301      	movne	r3, #1
 8000d6c:	2300      	moveq	r3, #0
 8000d6e:	b333      	cbz	r3, 8000dbe <ADC_ConfigureBoostMode+0x72>
 8000d70:	f002 fd4c 	bl	800380c <HAL_RCC_GetHCLKFreq>
 8000d74:	6863      	ldr	r3, [r4, #4]
 8000d76:	4605      	mov	r5, r0
 8000d78:	f5b3 3f00 	cmp.w	r3, #131072	; 0x20000
 8000d7c:	f000 808b 	beq.w	8000e96 <ADC_ConfigureBoostMode+0x14a>
 8000d80:	f5b3 3f40 	cmp.w	r3, #196608	; 0x30000
 8000d84:	d06f      	beq.n	8000e66 <ADC_ConfigureBoostMode+0x11a>
 8000d86:	f5b3 3f80 	cmp.w	r3, #65536	; 0x10000
 8000d8a:	f000 8084 	beq.w	8000e96 <ADC_ConfigureBoostMode+0x14a>
 8000d8e:	f7ff fc65 	bl	800065c <HAL_GetREVID>
 8000d92:	f241 0303 	movw	r3, #4099	; 0x1003
 8000d96:	4298      	cmp	r0, r3
 8000d98:	d84e      	bhi.n	8000e38 <ADC_ConfigureBoostMode+0xec>
 8000d9a:	4b49      	ldr	r3, [pc, #292]	; (8000ec0 <ADC_ConfigureBoostMode+0x174>)
 8000d9c:	429d      	cmp	r5, r3
 8000d9e:	d92d      	bls.n	8000dfc <ADC_ConfigureBoostMode+0xb0>
 8000da0:	6822      	ldr	r2, [r4, #0]
 8000da2:	6893      	ldr	r3, [r2, #8]
 8000da4:	f443 7380 	orr.w	r3, r3, #256	; 0x100
 8000da8:	6093      	str	r3, [r2, #8]
 8000daa:	bd38      	pop	{r3, r4, r5, pc}
 8000dac:	4b45      	ldr	r3, [pc, #276]	; (8000ec4 <ADC_ConfigureBoostMode+0x178>)
 8000dae:	689b      	ldr	r3, [r3, #8]
 8000db0:	f413 3f40 	tst.w	r3, #196608	; 0x30000
 8000db4:	bf14      	ite	ne
 8000db6:	2301      	movne	r3, #1
 8000db8:	2300      	moveq	r3, #0
 8000dba:	2b00      	cmp	r3, #0
 8000dbc:	d1d8      	bne.n	8000d70 <ADC_ConfigureBoostMode+0x24>
 8000dbe:	f44f 2000 	mov.w	r0, #524288	; 0x80000
 8000dc2:	f003 fec1 	bl	8004b48 <HAL_RCCEx_GetPeriphCLKFreq>
 8000dc6:	6863      	ldr	r3, [r4, #4]
 8000dc8:	4605      	mov	r5, r0
 8000dca:	f5b3 1f10 	cmp.w	r3, #2359296	; 0x240000
 8000dce:	d06c      	beq.n	8000eaa <ADC_ConfigureBoostMode+0x15e>
 8000dd0:	d808      	bhi.n	8000de4 <ADC_ConfigureBoostMode+0x98>
 8000dd2:	f5b3 1fe0 	cmp.w	r3, #1835008	; 0x1c0000
 8000dd6:	d050      	beq.n	8000e7a <ADC_ConfigureBoostMode+0x12e>
 8000dd8:	d916      	bls.n	8000e08 <ADC_ConfigureBoostMode+0xbc>
 8000dda:	f5b3 1f00 	cmp.w	r3, #2097152	; 0x200000
 8000dde:	d1d6      	bne.n	8000d8e <ADC_ConfigureBoostMode+0x42>
 8000de0:	0945      	lsrs	r5, r0, #5
 8000de2:	e7d4      	b.n	8000d8e <ADC_ConfigureBoostMode+0x42>
 8000de4:	f5b3 1f20 	cmp.w	r3, #2621440	; 0x280000
 8000de8:	d045      	beq.n	8000e76 <ADC_ConfigureBoostMode+0x12a>
 8000dea:	f5b3 1f30 	cmp.w	r3, #2883584	; 0x2c0000
 8000dee:	d1ce      	bne.n	8000d8e <ADC_ConfigureBoostMode+0x42>
 8000df0:	f7ff fc34 	bl	800065c <HAL_GetREVID>
 8000df4:	f241 0303 	movw	r3, #4099	; 0x1003
 8000df8:	4298      	cmp	r0, r3
 8000dfa:	d840      	bhi.n	8000e7e <ADC_ConfigureBoostMode+0x132>
 8000dfc:	6822      	ldr	r2, [r4, #0]
 8000dfe:	6893      	ldr	r3, [r2, #8]
 8000e00:	f423 7380 	bic.w	r3, r3, #256	; 0x100
 8000e04:	6093      	str	r3, [r2, #8]
 8000e06:	bd38      	pop	{r3, r4, r5, pc}
 8000e08:	f5b3 1f80 	cmp.w	r3, #1048576	; 0x100000
 8000e0c:	d006      	beq.n	8000e1c <ADC_ConfigureBoostMode+0xd0>
 8000e0e:	d90a      	bls.n	8000e26 <ADC_ConfigureBoostMode+0xda>
 8000e10:	f5b3 1fa0 	cmp.w	r3, #1310720	; 0x140000
 8000e14:	d002      	beq.n	8000e1c <ADC_ConfigureBoostMode+0xd0>
 8000e16:	f5b3 1fc0 	cmp.w	r3, #1572864	; 0x180000
 8000e1a:	d1b8      	bne.n	8000d8e <ADC_ConfigureBoostMode+0x42>
 8000e1c:	0c9b      	lsrs	r3, r3, #18
 8000e1e:	005b      	lsls	r3, r3, #1
 8000e20:	fbb5 f5f3 	udiv	r5, r5, r3
 8000e24:	e7b3      	b.n	8000d8e <ADC_ConfigureBoostMode+0x42>
 8000e26:	f5b3 2f00 	cmp.w	r3, #524288	; 0x80000
 8000e2a:	d0f7      	beq.n	8000e1c <ADC_ConfigureBoostMode+0xd0>
 8000e2c:	f423 2200 	bic.w	r2, r3, #524288	; 0x80000
 8000e30:	f5b2 2f80 	cmp.w	r2, #262144	; 0x40000
 8000e34:	d0f2      	beq.n	8000e1c <ADC_ConfigureBoostMode+0xd0>
 8000e36:	e7aa      	b.n	8000d8e <ADC_ConfigureBoostMode+0x42>
 8000e38:	4b23      	ldr	r3, [pc, #140]	; (8000ec8 <ADC_ConfigureBoostMode+0x17c>)
 8000e3a:	429d      	cmp	r5, r3
 8000e3c:	d805      	bhi.n	8000e4a <ADC_ConfigureBoostMode+0xfe>
 8000e3e:	6822      	ldr	r2, [r4, #0]
 8000e40:	6893      	ldr	r3, [r2, #8]
 8000e42:	f423 7340 	bic.w	r3, r3, #768	; 0x300
 8000e46:	6093      	str	r3, [r2, #8]
 8000e48:	bd38      	pop	{r3, r4, r5, pc}
 8000e4a:	4b20      	ldr	r3, [pc, #128]	; (8000ecc <ADC_ConfigureBoostMode+0x180>)
 8000e4c:	429d      	cmp	r5, r3
 8000e4e:	d91a      	bls.n	8000e86 <ADC_ConfigureBoostMode+0x13a>
 8000e50:	4b1f      	ldr	r3, [pc, #124]	; (8000ed0 <ADC_ConfigureBoostMode+0x184>)
 8000e52:	6822      	ldr	r2, [r4, #0]
 8000e54:	429d      	cmp	r5, r3
 8000e56:	6893      	ldr	r3, [r2, #8]
 8000e58:	d829      	bhi.n	8000eae <ADC_ConfigureBoostMode+0x162>
 8000e5a:	f423 7340 	bic.w	r3, r3, #768	; 0x300
 8000e5e:	f443 7300 	orr.w	r3, r3, #512	; 0x200
 8000e62:	6093      	str	r3, [r2, #8]
 8000e64:	bd38      	pop	{r3, r4, r5, pc}
 8000e66:	0885      	lsrs	r5, r0, #2
 8000e68:	f7ff fbf8 	bl	800065c <HAL_GetREVID>
 8000e6c:	f241 0303 	movw	r3, #4099	; 0x1003
 8000e70:	4298      	cmp	r0, r3
 8000e72:	d8e1      	bhi.n	8000e38 <ADC_ConfigureBoostMode+0xec>
 8000e74:	e791      	b.n	8000d9a <ADC_ConfigureBoostMode+0x4e>
 8000e76:	09c5      	lsrs	r5, r0, #7
 8000e78:	e789      	b.n	8000d8e <ADC_ConfigureBoostMode+0x42>
 8000e7a:	0905      	lsrs	r5, r0, #4
 8000e7c:	e787      	b.n	8000d8e <ADC_ConfigureBoostMode+0x42>
 8000e7e:	4b12      	ldr	r3, [pc, #72]	; (8000ec8 <ADC_ConfigureBoostMode+0x17c>)
 8000e80:	ebb3 2f15 	cmp.w	r3, r5, lsr #8
 8000e84:	d2db      	bcs.n	8000e3e <ADC_ConfigureBoostMode+0xf2>
 8000e86:	6822      	ldr	r2, [r4, #0]
 8000e88:	6893      	ldr	r3, [r2, #8]
 8000e8a:	f423 7340 	bic.w	r3, r3, #768	; 0x300
 8000e8e:	f443 7380 	orr.w	r3, r3, #256	; 0x100
 8000e92:	6093      	str	r3, [r2, #8]
 8000e94:	bd38      	pop	{r3, r4, r5, pc}
 8000e96:	0c1b      	lsrs	r3, r3, #16
 8000e98:	fbb5 f5f3 	udiv	r5, r5, r3
 8000e9c:	f7ff fbde 	bl	800065c <HAL_GetREVID>
 8000ea0:	f241 0303 	movw	r3, #4099	; 0x1003
 8000ea4:	4298      	cmp	r0, r3
 8000ea6:	d8c7      	bhi.n	8000e38 <ADC_ConfigureBoostMode+0xec>
 8000ea8:	e777      	b.n	8000d9a <ADC_ConfigureBoostMode+0x4e>
 8000eaa:	0985      	lsrs	r5, r0, #6
 8000eac:	e76f      	b.n	8000d8e <ADC_ConfigureBoostMode+0x42>
 8000eae:	f443 7340 	orr.w	r3, r3, #768	; 0x300
 8000eb2:	6093      	str	r3, [r2, #8]
 8000eb4:	bd38      	pop	{r3, r4, r5, pc}
 8000eb6:	bf00      	nop
 8000eb8:	40022000 	.word	0x40022000
 8000ebc:	58026300 	.word	0x58026300
 8000ec0:	01312d00 	.word	0x01312d00
 8000ec4:	40022300 	.word	0x40022300
 8000ec8:	00bebc21 	.word	0x00bebc21
 8000ecc:	017d7841 	.word	0x017d7841
 8000ed0:	02faf081 	.word	0x02faf081

08000ed4 <HAL_ADC_Init>:
 8000ed4:	b570      	push	{r4, r5, r6, lr}
 8000ed6:	2300      	movs	r3, #0
 8000ed8:	b082      	sub	sp, #8
 8000eda:	9301      	str	r3, [sp, #4]
 8000edc:	2800      	cmp	r0, #0
 8000ede:	f000 80d0 	beq.w	8001082 <HAL_ADC_Init+0x1ae>
 8000ee2:	6d45      	ldr	r5, [r0, #84]	; 0x54
 8000ee4:	4604      	mov	r4, r0
 8000ee6:	2d00      	cmp	r5, #0
 8000ee8:	f000 80ba 	beq.w	8001060 <HAL_ADC_Init+0x18c>
 8000eec:	6822      	ldr	r2, [r4, #0]
 8000eee:	6893      	ldr	r3, [r2, #8]
 8000ef0:	009d      	lsls	r5, r3, #2
 8000ef2:	d503      	bpl.n	8000efc <HAL_ADC_Init+0x28>
 8000ef4:	6891      	ldr	r1, [r2, #8]
 8000ef6:	4b71      	ldr	r3, [pc, #452]	; (80010bc <HAL_ADC_Init+0x1e8>)
 8000ef8:	400b      	ands	r3, r1
 8000efa:	6093      	str	r3, [r2, #8]
 8000efc:	6893      	ldr	r3, [r2, #8]
 8000efe:	00d8      	lsls	r0, r3, #3
 8000f00:	d416      	bmi.n	8000f30 <HAL_ADC_Init+0x5c>
 8000f02:	4b6f      	ldr	r3, [pc, #444]	; (80010c0 <HAL_ADC_Init+0x1ec>)
 8000f04:	4d6f      	ldr	r5, [pc, #444]	; (80010c4 <HAL_ADC_Init+0x1f0>)
 8000f06:	681b      	ldr	r3, [r3, #0]
 8000f08:	6890      	ldr	r0, [r2, #8]
 8000f0a:	099b      	lsrs	r3, r3, #6
 8000f0c:	496e      	ldr	r1, [pc, #440]	; (80010c8 <HAL_ADC_Init+0x1f4>)
 8000f0e:	fba5 5303 	umull	r5, r3, r5, r3
 8000f12:	4001      	ands	r1, r0
 8000f14:	099b      	lsrs	r3, r3, #6
 8000f16:	f041 5180 	orr.w	r1, r1, #268435456	; 0x10000000
 8000f1a:	3301      	adds	r3, #1
 8000f1c:	6091      	str	r1, [r2, #8]
 8000f1e:	9301      	str	r3, [sp, #4]
 8000f20:	9b01      	ldr	r3, [sp, #4]
 8000f22:	b12b      	cbz	r3, 8000f30 <HAL_ADC_Init+0x5c>
 8000f24:	9b01      	ldr	r3, [sp, #4]
 8000f26:	3b01      	subs	r3, #1
 8000f28:	9301      	str	r3, [sp, #4]
 8000f2a:	9b01      	ldr	r3, [sp, #4]
 8000f2c:	2b00      	cmp	r3, #0
 8000f2e:	d1f9      	bne.n	8000f24 <HAL_ADC_Init+0x50>
 8000f30:	6893      	ldr	r3, [r2, #8]
 8000f32:	00d9      	lsls	r1, r3, #3
 8000f34:	d424      	bmi.n	8000f80 <HAL_ADC_Init+0xac>
 8000f36:	6d63      	ldr	r3, [r4, #84]	; 0x54
 8000f38:	2501      	movs	r5, #1
 8000f3a:	f043 0310 	orr.w	r3, r3, #16
 8000f3e:	6563      	str	r3, [r4, #84]	; 0x54
 8000f40:	6da3      	ldr	r3, [r4, #88]	; 0x58
 8000f42:	432b      	orrs	r3, r5
 8000f44:	65a3      	str	r3, [r4, #88]	; 0x58
 8000f46:	6893      	ldr	r3, [r2, #8]
 8000f48:	f013 0f04 	tst.w	r3, #4
 8000f4c:	6d63      	ldr	r3, [r4, #84]	; 0x54
 8000f4e:	d11d      	bne.n	8000f8c <HAL_ADC_Init+0xb8>
 8000f50:	06db      	lsls	r3, r3, #27
 8000f52:	d41b      	bmi.n	8000f8c <HAL_ADC_Init+0xb8>
 8000f54:	6d63      	ldr	r3, [r4, #84]	; 0x54
 8000f56:	f423 7381 	bic.w	r3, r3, #258	; 0x102
 8000f5a:	f043 0302 	orr.w	r3, r3, #2
 8000f5e:	6563      	str	r3, [r4, #84]	; 0x54
 8000f60:	6893      	ldr	r3, [r2, #8]
 8000f62:	07de      	lsls	r6, r3, #31
 8000f64:	d428      	bmi.n	8000fb8 <HAL_ADC_Init+0xe4>
 8000f66:	4b59      	ldr	r3, [pc, #356]	; (80010cc <HAL_ADC_Init+0x1f8>)
 8000f68:	429a      	cmp	r2, r3
 8000f6a:	d017      	beq.n	8000f9c <HAL_ADC_Init+0xc8>
 8000f6c:	f503 7380 	add.w	r3, r3, #256	; 0x100
 8000f70:	429a      	cmp	r2, r3
 8000f72:	d013      	beq.n	8000f9c <HAL_ADC_Init+0xc8>
 8000f74:	4b56      	ldr	r3, [pc, #344]	; (80010d0 <HAL_ADC_Init+0x1fc>)
 8000f76:	689b      	ldr	r3, [r3, #8]
 8000f78:	07d9      	lsls	r1, r3, #31
 8000f7a:	d41d      	bmi.n	8000fb8 <HAL_ADC_Init+0xe4>
 8000f7c:	4a55      	ldr	r2, [pc, #340]	; (80010d4 <HAL_ADC_Init+0x200>)
 8000f7e:	e015      	b.n	8000fac <HAL_ADC_Init+0xd8>
 8000f80:	6893      	ldr	r3, [r2, #8]
 8000f82:	2500      	movs	r5, #0
 8000f84:	f013 0f04 	tst.w	r3, #4
 8000f88:	6d63      	ldr	r3, [r4, #84]	; 0x54
 8000f8a:	d0e1      	beq.n	8000f50 <HAL_ADC_Init+0x7c>
 8000f8c:	6d63      	ldr	r3, [r4, #84]	; 0x54
 8000f8e:	2501      	movs	r5, #1
 8000f90:	f043 0310 	orr.w	r3, r3, #16
 8000f94:	4628      	mov	r0, r5
 8000f96:	6563      	str	r3, [r4, #84]	; 0x54
 8000f98:	b002      	add	sp, #8
 8000f9a:	bd70      	pop	{r4, r5, r6, pc}
 8000f9c:	4a4b      	ldr	r2, [pc, #300]	; (80010cc <HAL_ADC_Init+0x1f8>)
 8000f9e:	4b4e      	ldr	r3, [pc, #312]	; (80010d8 <HAL_ADC_Init+0x204>)
 8000fa0:	6892      	ldr	r2, [r2, #8]
 8000fa2:	689b      	ldr	r3, [r3, #8]
 8000fa4:	4313      	orrs	r3, r2
 8000fa6:	07d8      	lsls	r0, r3, #31
 8000fa8:	d406      	bmi.n	8000fb8 <HAL_ADC_Init+0xe4>
 8000faa:	4a4c      	ldr	r2, [pc, #304]	; (80010dc <HAL_ADC_Init+0x208>)
 8000fac:	6893      	ldr	r3, [r2, #8]
 8000fae:	6861      	ldr	r1, [r4, #4]
 8000fb0:	f423 137c 	bic.w	r3, r3, #4128768	; 0x3f0000
 8000fb4:	430b      	orrs	r3, r1
 8000fb6:	6093      	str	r3, [r2, #8]
 8000fb8:	f7ff fb50 	bl	800065c <HAL_GetREVID>
 8000fbc:	f241 0303 	movw	r3, #4099	; 0x1003
 8000fc0:	68a1      	ldr	r1, [r4, #8]
 8000fc2:	4298      	cmp	r0, r3
 8000fc4:	7f23      	ldrb	r3, [r4, #28]
 8000fc6:	d851      	bhi.n	800106c <HAL_ADC_Init+0x198>
 8000fc8:	7d66      	ldrb	r6, [r4, #21]
 8000fca:	041a      	lsls	r2, r3, #16
 8000fcc:	6b20      	ldr	r0, [r4, #48]	; 0x30
 8000fce:	ea42 3246 	orr.w	r2, r2, r6, lsl #13
 8000fd2:	4302      	orrs	r2, r0
 8000fd4:	430a      	orrs	r2, r1
 8000fd6:	2b01      	cmp	r3, #1
 8000fd8:	d103      	bne.n	8000fe2 <HAL_ADC_Init+0x10e>
 8000fda:	6a23      	ldr	r3, [r4, #32]
 8000fdc:	3b01      	subs	r3, #1
 8000fde:	ea42 4243 	orr.w	r2, r2, r3, lsl #17
 8000fe2:	6a63      	ldr	r3, [r4, #36]	; 0x24
 8000fe4:	b123      	cbz	r3, 8000ff0 <HAL_ADC_Init+0x11c>
 8000fe6:	f403 7378 	and.w	r3, r3, #992	; 0x3e0
 8000fea:	6aa1      	ldr	r1, [r4, #40]	; 0x28
 8000fec:	430b      	orrs	r3, r1
 8000fee:	431a      	orrs	r2, r3
 8000ff0:	6823      	ldr	r3, [r4, #0]
 8000ff2:	493b      	ldr	r1, [pc, #236]	; (80010e0 <HAL_ADC_Init+0x20c>)
 8000ff4:	68d8      	ldr	r0, [r3, #12]
 8000ff6:	4001      	ands	r1, r0
 8000ff8:	430a      	orrs	r2, r1
 8000ffa:	60da      	str	r2, [r3, #12]
 8000ffc:	689a      	ldr	r2, [r3, #8]
 8000ffe:	f012 0f04 	tst.w	r2, #4
 8001002:	689a      	ldr	r2, [r3, #8]
 8001004:	d11c      	bne.n	8001040 <HAL_ADC_Init+0x16c>
 8001006:	0712      	lsls	r2, r2, #28
 8001008:	d41a      	bmi.n	8001040 <HAL_ADC_Init+0x16c>
 800100a:	68d9      	ldr	r1, [r3, #12]
 800100c:	4a35      	ldr	r2, [pc, #212]	; (80010e4 <HAL_ADC_Init+0x210>)
 800100e:	7d20      	ldrb	r0, [r4, #20]
 8001010:	400a      	ands	r2, r1
 8001012:	6ae1      	ldr	r1, [r4, #44]	; 0x2c
 8001014:	ea42 3280 	orr.w	r2, r2, r0, lsl #14
 8001018:	430a      	orrs	r2, r1
 800101a:	60da      	str	r2, [r3, #12]
 800101c:	f894 2038 	ldrb.w	r2, [r4, #56]	; 0x38
 8001020:	2a01      	cmp	r2, #1
 8001022:	d03a      	beq.n	800109a <HAL_ADC_Init+0x1c6>
 8001024:	691a      	ldr	r2, [r3, #16]
 8001026:	f022 0201 	bic.w	r2, r2, #1
 800102a:	611a      	str	r2, [r3, #16]
 800102c:	691a      	ldr	r2, [r3, #16]
 800102e:	4620      	mov	r0, r4
 8001030:	6b61      	ldr	r1, [r4, #52]	; 0x34
 8001032:	f022 4270 	bic.w	r2, r2, #4026531840	; 0xf0000000
 8001036:	430a      	orrs	r2, r1
 8001038:	611a      	str	r2, [r3, #16]
 800103a:	f7ff fe87 	bl	8000d4c <ADC_ConfigureBoostMode>
 800103e:	6823      	ldr	r3, [r4, #0]
 8001040:	68e2      	ldr	r2, [r4, #12]
 8001042:	2a01      	cmp	r2, #1
 8001044:	d021      	beq.n	800108a <HAL_ADC_Init+0x1b6>
 8001046:	6b1a      	ldr	r2, [r3, #48]	; 0x30
 8001048:	f022 020f 	bic.w	r2, r2, #15
 800104c:	631a      	str	r2, [r3, #48]	; 0x30
 800104e:	6d63      	ldr	r3, [r4, #84]	; 0x54
 8001050:	4628      	mov	r0, r5
 8001052:	f023 0303 	bic.w	r3, r3, #3
 8001056:	f043 0301 	orr.w	r3, r3, #1
 800105a:	6563      	str	r3, [r4, #84]	; 0x54
 800105c:	b002      	add	sp, #8
 800105e:	bd70      	pop	{r4, r5, r6, pc}
 8001060:	f009 fc14 	bl	800a88c <HAL_ADC_MspInit>
 8001064:	65a5      	str	r5, [r4, #88]	; 0x58
 8001066:	f884 5050 	strb.w	r5, [r4, #80]	; 0x50
 800106a:	e73f      	b.n	8000eec <HAL_ADC_Init+0x18>
 800106c:	2910      	cmp	r1, #16
 800106e:	d1ab      	bne.n	8000fc8 <HAL_ADC_Init+0xf4>
 8001070:	7d60      	ldrb	r0, [r4, #21]
 8001072:	041a      	lsls	r2, r3, #16
 8001074:	6b21      	ldr	r1, [r4, #48]	; 0x30
 8001076:	ea42 3240 	orr.w	r2, r2, r0, lsl #13
 800107a:	430a      	orrs	r2, r1
 800107c:	f042 021c 	orr.w	r2, r2, #28
 8001080:	e7a9      	b.n	8000fd6 <HAL_ADC_Init+0x102>
 8001082:	2501      	movs	r5, #1
 8001084:	4628      	mov	r0, r5
 8001086:	b002      	add	sp, #8
 8001088:	bd70      	pop	{r4, r5, r6, pc}
 800108a:	6b19      	ldr	r1, [r3, #48]	; 0x30
 800108c:	69a2      	ldr	r2, [r4, #24]
 800108e:	f021 010f 	bic.w	r1, r1, #15
 8001092:	3a01      	subs	r2, #1
 8001094:	430a      	orrs	r2, r1
 8001096:	631a      	str	r2, [r3, #48]	; 0x30
 8001098:	e7d9      	b.n	800104e <HAL_ADC_Init+0x17a>
 800109a:	e9d4 120f 	ldrd	r1, r2, [r4, #60]	; 0x3c
 800109e:	6c66      	ldr	r6, [r4, #68]	; 0x44
 80010a0:	3901      	subs	r1, #1
 80010a2:	6ca0      	ldr	r0, [r4, #72]	; 0x48
 80010a4:	4332      	orrs	r2, r6
 80010a6:	691e      	ldr	r6, [r3, #16]
 80010a8:	ea42 4201 	orr.w	r2, r2, r1, lsl #16
 80010ac:	490e      	ldr	r1, [pc, #56]	; (80010e8 <HAL_ADC_Init+0x214>)
 80010ae:	4302      	orrs	r2, r0
 80010b0:	4031      	ands	r1, r6
 80010b2:	430a      	orrs	r2, r1
 80010b4:	f042 0201 	orr.w	r2, r2, #1
 80010b8:	611a      	str	r2, [r3, #16]
 80010ba:	e7b7      	b.n	800102c <HAL_ADC_Init+0x158>
 80010bc:	5fffffc0 	.word	0x5fffffc0
 80010c0:	2400000c 	.word	0x2400000c
 80010c4:	053e2d63 	.word	0x053e2d63
 80010c8:	6fffffc0 	.word	0x6fffffc0
 80010cc:	40022000 	.word	0x40022000
 80010d0:	58026000 	.word	0x58026000
 80010d4:	58026300 	.word	0x58026300
 80010d8:	40022100 	.word	0x40022100
 80010dc:	40022300 	.word	0x40022300
 80010e0:	fff0c003 	.word	0xfff0c003
 80010e4:	ffffbffc 	.word	0xffffbffc
 80010e8:	fc00f81e 	.word	0xfc00f81e

080010ec <HAL_ADCEx_InjectedConvCpltCallback>:
 80010ec:	4770      	bx	lr
 80010ee:	bf00      	nop

080010f0 <HAL_ADCEx_InjectedQueueOverflowCallback>:
 80010f0:	4770      	bx	lr
 80010f2:	bf00      	nop

080010f4 <HAL_ADCEx_LevelOutOfWindow2Callback>:
 80010f4:	4770      	bx	lr
 80010f6:	bf00      	nop

080010f8 <HAL_ADCEx_LevelOutOfWindow3Callback>:
 80010f8:	4770      	bx	lr
 80010fa:	bf00      	nop

080010fc <HAL_ADCEx_EndOfSamplingCallback>:
 80010fc:	4770      	bx	lr
 80010fe:	bf00      	nop

08001100 <HAL_ADCEx_MultiModeConfigChannel>:
 8001100:	b4f0      	push	{r4, r5, r6, r7}
 8001102:	f890 2050 	ldrb.w	r2, [r0, #80]	; 0x50
 8001106:	b09a      	sub	sp, #104	; 0x68
 8001108:	680e      	ldr	r6, [r1, #0]
 800110a:	2a01      	cmp	r2, #1
 800110c:	d04d      	beq.n	80011aa <HAL_ADCEx_MultiModeConfigChannel+0xaa>
 800110e:	4603      	mov	r3, r0
 8001110:	4c2b      	ldr	r4, [pc, #172]	; (80011c0 <HAL_ADCEx_MultiModeConfigChannel+0xc0>)
 8001112:	2200      	movs	r2, #0
 8001114:	2001      	movs	r0, #1
 8001116:	681d      	ldr	r5, [r3, #0]
 8001118:	9216      	str	r2, [sp, #88]	; 0x58
 800111a:	42a5      	cmp	r5, r4
 800111c:	f883 0050 	strb.w	r0, [r3, #80]	; 0x50
 8001120:	9217      	str	r2, [sp, #92]	; 0x5c
 8001122:	d008      	beq.n	8001136 <HAL_ADCEx_MultiModeConfigChannel+0x36>
 8001124:	6d59      	ldr	r1, [r3, #84]	; 0x54
 8001126:	f883 2050 	strb.w	r2, [r3, #80]	; 0x50
 800112a:	f041 0120 	orr.w	r1, r1, #32
 800112e:	6559      	str	r1, [r3, #84]	; 0x54
 8001130:	b01a      	add	sp, #104	; 0x68
 8001132:	bcf0      	pop	{r4, r5, r6, r7}
 8001134:	4770      	bx	lr
 8001136:	4c23      	ldr	r4, [pc, #140]	; (80011c4 <HAL_ADCEx_MultiModeConfigChannel+0xc4>)
 8001138:	68a2      	ldr	r2, [r4, #8]
 800113a:	0752      	lsls	r2, r2, #29
 800113c:	d50b      	bpl.n	8001156 <HAL_ADCEx_MultiModeConfigChannel+0x56>
 800113e:	68aa      	ldr	r2, [r5, #8]
 8001140:	6d5a      	ldr	r2, [r3, #84]	; 0x54
 8001142:	2001      	movs	r0, #1
 8001144:	f042 0220 	orr.w	r2, r2, #32
 8001148:	655a      	str	r2, [r3, #84]	; 0x54
 800114a:	2200      	movs	r2, #0
 800114c:	f883 2050 	strb.w	r2, [r3, #80]	; 0x50
 8001150:	b01a      	add	sp, #104	; 0x68
 8001152:	bcf0      	pop	{r4, r5, r6, r7}
 8001154:	4770      	bx	lr
 8001156:	68a8      	ldr	r0, [r5, #8]
 8001158:	f010 0004 	ands.w	r0, r0, #4
 800115c:	d1f0      	bne.n	8001140 <HAL_ADCEx_MultiModeConfigChannel+0x40>
 800115e:	b1c6      	cbz	r6, 8001192 <HAL_ADCEx_MultiModeConfigChannel+0x92>
 8001160:	f8df c068 	ldr.w	ip, [pc, #104]	; 80011cc <HAL_ADCEx_MultiModeConfigChannel+0xcc>
 8001164:	684f      	ldr	r7, [r1, #4]
 8001166:	f8dc 2008 	ldr.w	r2, [ip, #8]
 800116a:	f422 4240 	bic.w	r2, r2, #49152	; 0xc000
 800116e:	433a      	orrs	r2, r7
 8001170:	f8cc 2008 	str.w	r2, [ip, #8]
 8001174:	68ad      	ldr	r5, [r5, #8]
 8001176:	68a2      	ldr	r2, [r4, #8]
 8001178:	432a      	orrs	r2, r5
 800117a:	07d4      	lsls	r4, r2, #31
 800117c:	d413      	bmi.n	80011a6 <HAL_ADCEx_MultiModeConfigChannel+0xa6>
 800117e:	688a      	ldr	r2, [r1, #8]
 8001180:	f8dc 4008 	ldr.w	r4, [ip, #8]
 8001184:	4910      	ldr	r1, [pc, #64]	; (80011c8 <HAL_ADCEx_MultiModeConfigChannel+0xc8>)
 8001186:	4316      	orrs	r6, r2
 8001188:	4021      	ands	r1, r4
 800118a:	430e      	orrs	r6, r1
 800118c:	f8cc 6008 	str.w	r6, [ip, #8]
 8001190:	e7db      	b.n	800114a <HAL_ADCEx_MultiModeConfigChannel+0x4a>
 8001192:	490e      	ldr	r1, [pc, #56]	; (80011cc <HAL_ADCEx_MultiModeConfigChannel+0xcc>)
 8001194:	688a      	ldr	r2, [r1, #8]
 8001196:	f422 4240 	bic.w	r2, r2, #49152	; 0xc000
 800119a:	608a      	str	r2, [r1, #8]
 800119c:	68a8      	ldr	r0, [r5, #8]
 800119e:	68a2      	ldr	r2, [r4, #8]
 80011a0:	4302      	orrs	r2, r0
 80011a2:	07d0      	lsls	r0, r2, #31
 80011a4:	d505      	bpl.n	80011b2 <HAL_ADCEx_MultiModeConfigChannel+0xb2>
 80011a6:	2000      	movs	r0, #0
 80011a8:	e7cf      	b.n	800114a <HAL_ADCEx_MultiModeConfigChannel+0x4a>
 80011aa:	2002      	movs	r0, #2
 80011ac:	b01a      	add	sp, #104	; 0x68
 80011ae:	bcf0      	pop	{r4, r5, r6, r7}
 80011b0:	4770      	bx	lr
 80011b2:	688c      	ldr	r4, [r1, #8]
 80011b4:	4630      	mov	r0, r6
 80011b6:	4a04      	ldr	r2, [pc, #16]	; (80011c8 <HAL_ADCEx_MultiModeConfigChannel+0xc8>)
 80011b8:	4022      	ands	r2, r4
 80011ba:	608a      	str	r2, [r1, #8]
 80011bc:	e7c5      	b.n	800114a <HAL_ADCEx_MultiModeConfigChannel+0x4a>
 80011be:	bf00      	nop
 80011c0:	40022000 	.word	0x40022000
 80011c4:	40022100 	.word	0x40022100
 80011c8:	fffff0e0 	.word	0xfffff0e0
 80011cc:	40022300 	.word	0x40022300

080011d0 <HAL_NVIC_SetPriorityGrouping>:
 80011d0:	4907      	ldr	r1, [pc, #28]	; (80011f0 <HAL_NVIC_SetPriorityGrouping+0x20>)
 80011d2:	0200      	lsls	r0, r0, #8
 80011d4:	4b07      	ldr	r3, [pc, #28]	; (80011f4 <HAL_NVIC_SetPriorityGrouping+0x24>)
 80011d6:	68ca      	ldr	r2, [r1, #12]
 80011d8:	f400 60e0 	and.w	r0, r0, #1792	; 0x700
 80011dc:	b410      	push	{r4}
 80011de:	f64f 04ff 	movw	r4, #63743	; 0xf8ff
 80011e2:	4022      	ands	r2, r4
 80011e4:	f85d 4b04 	ldr.w	r4, [sp], #4
 80011e8:	4310      	orrs	r0, r2
 80011ea:	4303      	orrs	r3, r0
 80011ec:	60cb      	str	r3, [r1, #12]
 80011ee:	4770      	bx	lr
 80011f0:	e000ed00 	.word	0xe000ed00
 80011f4:	05fa0000 	.word	0x05fa0000

080011f8 <HAL_NVIC_SetPriority>:
 80011f8:	4b19      	ldr	r3, [pc, #100]	; (8001260 <HAL_NVIC_SetPriority+0x68>)
 80011fa:	68db      	ldr	r3, [r3, #12]
 80011fc:	f3c3 2302 	ubfx	r3, r3, #8, #3
 8001200:	b430      	push	{r4, r5}
 8001202:	f1c3 0507 	rsb	r5, r3, #7
 8001206:	1d1c      	adds	r4, r3, #4
 8001208:	2d04      	cmp	r5, #4
 800120a:	bf28      	it	cs
 800120c:	2504      	movcs	r5, #4
 800120e:	2c06      	cmp	r4, #6
 8001210:	d919      	bls.n	8001246 <HAL_NVIC_SetPriority+0x4e>
 8001212:	3b03      	subs	r3, #3
 8001214:	f04f 34ff 	mov.w	r4, #4294967295
 8001218:	409c      	lsls	r4, r3
 800121a:	ea22 0204 	bic.w	r2, r2, r4
 800121e:	f04f 34ff 	mov.w	r4, #4294967295
 8001222:	2800      	cmp	r0, #0
 8001224:	fa04 f405 	lsl.w	r4, r4, r5
 8001228:	ea21 0104 	bic.w	r1, r1, r4
 800122c:	fa01 f103 	lsl.w	r1, r1, r3
 8001230:	ea41 0102 	orr.w	r1, r1, r2
 8001234:	db0a      	blt.n	800124c <HAL_NVIC_SetPriority+0x54>
 8001236:	0109      	lsls	r1, r1, #4
 8001238:	4b0a      	ldr	r3, [pc, #40]	; (8001264 <HAL_NVIC_SetPriority+0x6c>)
 800123a:	b2c9      	uxtb	r1, r1
 800123c:	4403      	add	r3, r0
 800123e:	f883 1300 	strb.w	r1, [r3, #768]	; 0x300
 8001242:	bc30      	pop	{r4, r5}
 8001244:	4770      	bx	lr
 8001246:	2200      	movs	r2, #0
 8001248:	4613      	mov	r3, r2
 800124a:	e7e8      	b.n	800121e <HAL_NVIC_SetPriority+0x26>
 800124c:	f000 000f 	and.w	r0, r0, #15
 8001250:	0109      	lsls	r1, r1, #4
 8001252:	4b05      	ldr	r3, [pc, #20]	; (8001268 <HAL_NVIC_SetPriority+0x70>)
 8001254:	b2c9      	uxtb	r1, r1
 8001256:	4403      	add	r3, r0
 8001258:	7619      	strb	r1, [r3, #24]
 800125a:	bc30      	pop	{r4, r5}
 800125c:	4770      	bx	lr
 800125e:	bf00      	nop
 8001260:	e000ed00 	.word	0xe000ed00
 8001264:	e000e100 	.word	0xe000e100
 8001268:	e000ecfc 	.word	0xe000ecfc

0800126c <HAL_NVIC_EnableIRQ>:
 800126c:	2800      	cmp	r0, #0
 800126e:	db07      	blt.n	8001280 <HAL_NVIC_EnableIRQ+0x14>
 8001270:	2301      	movs	r3, #1
 8001272:	f000 011f 	and.w	r1, r0, #31
 8001276:	4a03      	ldr	r2, [pc, #12]	; (8001284 <HAL_NVIC_EnableIRQ+0x18>)
 8001278:	0940      	lsrs	r0, r0, #5
 800127a:	408b      	lsls	r3, r1
 800127c:	f842 3020 	str.w	r3, [r2, r0, lsl #2]
 8001280:	4770      	bx	lr
 8001282:	bf00      	nop
 8001284:	e000e100 	.word	0xe000e100

08001288 <CRC_Handle_8>:
 8001288:	e92d 41f0 	stmdb	sp!, {r4, r5, r6, r7, r8, lr}
 800128c:	ea5f 0e92 	movs.w	lr, r2, lsr #2
 8001290:	6807      	ldr	r7, [r0, #0]
 8001292:	d014      	beq.n	80012be <CRC_Handle_8+0x36>
 8001294:	460c      	mov	r4, r1
 8001296:	eb01 0c8e 	add.w	ip, r1, lr, lsl #2
 800129a:	7863      	ldrb	r3, [r4, #1]
 800129c:	3404      	adds	r4, #4
 800129e:	f814 8c04 	ldrb.w	r8, [r4, #-4]
 80012a2:	041b      	lsls	r3, r3, #16
 80012a4:	f814 6c01 	ldrb.w	r6, [r4, #-1]
 80012a8:	f814 5c02 	ldrb.w	r5, [r4, #-2]
 80012ac:	45a4      	cmp	ip, r4
 80012ae:	ea43 6308 	orr.w	r3, r3, r8, lsl #24
 80012b2:	ea43 0306 	orr.w	r3, r3, r6
 80012b6:	ea43 2305 	orr.w	r3, r3, r5, lsl #8
 80012ba:	603b      	str	r3, [r7, #0]
 80012bc:	d1ed      	bne.n	800129a <CRC_Handle_8+0x12>
 80012be:	f012 0203 	ands.w	r2, r2, #3
 80012c2:	d00b      	beq.n	80012dc <CRC_Handle_8+0x54>
 80012c4:	2a01      	cmp	r2, #1
 80012c6:	d00c      	beq.n	80012e2 <CRC_Handle_8+0x5a>
 80012c8:	2a02      	cmp	r2, #2
 80012ca:	d111      	bne.n	80012f0 <CRC_Handle_8+0x68>
 80012cc:	eb01 038e 	add.w	r3, r1, lr, lsl #2
 80012d0:	f811 202e 	ldrb.w	r2, [r1, lr, lsl #2]
 80012d4:	785b      	ldrb	r3, [r3, #1]
 80012d6:	ea43 2302 	orr.w	r3, r3, r2, lsl #8
 80012da:	803b      	strh	r3, [r7, #0]
 80012dc:	6838      	ldr	r0, [r7, #0]
 80012de:	e8bd 81f0 	ldmia.w	sp!, {r4, r5, r6, r7, r8, pc}
 80012e2:	f811 302e 	ldrb.w	r3, [r1, lr, lsl #2]
 80012e6:	703b      	strb	r3, [r7, #0]
 80012e8:	6807      	ldr	r7, [r0, #0]
 80012ea:	6838      	ldr	r0, [r7, #0]
 80012ec:	e8bd 81f0 	ldmia.w	sp!, {r4, r5, r6, r7, r8, pc}
 80012f0:	eb01 028e 	add.w	r2, r1, lr, lsl #2
 80012f4:	f811 102e 	ldrb.w	r1, [r1, lr, lsl #2]
 80012f8:	7853      	ldrb	r3, [r2, #1]
 80012fa:	ea43 2301 	orr.w	r3, r3, r1, lsl #8
 80012fe:	803b      	strh	r3, [r7, #0]
 8001300:	7893      	ldrb	r3, [r2, #2]
 8001302:	703b      	strb	r3, [r7, #0]
 8001304:	6807      	ldr	r7, [r0, #0]
 8001306:	6838      	ldr	r0, [r7, #0]
 8001308:	e8bd 81f0 	ldmia.w	sp!, {r4, r5, r6, r7, r8, pc}

0800130c <HAL_CRC_Init>:
 800130c:	2800      	cmp	r0, #0
 800130e:	d036      	beq.n	800137e <HAL_CRC_Init+0x72>
 8001310:	b570      	push	{r4, r5, r6, lr}
 8001312:	7f43      	ldrb	r3, [r0, #29]
 8001314:	4604      	mov	r4, r0
 8001316:	f003 02ff 	and.w	r2, r3, #255	; 0xff
 800131a:	b363      	cbz	r3, 8001376 <HAL_CRC_Init+0x6a>
 800131c:	2202      	movs	r2, #2
 800131e:	7923      	ldrb	r3, [r4, #4]
 8001320:	7762      	strb	r2, [r4, #29]
 8001322:	b9f3      	cbnz	r3, 8001362 <HAL_CRC_Init+0x56>
 8001324:	6823      	ldr	r3, [r4, #0]
 8001326:	4a17      	ldr	r2, [pc, #92]	; (8001384 <HAL_CRC_Init+0x78>)
 8001328:	615a      	str	r2, [r3, #20]
 800132a:	689a      	ldr	r2, [r3, #8]
 800132c:	f022 0218 	bic.w	r2, r2, #24
 8001330:	609a      	str	r2, [r3, #8]
 8001332:	7962      	ldrb	r2, [r4, #5]
 8001334:	b18a      	cbz	r2, 800135a <HAL_CRC_Init+0x4e>
 8001336:	6922      	ldr	r2, [r4, #16]
 8001338:	611a      	str	r2, [r3, #16]
 800133a:	6899      	ldr	r1, [r3, #8]
 800133c:	2501      	movs	r5, #1
 800133e:	6962      	ldr	r2, [r4, #20]
 8001340:	2000      	movs	r0, #0
 8001342:	f021 0160 	bic.w	r1, r1, #96	; 0x60
 8001346:	69a6      	ldr	r6, [r4, #24]
 8001348:	4311      	orrs	r1, r2
 800134a:	6099      	str	r1, [r3, #8]
 800134c:	689a      	ldr	r2, [r3, #8]
 800134e:	f022 0280 	bic.w	r2, r2, #128	; 0x80
 8001352:	4332      	orrs	r2, r6
 8001354:	609a      	str	r2, [r3, #8]
 8001356:	7765      	strb	r5, [r4, #29]
 8001358:	bd70      	pop	{r4, r5, r6, pc}
 800135a:	f04f 32ff 	mov.w	r2, #4294967295
 800135e:	611a      	str	r2, [r3, #16]
 8001360:	e7eb      	b.n	800133a <HAL_CRC_Init+0x2e>
 8001362:	68e2      	ldr	r2, [r4, #12]
 8001364:	4620      	mov	r0, r4
 8001366:	68a1      	ldr	r1, [r4, #8]
 8001368:	f000 f84e 	bl	8001408 <HAL_CRCEx_Polynomial_Set>
 800136c:	b908      	cbnz	r0, 8001372 <HAL_CRC_Init+0x66>
 800136e:	6823      	ldr	r3, [r4, #0]
 8001370:	e7df      	b.n	8001332 <HAL_CRC_Init+0x26>
 8001372:	2001      	movs	r0, #1
 8001374:	bd70      	pop	{r4, r5, r6, pc}
 8001376:	7702      	strb	r2, [r0, #28]
 8001378:	f009 fb66 	bl	800aa48 <HAL_CRC_MspInit>
 800137c:	e7ce      	b.n	800131c <HAL_CRC_Init+0x10>
 800137e:	2001      	movs	r0, #1
 8001380:	4770      	bx	lr
 8001382:	bf00      	nop
 8001384:	04c11db7 	.word	0x04c11db7

08001388 <HAL_CRC_Calculate>:
 8001388:	b5f8      	push	{r3, r4, r5, r6, r7, lr}
 800138a:	2302      	movs	r3, #2
 800138c:	6806      	ldr	r6, [r0, #0]
 800138e:	4607      	mov	r7, r0
 8001390:	460d      	mov	r5, r1
 8001392:	7743      	strb	r3, [r0, #29]
 8001394:	4694      	mov	ip, r2
 8001396:	68b4      	ldr	r4, [r6, #8]
 8001398:	6a03      	ldr	r3, [r0, #32]
 800139a:	f044 0401 	orr.w	r4, r4, #1
 800139e:	2b02      	cmp	r3, #2
 80013a0:	60b4      	str	r4, [r6, #8]
 80013a2:	d007      	beq.n	80013b4 <HAL_CRC_Calculate+0x2c>
 80013a4:	2b03      	cmp	r3, #3
 80013a6:	d022      	beq.n	80013ee <HAL_CRC_Calculate+0x66>
 80013a8:	2b01      	cmp	r3, #1
 80013aa:	d01b      	beq.n	80013e4 <HAL_CRC_Calculate+0x5c>
 80013ac:	2301      	movs	r3, #1
 80013ae:	2000      	movs	r0, #0
 80013b0:	777b      	strb	r3, [r7, #29]
 80013b2:	bdf8      	pop	{r3, r4, r5, r6, r7, pc}
 80013b4:	0851      	lsrs	r1, r2, #1
 80013b6:	d00b      	beq.n	80013d0 <HAL_CRC_Calculate+0x48>
 80013b8:	2300      	movs	r3, #0
 80013ba:	1ca8      	adds	r0, r5, #2
 80013bc:	f835 2023 	ldrh.w	r2, [r5, r3, lsl #2]
 80013c0:	f830 4023 	ldrh.w	r4, [r0, r3, lsl #2]
 80013c4:	3301      	adds	r3, #1
 80013c6:	ea44 4402 	orr.w	r4, r4, r2, lsl #16
 80013ca:	428b      	cmp	r3, r1
 80013cc:	6034      	str	r4, [r6, #0]
 80013ce:	d1f5      	bne.n	80013bc <HAL_CRC_Calculate+0x34>
 80013d0:	f01c 0f01 	tst.w	ip, #1
 80013d4:	d002      	beq.n	80013dc <HAL_CRC_Calculate+0x54>
 80013d6:	f835 3021 	ldrh.w	r3, [r5, r1, lsl #2]
 80013da:	8033      	strh	r3, [r6, #0]
 80013dc:	6830      	ldr	r0, [r6, #0]
 80013de:	2301      	movs	r3, #1
 80013e0:	777b      	strb	r3, [r7, #29]
 80013e2:	bdf8      	pop	{r3, r4, r5, r6, r7, pc}
 80013e4:	f7ff ff50 	bl	8001288 <CRC_Handle_8>
 80013e8:	2301      	movs	r3, #1
 80013ea:	777b      	strb	r3, [r7, #29]
 80013ec:	bdf8      	pop	{r3, r4, r5, r6, r7, pc}
 80013ee:	2a00      	cmp	r2, #0
 80013f0:	d0f4      	beq.n	80013dc <HAL_CRC_Calculate+0x54>
 80013f2:	3904      	subs	r1, #4
 80013f4:	eb01 0c82 	add.w	ip, r1, r2, lsl #2
 80013f8:	f851 3f04 	ldr.w	r3, [r1, #4]!
 80013fc:	458c      	cmp	ip, r1
 80013fe:	6033      	str	r3, [r6, #0]
 8001400:	d1fa      	bne.n	80013f8 <HAL_CRC_Calculate+0x70>
 8001402:	6830      	ldr	r0, [r6, #0]
 8001404:	e7eb      	b.n	80013de <HAL_CRC_Calculate+0x56>
 8001406:	bf00      	nop

08001408 <HAL_CRCEx_Polynomial_Set>:
 8001408:	231e      	movs	r3, #30
 800140a:	b410      	push	{r4}
 800140c:	e001      	b.n	8001412 <HAL_CRCEx_Polynomial_Set+0xa>
 800140e:	3b01      	subs	r3, #1
 8001410:	d314      	bcc.n	800143c <HAL_CRCEx_Polynomial_Set+0x34>
 8001412:	fa21 f403 	lsr.w	r4, r1, r3
 8001416:	07e4      	lsls	r4, r4, #31
 8001418:	d5f9      	bpl.n	800140e <HAL_CRCEx_Polynomial_Set+0x6>
 800141a:	2a18      	cmp	r2, #24
 800141c:	d80f      	bhi.n	800143e <HAL_CRCEx_Polynomial_Set+0x36>
 800141e:	e8df f002 	tbb	[pc, r2]
 8001422:	0e14      	.short	0x0e14
 8001424:	0e0e0e0e 	.word	0x0e0e0e0e
 8001428:	0e1f0e0e 	.word	0x0e1f0e0e
 800142c:	0e0e0e0e 	.word	0x0e0e0e0e
 8001430:	0e220e0e 	.word	0x0e220e0e
 8001434:	0e0e0e0e 	.word	0x0e0e0e0e
 8001438:	0e0e      	.short	0x0e0e
 800143a:	12          	.byte	0x12
 800143b:	00          	.byte	0x00
 800143c:	b12a      	cbz	r2, 800144a <HAL_CRCEx_Polynomial_Set+0x42>
 800143e:	2001      	movs	r0, #1
 8001440:	f85d 4b04 	ldr.w	r4, [sp], #4
 8001444:	4770      	bx	lr
 8001446:	2b06      	cmp	r3, #6
 8001448:	d8f9      	bhi.n	800143e <HAL_CRCEx_Polynomial_Set+0x36>
 800144a:	6804      	ldr	r4, [r0, #0]
 800144c:	2000      	movs	r0, #0
 800144e:	6161      	str	r1, [r4, #20]
 8001450:	68a3      	ldr	r3, [r4, #8]
 8001452:	f023 0318 	bic.w	r3, r3, #24
 8001456:	431a      	orrs	r2, r3
 8001458:	60a2      	str	r2, [r4, #8]
 800145a:	f85d 4b04 	ldr.w	r4, [sp], #4
 800145e:	4770      	bx	lr
 8001460:	2b0f      	cmp	r3, #15
 8001462:	d9f2      	bls.n	800144a <HAL_CRCEx_Polynomial_Set+0x42>
 8001464:	e7eb      	b.n	800143e <HAL_CRCEx_Polynomial_Set+0x36>
 8001466:	2b07      	cmp	r3, #7
 8001468:	d9ef      	bls.n	800144a <HAL_CRCEx_Polynomial_Set+0x42>
 800146a:	e7e8      	b.n	800143e <HAL_CRCEx_Polynomial_Set+0x36>

0800146c <DMA_CalcBaseAndBitshift>:
 800146c:	6802      	ldr	r2, [r0, #0]
 800146e:	4b35      	ldr	r3, [pc, #212]	; (8001544 <DMA_CalcBaseAndBitshift+0xd8>)
 8001470:	4935      	ldr	r1, [pc, #212]	; (8001548 <DMA_CalcBaseAndBitshift+0xdc>)
 8001472:	b430      	push	{r4, r5}
 8001474:	4c35      	ldr	r4, [pc, #212]	; (800154c <DMA_CalcBaseAndBitshift+0xe0>)
 8001476:	4d36      	ldr	r5, [pc, #216]	; (8001550 <DMA_CalcBaseAndBitshift+0xe4>)
 8001478:	42a2      	cmp	r2, r4
 800147a:	bf18      	it	ne
 800147c:	429a      	cmpne	r2, r3
 800147e:	f104 0448 	add.w	r4, r4, #72	; 0x48
 8001482:	bf0c      	ite	eq
 8001484:	2301      	moveq	r3, #1
 8001486:	2300      	movne	r3, #0
 8001488:	428a      	cmp	r2, r1
 800148a:	bf08      	it	eq
 800148c:	f043 0301 	orreq.w	r3, r3, #1
 8001490:	3148      	adds	r1, #72	; 0x48
 8001492:	42aa      	cmp	r2, r5
 8001494:	bf08      	it	eq
 8001496:	f043 0301 	orreq.w	r3, r3, #1
 800149a:	3548      	adds	r5, #72	; 0x48
 800149c:	42a2      	cmp	r2, r4
 800149e:	bf08      	it	eq
 80014a0:	f043 0301 	orreq.w	r3, r3, #1
 80014a4:	3448      	adds	r4, #72	; 0x48
 80014a6:	428a      	cmp	r2, r1
 80014a8:	bf08      	it	eq
 80014aa:	f043 0301 	orreq.w	r3, r3, #1
 80014ae:	f501 7162 	add.w	r1, r1, #904	; 0x388
 80014b2:	42aa      	cmp	r2, r5
 80014b4:	bf08      	it	eq
 80014b6:	f043 0301 	orreq.w	r3, r3, #1
 80014ba:	f505 7562 	add.w	r5, r5, #904	; 0x388
 80014be:	42a2      	cmp	r2, r4
 80014c0:	bf08      	it	eq
 80014c2:	f043 0301 	orreq.w	r3, r3, #1
 80014c6:	f504 7462 	add.w	r4, r4, #904	; 0x388
 80014ca:	428a      	cmp	r2, r1
 80014cc:	bf08      	it	eq
 80014ce:	f043 0301 	orreq.w	r3, r3, #1
 80014d2:	3148      	adds	r1, #72	; 0x48
 80014d4:	42aa      	cmp	r2, r5
 80014d6:	bf08      	it	eq
 80014d8:	f043 0301 	orreq.w	r3, r3, #1
 80014dc:	3548      	adds	r5, #72	; 0x48
 80014de:	42a2      	cmp	r2, r4
 80014e0:	bf08      	it	eq
 80014e2:	f043 0301 	orreq.w	r3, r3, #1
 80014e6:	3448      	adds	r4, #72	; 0x48
 80014e8:	428a      	cmp	r2, r1
 80014ea:	bf08      	it	eq
 80014ec:	f043 0301 	orreq.w	r3, r3, #1
 80014f0:	3148      	adds	r1, #72	; 0x48
 80014f2:	42aa      	cmp	r2, r5
 80014f4:	bf08      	it	eq
 80014f6:	f043 0301 	orreq.w	r3, r3, #1
 80014fa:	42a2      	cmp	r2, r4
 80014fc:	bf08      	it	eq
 80014fe:	f043 0301 	orreq.w	r3, r3, #1
 8001502:	428a      	cmp	r2, r1
 8001504:	bf08      	it	eq
 8001506:	f043 0301 	orreq.w	r3, r3, #1
 800150a:	b913      	cbnz	r3, 8001512 <DMA_CalcBaseAndBitshift+0xa6>
 800150c:	4b11      	ldr	r3, [pc, #68]	; (8001554 <DMA_CalcBaseAndBitshift+0xe8>)
 800150e:	429a      	cmp	r2, r3
 8001510:	d113      	bne.n	800153a <DMA_CalcBaseAndBitshift+0xce>
 8001512:	b2d3      	uxtb	r3, r2
 8001514:	4910      	ldr	r1, [pc, #64]	; (8001558 <DMA_CalcBaseAndBitshift+0xec>)
 8001516:	4c11      	ldr	r4, [pc, #68]	; (800155c <DMA_CalcBaseAndBitshift+0xf0>)
 8001518:	3b10      	subs	r3, #16
 800151a:	fba1 5103 	umull	r5, r1, r1, r3
 800151e:	2b5f      	cmp	r3, #95	; 0x5f
 8001520:	4b0f      	ldr	r3, [pc, #60]	; (8001560 <DMA_CalcBaseAndBitshift+0xf4>)
 8001522:	f3c1 1102 	ubfx	r1, r1, #4, #3
 8001526:	ea03 0302 	and.w	r3, r3, r2
 800152a:	5c61      	ldrb	r1, [r4, r1]
 800152c:	bf88      	it	hi
 800152e:	3304      	addhi	r3, #4
 8001530:	65c1      	str	r1, [r0, #92]	; 0x5c
 8001532:	6583      	str	r3, [r0, #88]	; 0x58
 8001534:	4618      	mov	r0, r3
 8001536:	bc30      	pop	{r4, r5}
 8001538:	4770      	bx	lr
 800153a:	f022 03ff 	bic.w	r3, r2, #255	; 0xff
 800153e:	6583      	str	r3, [r0, #88]	; 0x58
 8001540:	e7f8      	b.n	8001534 <DMA_CalcBaseAndBitshift+0xc8>
 8001542:	bf00      	nop
 8001544:	40020010 	.word	0x40020010
 8001548:	40020040 	.word	0x40020040
 800154c:	40020028 	.word	0x40020028
 8001550:	40020058 	.word	0x40020058
 8001554:	400204b8 	.word	0x400204b8
 8001558:	aaaaaaab 	.word	0xaaaaaaab
 800155c:	0800b9cc 	.word	0x0800b9cc
 8001560:	fffffc00 	.word	0xfffffc00

08001564 <DMA_CalcDMAMUXChannelBaseAndMask>:
 8001564:	6803      	ldr	r3, [r0, #0]
 8001566:	4a29      	ldr	r2, [pc, #164]	; (800160c <DMA_CalcDMAMUXChannelBaseAndMask+0xa8>)
 8001568:	4929      	ldr	r1, [pc, #164]	; (8001610 <DMA_CalcDMAMUXChannelBaseAndMask+0xac>)
 800156a:	b430      	push	{r4, r5}
 800156c:	4d29      	ldr	r5, [pc, #164]	; (8001614 <DMA_CalcDMAMUXChannelBaseAndMask+0xb0>)
 800156e:	4c2a      	ldr	r4, [pc, #168]	; (8001618 <DMA_CalcDMAMUXChannelBaseAndMask+0xb4>)
 8001570:	42ab      	cmp	r3, r5
 8001572:	bf18      	it	ne
 8001574:	4293      	cmpne	r3, r2
 8001576:	f105 053c 	add.w	r5, r5, #60	; 0x3c
 800157a:	bf0c      	ite	eq
 800157c:	2201      	moveq	r2, #1
 800157e:	2200      	movne	r2, #0
 8001580:	42a3      	cmp	r3, r4
 8001582:	bf08      	it	eq
 8001584:	f042 0201 	orreq.w	r2, r2, #1
 8001588:	343c      	adds	r4, #60	; 0x3c
 800158a:	428b      	cmp	r3, r1
 800158c:	bf08      	it	eq
 800158e:	f042 0201 	orreq.w	r2, r2, #1
 8001592:	313c      	adds	r1, #60	; 0x3c
 8001594:	42ab      	cmp	r3, r5
 8001596:	bf08      	it	eq
 8001598:	f042 0201 	orreq.w	r2, r2, #1
 800159c:	42a3      	cmp	r3, r4
 800159e:	bf08      	it	eq
 80015a0:	f042 0201 	orreq.w	r2, r2, #1
 80015a4:	428b      	cmp	r3, r1
 80015a6:	bf08      	it	eq
 80015a8:	f042 0201 	orreq.w	r2, r2, #1
 80015ac:	b912      	cbnz	r2, 80015b4 <DMA_CalcDMAMUXChannelBaseAndMask+0x50>
 80015ae:	4a1b      	ldr	r2, [pc, #108]	; (800161c <DMA_CalcDMAMUXChannelBaseAndMask+0xb8>)
 80015b0:	4293      	cmp	r3, r2
 80015b2:	d113      	bne.n	80015dc <DMA_CalcDMAMUXChannelBaseAndMask+0x78>
 80015b4:	b2db      	uxtb	r3, r3
 80015b6:	4d1a      	ldr	r5, [pc, #104]	; (8001620 <DMA_CalcDMAMUXChannelBaseAndMask+0xbc>)
 80015b8:	4a1a      	ldr	r2, [pc, #104]	; (8001624 <DMA_CalcDMAMUXChannelBaseAndMask+0xc0>)
 80015ba:	2101      	movs	r1, #1
 80015bc:	3b08      	subs	r3, #8
 80015be:	4c1a      	ldr	r4, [pc, #104]	; (8001628 <DMA_CalcDMAMUXChannelBaseAndMask+0xc4>)
 80015c0:	fba5 5303 	umull	r5, r3, r5, r3
 80015c4:	6644      	str	r4, [r0, #100]	; 0x64
 80015c6:	eb02 1213 	add.w	r2, r2, r3, lsr #4
 80015ca:	f3c3 1304 	ubfx	r3, r3, #4, #5
 80015ce:	0092      	lsls	r2, r2, #2
 80015d0:	fa01 f303 	lsl.w	r3, r1, r3
 80015d4:	6602      	str	r2, [r0, #96]	; 0x60
 80015d6:	6683      	str	r3, [r0, #104]	; 0x68
 80015d8:	bc30      	pop	{r4, r5}
 80015da:	4770      	bx	lr
 80015dc:	b2da      	uxtb	r2, r3
 80015de:	4913      	ldr	r1, [pc, #76]	; (800162c <DMA_CalcDMAMUXChannelBaseAndMask+0xc8>)
 80015e0:	4c13      	ldr	r4, [pc, #76]	; (8001630 <DMA_CalcDMAMUXChannelBaseAndMask+0xcc>)
 80015e2:	4419      	add	r1, r3
 80015e4:	3a10      	subs	r2, #16
 80015e6:	29a8      	cmp	r1, #168	; 0xa8
 80015e8:	fba4 2302 	umull	r2, r3, r4, r2
 80015ec:	ea4f 1313 	mov.w	r3, r3, lsr #4
 80015f0:	d800      	bhi.n	80015f4 <DMA_CalcDMAMUXChannelBaseAndMask+0x90>
 80015f2:	3308      	adds	r3, #8
 80015f4:	4a0f      	ldr	r2, [pc, #60]	; (8001634 <DMA_CalcDMAMUXChannelBaseAndMask+0xd0>)
 80015f6:	f003 051f 	and.w	r5, r3, #31
 80015fa:	2101      	movs	r1, #1
 80015fc:	4c0e      	ldr	r4, [pc, #56]	; (8001638 <DMA_CalcDMAMUXChannelBaseAndMask+0xd4>)
 80015fe:	441a      	add	r2, r3
 8001600:	40a9      	lsls	r1, r5
 8001602:	6644      	str	r4, [r0, #100]	; 0x64
 8001604:	0092      	lsls	r2, r2, #2
 8001606:	6681      	str	r1, [r0, #104]	; 0x68
 8001608:	6602      	str	r2, [r0, #96]	; 0x60
 800160a:	e7e5      	b.n	80015d8 <DMA_CalcDMAMUXChannelBaseAndMask+0x74>
 800160c:	58025408 	.word	0x58025408
 8001610:	58025444 	.word	0x58025444
 8001614:	5802541c 	.word	0x5802541c
 8001618:	58025430 	.word	0x58025430
 800161c:	58025494 	.word	0x58025494
 8001620:	cccccccd 	.word	0xcccccccd
 8001624:	16009600 	.word	0x16009600
 8001628:	58025880 	.word	0x58025880
 800162c:	bffdfbf0 	.word	0xbffdfbf0
 8001630:	aaaaaaab 	.word	0xaaaaaaab
 8001634:	10008200 	.word	0x10008200
 8001638:	40020880 	.word	0x40020880

0800163c <HAL_DMA_Init>:
 800163c:	b5f8      	push	{r3, r4, r5, r6, r7, lr}
 800163e:	4604      	mov	r4, r0
 8001640:	f7ff f806 	bl	8000650 <HAL_GetTick>
 8001644:	2c00      	cmp	r4, #0
 8001646:	f000 818a 	beq.w	800195e <HAL_DMA_Init+0x322>
 800164a:	6823      	ldr	r3, [r4, #0]
 800164c:	4605      	mov	r5, r0
 800164e:	4a95      	ldr	r2, [pc, #596]	; (80018a4 <HAL_DMA_Init+0x268>)
 8001650:	4293      	cmp	r3, r2
 8001652:	d049      	beq.n	80016e8 <HAL_DMA_Init+0xac>
 8001654:	3218      	adds	r2, #24
 8001656:	4293      	cmp	r3, r2
 8001658:	d046      	beq.n	80016e8 <HAL_DMA_Init+0xac>
 800165a:	3230      	adds	r2, #48	; 0x30
 800165c:	4892      	ldr	r0, [pc, #584]	; (80018a8 <HAL_DMA_Init+0x26c>)
 800165e:	4993      	ldr	r1, [pc, #588]	; (80018ac <HAL_DMA_Init+0x270>)
 8001660:	4283      	cmp	r3, r0
 8001662:	bf18      	it	ne
 8001664:	4293      	cmpne	r3, r2
 8001666:	f100 0048 	add.w	r0, r0, #72	; 0x48
 800166a:	bf0c      	ite	eq
 800166c:	2201      	moveq	r2, #1
 800166e:	2200      	movne	r2, #0
 8001670:	428b      	cmp	r3, r1
 8001672:	bf08      	it	eq
 8001674:	f042 0201 	orreq.w	r2, r2, #1
 8001678:	3130      	adds	r1, #48	; 0x30
 800167a:	4283      	cmp	r3, r0
 800167c:	bf08      	it	eq
 800167e:	f042 0201 	orreq.w	r2, r2, #1
 8001682:	3030      	adds	r0, #48	; 0x30
 8001684:	428b      	cmp	r3, r1
 8001686:	bf08      	it	eq
 8001688:	f042 0201 	orreq.w	r2, r2, #1
 800168c:	f501 715c 	add.w	r1, r1, #880	; 0x370
 8001690:	4283      	cmp	r3, r0
 8001692:	bf08      	it	eq
 8001694:	f042 0201 	orreq.w	r2, r2, #1
 8001698:	f500 705c 	add.w	r0, r0, #880	; 0x370
 800169c:	428b      	cmp	r3, r1
 800169e:	bf08      	it	eq
 80016a0:	f042 0201 	orreq.w	r2, r2, #1
 80016a4:	3130      	adds	r1, #48	; 0x30
 80016a6:	4283      	cmp	r3, r0
 80016a8:	bf08      	it	eq
 80016aa:	f042 0201 	orreq.w	r2, r2, #1
 80016ae:	3030      	adds	r0, #48	; 0x30
 80016b0:	428b      	cmp	r3, r1
 80016b2:	bf08      	it	eq
 80016b4:	f042 0201 	orreq.w	r2, r2, #1
 80016b8:	3130      	adds	r1, #48	; 0x30
 80016ba:	4283      	cmp	r3, r0
 80016bc:	bf08      	it	eq
 80016be:	f042 0201 	orreq.w	r2, r2, #1
 80016c2:	3030      	adds	r0, #48	; 0x30
 80016c4:	428b      	cmp	r3, r1
 80016c6:	bf08      	it	eq
 80016c8:	f042 0201 	orreq.w	r2, r2, #1
 80016cc:	3130      	adds	r1, #48	; 0x30
 80016ce:	4283      	cmp	r3, r0
 80016d0:	bf08      	it	eq
 80016d2:	f042 0201 	orreq.w	r2, r2, #1
 80016d6:	428b      	cmp	r3, r1
 80016d8:	bf08      	it	eq
 80016da:	f042 0201 	orreq.w	r2, r2, #1
 80016de:	b91a      	cbnz	r2, 80016e8 <HAL_DMA_Init+0xac>
 80016e0:	4a73      	ldr	r2, [pc, #460]	; (80018b0 <HAL_DMA_Init+0x274>)
 80016e2:	4293      	cmp	r3, r2
 80016e4:	f040 81a1 	bne.w	8001a2a <HAL_DMA_Init+0x3ee>
 80016e8:	2200      	movs	r2, #0
 80016ea:	2102      	movs	r1, #2
 80016ec:	f884 2034 	strb.w	r2, [r4, #52]	; 0x34
 80016f0:	f884 1035 	strb.w	r1, [r4, #53]	; 0x35
 80016f4:	681a      	ldr	r2, [r3, #0]
 80016f6:	f022 0201 	bic.w	r2, r2, #1
 80016fa:	601a      	str	r2, [r3, #0]
 80016fc:	e006      	b.n	800170c <HAL_DMA_Init+0xd0>
 80016fe:	f7fe ffa7 	bl	8000650 <HAL_GetTick>
 8001702:	1b43      	subs	r3, r0, r5
 8001704:	2b05      	cmp	r3, #5
 8001706:	f200 8111 	bhi.w	800192c <HAL_DMA_Init+0x2f0>
 800170a:	6823      	ldr	r3, [r4, #0]
 800170c:	681a      	ldr	r2, [r3, #0]
 800170e:	07d0      	lsls	r0, r2, #31
 8001710:	d4f5      	bmi.n	80016fe <HAL_DMA_Init+0xc2>
 8001712:	e9d4 2002 	ldrd	r2, r0, [r4, #8]
 8001716:	6921      	ldr	r1, [r4, #16]
 8001718:	4302      	orrs	r2, r0
 800171a:	681f      	ldr	r7, [r3, #0]
 800171c:	e9d4 6005 	ldrd	r6, r0, [r4, #20]
 8001720:	430a      	orrs	r2, r1
 8001722:	4332      	orrs	r2, r6
 8001724:	4e63      	ldr	r6, [pc, #396]	; (80018b4 <HAL_DMA_Init+0x278>)
 8001726:	e9d4 5107 	ldrd	r5, r1, [r4, #28]
 800172a:	4302      	orrs	r2, r0
 800172c:	403e      	ands	r6, r7
 800172e:	432a      	orrs	r2, r5
 8001730:	6a65      	ldr	r5, [r4, #36]	; 0x24
 8001732:	430a      	orrs	r2, r1
 8001734:	2d04      	cmp	r5, #4
 8001736:	4960      	ldr	r1, [pc, #384]	; (80018b8 <HAL_DMA_Init+0x27c>)
 8001738:	ea42 0206 	orr.w	r2, r2, r6
 800173c:	4e5f      	ldr	r6, [pc, #380]	; (80018bc <HAL_DMA_Init+0x280>)
 800173e:	f000 8110 	beq.w	8001962 <HAL_DMA_Init+0x326>
 8001742:	6836      	ldr	r6, [r6, #0]
 8001744:	4031      	ands	r1, r6
 8001746:	f1b1 5f00 	cmp.w	r1, #536870912	; 0x20000000
 800174a:	f080 80c3 	bcs.w	80018d4 <HAL_DMA_Init+0x298>
 800174e:	601a      	str	r2, [r3, #0]
 8001750:	6959      	ldr	r1, [r3, #20]
 8001752:	f021 0107 	bic.w	r1, r1, #7
 8001756:	4329      	orrs	r1, r5
 8001758:	6159      	str	r1, [r3, #20]
 800175a:	4620      	mov	r0, r4
 800175c:	f7ff fe86 	bl	800146c <DMA_CalcBaseAndBitshift>
 8001760:	6de2      	ldr	r2, [r4, #92]	; 0x5c
 8001762:	233f      	movs	r3, #63	; 0x3f
 8001764:	f002 021f 	and.w	r2, r2, #31
 8001768:	4093      	lsls	r3, r2
 800176a:	6083      	str	r3, [r0, #8]
 800176c:	6822      	ldr	r2, [r4, #0]
 800176e:	4b4d      	ldr	r3, [pc, #308]	; (80018a4 <HAL_DMA_Init+0x268>)
 8001770:	4953      	ldr	r1, [pc, #332]	; (80018c0 <HAL_DMA_Init+0x284>)
 8001772:	4d4d      	ldr	r5, [pc, #308]	; (80018a8 <HAL_DMA_Init+0x26c>)
 8001774:	428a      	cmp	r2, r1
 8001776:	bf18      	it	ne
 8001778:	429a      	cmpne	r2, r3
 800177a:	4852      	ldr	r0, [pc, #328]	; (80018c4 <HAL_DMA_Init+0x288>)
 800177c:	f101 0148 	add.w	r1, r1, #72	; 0x48
 8001780:	bf0c      	ite	eq
 8001782:	2301      	moveq	r3, #1
 8001784:	2300      	movne	r3, #0
 8001786:	42aa      	cmp	r2, r5
 8001788:	bf08      	it	eq
 800178a:	f043 0301 	orreq.w	r3, r3, #1
 800178e:	3548      	adds	r5, #72	; 0x48
 8001790:	4282      	cmp	r2, r0
 8001792:	bf08      	it	eq
 8001794:	f043 0301 	orreq.w	r3, r3, #1
 8001798:	3048      	adds	r0, #72	; 0x48
 800179a:	428a      	cmp	r2, r1
 800179c:	bf08      	it	eq
 800179e:	f043 0301 	orreq.w	r3, r3, #1
 80017a2:	3148      	adds	r1, #72	; 0x48
 80017a4:	42aa      	cmp	r2, r5
 80017a6:	bf08      	it	eq
 80017a8:	f043 0301 	orreq.w	r3, r3, #1
 80017ac:	f505 7562 	add.w	r5, r5, #904	; 0x388
 80017b0:	4282      	cmp	r2, r0
 80017b2:	bf08      	it	eq
 80017b4:	f043 0301 	orreq.w	r3, r3, #1
 80017b8:	f500 7062 	add.w	r0, r0, #904	; 0x388
 80017bc:	428a      	cmp	r2, r1
 80017be:	bf08      	it	eq
 80017c0:	f043 0301 	orreq.w	r3, r3, #1
 80017c4:	f501 7162 	add.w	r1, r1, #904	; 0x388
 80017c8:	42aa      	cmp	r2, r5
 80017ca:	bf08      	it	eq
 80017cc:	f043 0301 	orreq.w	r3, r3, #1
 80017d0:	3548      	adds	r5, #72	; 0x48
 80017d2:	4282      	cmp	r2, r0
 80017d4:	bf08      	it	eq
 80017d6:	f043 0301 	orreq.w	r3, r3, #1
 80017da:	3048      	adds	r0, #72	; 0x48
 80017dc:	428a      	cmp	r2, r1
 80017de:	bf08      	it	eq
 80017e0:	f043 0301 	orreq.w	r3, r3, #1
 80017e4:	3148      	adds	r1, #72	; 0x48
 80017e6:	42aa      	cmp	r2, r5
 80017e8:	bf08      	it	eq
 80017ea:	f043 0301 	orreq.w	r3, r3, #1
 80017ee:	3548      	adds	r5, #72	; 0x48
 80017f0:	4282      	cmp	r2, r0
 80017f2:	bf08      	it	eq
 80017f4:	f043 0301 	orreq.w	r3, r3, #1
 80017f8:	3048      	adds	r0, #72	; 0x48
 80017fa:	428a      	cmp	r2, r1
 80017fc:	bf08      	it	eq
 80017fe:	f043 0301 	orreq.w	r3, r3, #1
 8001802:	f101 51c0 	add.w	r1, r1, #402653184	; 0x18000000
 8001806:	42aa      	cmp	r2, r5
 8001808:	bf08      	it	eq
 800180a:	f043 0301 	orreq.w	r3, r3, #1
 800180e:	f501 419f 	add.w	r1, r1, #20352	; 0x4f80
 8001812:	4d2d      	ldr	r5, [pc, #180]	; (80018c8 <HAL_DMA_Init+0x28c>)
 8001814:	4282      	cmp	r2, r0
 8001816:	bf08      	it	eq
 8001818:	f043 0301 	orreq.w	r3, r3, #1
 800181c:	482b      	ldr	r0, [pc, #172]	; (80018cc <HAL_DMA_Init+0x290>)
 800181e:	428a      	cmp	r2, r1
 8001820:	bf08      	it	eq
 8001822:	f043 0301 	orreq.w	r3, r3, #1
 8001826:	313c      	adds	r1, #60	; 0x3c
 8001828:	42aa      	cmp	r2, r5
 800182a:	bf08      	it	eq
 800182c:	f043 0301 	orreq.w	r3, r3, #1
 8001830:	353c      	adds	r5, #60	; 0x3c
 8001832:	4282      	cmp	r2, r0
 8001834:	bf08      	it	eq
 8001836:	f043 0301 	orreq.w	r3, r3, #1
 800183a:	303c      	adds	r0, #60	; 0x3c
 800183c:	428a      	cmp	r2, r1
 800183e:	bf08      	it	eq
 8001840:	f043 0301 	orreq.w	r3, r3, #1
 8001844:	313c      	adds	r1, #60	; 0x3c
 8001846:	42aa      	cmp	r2, r5
 8001848:	bf08      	it	eq
 800184a:	f043 0301 	orreq.w	r3, r3, #1
 800184e:	4282      	cmp	r2, r0
 8001850:	bf08      	it	eq
 8001852:	f043 0301 	orreq.w	r3, r3, #1
 8001856:	428a      	cmp	r2, r1
 8001858:	bf08      	it	eq
 800185a:	f043 0301 	orreq.w	r3, r3, #1
 800185e:	b913      	cbnz	r3, 8001866 <HAL_DMA_Init+0x22a>
 8001860:	4b1b      	ldr	r3, [pc, #108]	; (80018d0 <HAL_DMA_Init+0x294>)
 8001862:	429a      	cmp	r2, r3
 8001864:	d118      	bne.n	8001898 <HAL_DMA_Init+0x25c>
 8001866:	4620      	mov	r0, r4
 8001868:	f7ff fe7c 	bl	8001564 <DMA_CalcDMAMUXChannelBaseAndMask>
 800186c:	68a3      	ldr	r3, [r4, #8]
 800186e:	2b80      	cmp	r3, #128	; 0x80
 8001870:	d069      	beq.n	8001946 <HAL_DMA_Init+0x30a>
 8001872:	6863      	ldr	r3, [r4, #4]
 8001874:	6e25      	ldr	r5, [r4, #96]	; 0x60
 8001876:	b2da      	uxtb	r2, r3
 8001878:	3b01      	subs	r3, #1
 800187a:	e9d4 1019 	ldrd	r1, r0, [r4, #100]	; 0x64
 800187e:	2b07      	cmp	r3, #7
 8001880:	602a      	str	r2, [r5, #0]
 8001882:	6048      	str	r0, [r1, #4]
 8001884:	d866      	bhi.n	8001954 <HAL_DMA_Init+0x318>
 8001886:	1e50      	subs	r0, r2, #1
 8001888:	2807      	cmp	r0, #7
 800188a:	d97c      	bls.n	8001986 <HAL_DMA_Init+0x34a>
 800188c:	6f62      	ldr	r2, [r4, #116]	; 0x74
 800188e:	e9d4 311b 	ldrd	r3, r1, [r4, #108]	; 0x6c
 8001892:	2000      	movs	r0, #0
 8001894:	6018      	str	r0, [r3, #0]
 8001896:	604a      	str	r2, [r1, #4]
 8001898:	2000      	movs	r0, #0
 800189a:	2301      	movs	r3, #1
 800189c:	6560      	str	r0, [r4, #84]	; 0x54
 800189e:	f884 3035 	strb.w	r3, [r4, #53]	; 0x35
 80018a2:	bdf8      	pop	{r3, r4, r5, r6, r7, pc}
 80018a4:	40020010 	.word	0x40020010
 80018a8:	40020040 	.word	0x40020040
 80018ac:	40020070 	.word	0x40020070
 80018b0:	400204b8 	.word	0x400204b8
 80018b4:	fe10803f 	.word	0xfe10803f
 80018b8:	ffff0000 	.word	0xffff0000
 80018bc:	5c001000 	.word	0x5c001000
 80018c0:	40020028 	.word	0x40020028
 80018c4:	40020058 	.word	0x40020058
 80018c8:	5802541c 	.word	0x5802541c
 80018cc:	58025430 	.word	0x58025430
 80018d0:	58025494 	.word	0x58025494
 80018d4:	6861      	ldr	r1, [r4, #4]
 80018d6:	f1a1 0629 	sub.w	r6, r1, #41	; 0x29
 80018da:	2e1f      	cmp	r6, #31
 80018dc:	d92d      	bls.n	800193a <HAL_DMA_Init+0x2fe>
 80018de:	394f      	subs	r1, #79	; 0x4f
 80018e0:	2903      	cmp	r1, #3
 80018e2:	d801      	bhi.n	80018e8 <HAL_DMA_Init+0x2ac>
 80018e4:	f442 1280 	orr.w	r2, r2, #1048576	; 0x100000
 80018e8:	601a      	str	r2, [r3, #0]
 80018ea:	2d04      	cmp	r5, #4
 80018ec:	6959      	ldr	r1, [r3, #20]
 80018ee:	f021 0107 	bic.w	r1, r1, #7
 80018f2:	ea41 0105 	orr.w	r1, r1, r5
 80018f6:	f47f af2f 	bne.w	8001758 <HAL_DMA_Init+0x11c>
 80018fa:	6ae6      	ldr	r6, [r4, #44]	; 0x2c
 80018fc:	6aa2      	ldr	r2, [r4, #40]	; 0x28
 80018fe:	4311      	orrs	r1, r2
 8001900:	2e00      	cmp	r6, #0
 8001902:	f43f af29 	beq.w	8001758 <HAL_DMA_Init+0x11c>
 8001906:	2800      	cmp	r0, #0
 8001908:	d173      	bne.n	80019f2 <HAL_DMA_Init+0x3b6>
 800190a:	2a01      	cmp	r2, #1
 800190c:	f000 8088 	beq.w	8001a20 <HAL_DMA_Init+0x3e4>
 8001910:	f032 0202 	bics.w	r2, r2, #2
 8001914:	f47f af20 	bne.w	8001758 <HAL_DMA_Init+0x11c>
 8001918:	01f2      	lsls	r2, r6, #7
 800191a:	f57f af1d 	bpl.w	8001758 <HAL_DMA_Init+0x11c>
 800191e:	2301      	movs	r3, #1
 8001920:	2240      	movs	r2, #64	; 0x40
 8001922:	4618      	mov	r0, r3
 8001924:	6562      	str	r2, [r4, #84]	; 0x54
 8001926:	f884 3035 	strb.w	r3, [r4, #53]	; 0x35
 800192a:	bdf8      	pop	{r3, r4, r5, r6, r7, pc}
 800192c:	2220      	movs	r2, #32
 800192e:	2303      	movs	r3, #3
 8001930:	2001      	movs	r0, #1
 8001932:	6562      	str	r2, [r4, #84]	; 0x54
 8001934:	f884 3035 	strb.w	r3, [r4, #53]	; 0x35
 8001938:	bdf8      	pop	{r3, r4, r5, r6, r7, pc}
 800193a:	4970      	ldr	r1, [pc, #448]	; (8001afc <HAL_DMA_Init+0x4c0>)
 800193c:	fa21 f606 	lsr.w	r6, r1, r6
 8001940:	07f1      	lsls	r1, r6, #31
 8001942:	d5d1      	bpl.n	80018e8 <HAL_DMA_Init+0x2ac>
 8001944:	e7ce      	b.n	80018e4 <HAL_DMA_Init+0x2a8>
 8001946:	2300      	movs	r3, #0
 8001948:	6ea1      	ldr	r1, [r4, #104]	; 0x68
 800194a:	e9d4 0218 	ldrd	r0, r2, [r4, #96]	; 0x60
 800194e:	6063      	str	r3, [r4, #4]
 8001950:	6003      	str	r3, [r0, #0]
 8001952:	6051      	str	r1, [r2, #4]
 8001954:	2300      	movs	r3, #0
 8001956:	e9c4 331b 	strd	r3, r3, [r4, #108]	; 0x6c
 800195a:	6763      	str	r3, [r4, #116]	; 0x74
 800195c:	e79c      	b.n	8001898 <HAL_DMA_Init+0x25c>
 800195e:	2001      	movs	r0, #1
 8001960:	bdf8      	pop	{r3, r4, r5, r6, r7, pc}
 8001962:	6837      	ldr	r7, [r6, #0]
 8001964:	6ae6      	ldr	r6, [r4, #44]	; 0x2c
 8001966:	4039      	ands	r1, r7
 8001968:	6b27      	ldr	r7, [r4, #48]	; 0x30
 800196a:	f1b1 5f00 	cmp.w	r1, #536870912	; 0x20000000
 800196e:	ea46 0707 	orr.w	r7, r6, r7
 8001972:	ea42 0207 	orr.w	r2, r2, r7
 8001976:	d2ad      	bcs.n	80018d4 <HAL_DMA_Init+0x298>
 8001978:	601a      	str	r2, [r3, #0]
 800197a:	6959      	ldr	r1, [r3, #20]
 800197c:	f021 0107 	bic.w	r1, r1, #7
 8001980:	f041 0104 	orr.w	r1, r1, #4
 8001984:	e7ba      	b.n	80018fc <HAL_DMA_Init+0x2c0>
 8001986:	6821      	ldr	r1, [r4, #0]
 8001988:	4b5d      	ldr	r3, [pc, #372]	; (8001b00 <HAL_DMA_Init+0x4c4>)
 800198a:	4e5e      	ldr	r6, [pc, #376]	; (8001b04 <HAL_DMA_Init+0x4c8>)
 800198c:	4d5e      	ldr	r5, [pc, #376]	; (8001b08 <HAL_DMA_Init+0x4cc>)
 800198e:	42b1      	cmp	r1, r6
 8001990:	bf18      	it	ne
 8001992:	4299      	cmpne	r1, r3
 8001994:	f106 0628 	add.w	r6, r6, #40	; 0x28
 8001998:	bf0c      	ite	eq
 800199a:	2301      	moveq	r3, #1
 800199c:	2300      	movne	r3, #0
 800199e:	42a9      	cmp	r1, r5
 80019a0:	bf08      	it	eq
 80019a2:	f043 0301 	orreq.w	r3, r3, #1
 80019a6:	3528      	adds	r5, #40	; 0x28
 80019a8:	42b1      	cmp	r1, r6
 80019aa:	bf08      	it	eq
 80019ac:	f043 0301 	orreq.w	r3, r3, #1
 80019b0:	3628      	adds	r6, #40	; 0x28
 80019b2:	42a9      	cmp	r1, r5
 80019b4:	bf08      	it	eq
 80019b6:	f043 0301 	orreq.w	r3, r3, #1
 80019ba:	3528      	adds	r5, #40	; 0x28
 80019bc:	42b1      	cmp	r1, r6
 80019be:	bf08      	it	eq
 80019c0:	f043 0301 	orreq.w	r3, r3, #1
 80019c4:	42a9      	cmp	r1, r5
 80019c6:	bf08      	it	eq
 80019c8:	f043 0301 	orreq.w	r3, r3, #1
 80019cc:	b93b      	cbnz	r3, 80019de <HAL_DMA_Init+0x3a2>
 80019ce:	4b4f      	ldr	r3, [pc, #316]	; (8001b0c <HAL_DMA_Init+0x4d0>)
 80019d0:	4299      	cmp	r1, r3
 80019d2:	d004      	beq.n	80019de <HAL_DMA_Init+0x3a2>
 80019d4:	4b4e      	ldr	r3, [pc, #312]	; (8001b10 <HAL_DMA_Init+0x4d4>)
 80019d6:	494f      	ldr	r1, [pc, #316]	; (8001b14 <HAL_DMA_Init+0x4d8>)
 80019d8:	4413      	add	r3, r2
 80019da:	009b      	lsls	r3, r3, #2
 80019dc:	e003      	b.n	80019e6 <HAL_DMA_Init+0x3aa>
 80019de:	4b4e      	ldr	r3, [pc, #312]	; (8001b18 <HAL_DMA_Init+0x4dc>)
 80019e0:	494e      	ldr	r1, [pc, #312]	; (8001b1c <HAL_DMA_Init+0x4e0>)
 80019e2:	4413      	add	r3, r2
 80019e4:	009b      	lsls	r3, r3, #2
 80019e6:	2201      	movs	r2, #1
 80019e8:	4082      	lsls	r2, r0
 80019ea:	e9c4 311b 	strd	r3, r1, [r4, #108]	; 0x6c
 80019ee:	6762      	str	r2, [r4, #116]	; 0x74
 80019f0:	e74f      	b.n	8001892 <HAL_DMA_Init+0x256>
 80019f2:	f5b0 5f00 	cmp.w	r0, #8192	; 0x2000
 80019f6:	d004      	beq.n	8001a02 <HAL_DMA_Init+0x3c6>
 80019f8:	2a02      	cmp	r2, #2
 80019fa:	d990      	bls.n	800191e <HAL_DMA_Init+0x2e2>
 80019fc:	2a03      	cmp	r2, #3
 80019fe:	d08b      	beq.n	8001918 <HAL_DMA_Init+0x2dc>
 8001a00:	e6aa      	b.n	8001758 <HAL_DMA_Init+0x11c>
 8001a02:	2a03      	cmp	r2, #3
 8001a04:	f63f aea8 	bhi.w	8001758 <HAL_DMA_Init+0x11c>
 8001a08:	a001      	add	r0, pc, #4	; (adr r0, 8001a10 <HAL_DMA_Init+0x3d4>)
 8001a0a:	f850 f022 	ldr.w	pc, [r0, r2, lsl #2]
 8001a0e:	bf00      	nop
 8001a10:	0800191f 	.word	0x0800191f
 8001a14:	08001919 	.word	0x08001919
 8001a18:	0800191f 	.word	0x0800191f
 8001a1c:	08001a21 	.word	0x08001a21
 8001a20:	f1b6 7fc0 	cmp.w	r6, #25165824	; 0x1800000
 8001a24:	f47f ae98 	bne.w	8001758 <HAL_DMA_Init+0x11c>
 8001a28:	e779      	b.n	800191e <HAL_DMA_Init+0x2e2>
 8001a2a:	4a35      	ldr	r2, [pc, #212]	; (8001b00 <HAL_DMA_Init+0x4c4>)
 8001a2c:	4935      	ldr	r1, [pc, #212]	; (8001b04 <HAL_DMA_Init+0x4c8>)
 8001a2e:	4836      	ldr	r0, [pc, #216]	; (8001b08 <HAL_DMA_Init+0x4cc>)
 8001a30:	428b      	cmp	r3, r1
 8001a32:	bf18      	it	ne
 8001a34:	4293      	cmpne	r3, r2
 8001a36:	f101 0128 	add.w	r1, r1, #40	; 0x28
 8001a3a:	4d39      	ldr	r5, [pc, #228]	; (8001b20 <HAL_DMA_Init+0x4e4>)
 8001a3c:	bf0c      	ite	eq
 8001a3e:	2201      	moveq	r2, #1
 8001a40:	2200      	movne	r2, #0
 8001a42:	4283      	cmp	r3, r0
 8001a44:	bf08      	it	eq
 8001a46:	f042 0201 	orreq.w	r2, r2, #1
 8001a4a:	303c      	adds	r0, #60	; 0x3c
 8001a4c:	428b      	cmp	r3, r1
 8001a4e:	bf08      	it	eq
 8001a50:	f042 0201 	orreq.w	r2, r2, #1
 8001a54:	313c      	adds	r1, #60	; 0x3c
 8001a56:	42ab      	cmp	r3, r5
 8001a58:	bf08      	it	eq
 8001a5a:	f042 0201 	orreq.w	r2, r2, #1
 8001a5e:	4283      	cmp	r3, r0
 8001a60:	bf08      	it	eq
 8001a62:	f042 0201 	orreq.w	r2, r2, #1
 8001a66:	428b      	cmp	r3, r1
 8001a68:	bf08      	it	eq
 8001a6a:	f042 0201 	orreq.w	r2, r2, #1
 8001a6e:	b912      	cbnz	r2, 8001a76 <HAL_DMA_Init+0x43a>
 8001a70:	4a26      	ldr	r2, [pc, #152]	; (8001b0c <HAL_DMA_Init+0x4d0>)
 8001a72:	4293      	cmp	r3, r2
 8001a74:	d13a      	bne.n	8001aec <HAL_DMA_Init+0x4b0>
 8001a76:	2200      	movs	r2, #0
 8001a78:	2102      	movs	r1, #2
 8001a7a:	4f2a      	ldr	r7, [pc, #168]	; (8001b24 <HAL_DMA_Init+0x4e8>)
 8001a7c:	f884 2034 	strb.w	r2, [r4, #52]	; 0x34
 8001a80:	68a2      	ldr	r2, [r4, #8]
 8001a82:	f884 1035 	strb.w	r1, [r4, #53]	; 0x35
 8001a86:	2a40      	cmp	r2, #64	; 0x40
 8001a88:	6819      	ldr	r1, [r3, #0]
 8001a8a:	ea07 0701 	and.w	r7, r7, r1
 8001a8e:	d02b      	beq.n	8001ae8 <HAL_DMA_Init+0x4ac>
 8001a90:	2a80      	cmp	r2, #128	; 0x80
 8001a92:	bf0c      	ite	eq
 8001a94:	f44f 4180 	moveq.w	r1, #16384	; 0x4000
 8001a98:	2100      	movne	r1, #0
 8001a9a:	6922      	ldr	r2, [r4, #16]
 8001a9c:	4620      	mov	r0, r4
 8001a9e:	68e6      	ldr	r6, [r4, #12]
 8001aa0:	08d2      	lsrs	r2, r2, #3
 8001aa2:	6965      	ldr	r5, [r4, #20]
 8001aa4:	f8df c084 	ldr.w	ip, [pc, #132]	; 8001b2c <HAL_DMA_Init+0x4f0>
 8001aa8:	ea42 02d6 	orr.w	r2, r2, r6, lsr #3
 8001aac:	69a6      	ldr	r6, [r4, #24]
 8001aae:	ea42 02d5 	orr.w	r2, r2, r5, lsr #3
 8001ab2:	69e5      	ldr	r5, [r4, #28]
 8001ab4:	ea42 02d6 	orr.w	r2, r2, r6, lsr #3
 8001ab8:	4e1b      	ldr	r6, [pc, #108]	; (8001b28 <HAL_DMA_Init+0x4ec>)
 8001aba:	ea42 02d5 	orr.w	r2, r2, r5, lsr #3
 8001abe:	441e      	add	r6, r3
 8001ac0:	6a25      	ldr	r5, [r4, #32]
 8001ac2:	ea42 1215 	orr.w	r2, r2, r5, lsr #4
 8001ac6:	fbac 6506 	umull	r6, r5, ip, r6
 8001aca:	433a      	orrs	r2, r7
 8001acc:	092d      	lsrs	r5, r5, #4
 8001ace:	4311      	orrs	r1, r2
 8001ad0:	00ad      	lsls	r5, r5, #2
 8001ad2:	6019      	str	r1, [r3, #0]
 8001ad4:	65e5      	str	r5, [r4, #92]	; 0x5c
 8001ad6:	f7ff fcc9 	bl	800146c <DMA_CalcBaseAndBitshift>
 8001ada:	6de2      	ldr	r2, [r4, #92]	; 0x5c
 8001adc:	2301      	movs	r3, #1
 8001ade:	f002 021f 	and.w	r2, r2, #31
 8001ae2:	4093      	lsls	r3, r2
 8001ae4:	6043      	str	r3, [r0, #4]
 8001ae6:	e641      	b.n	800176c <HAL_DMA_Init+0x130>
 8001ae8:	2110      	movs	r1, #16
 8001aea:	e7d6      	b.n	8001a9a <HAL_DMA_Init+0x45e>
 8001aec:	2240      	movs	r2, #64	; 0x40
 8001aee:	2303      	movs	r3, #3
 8001af0:	2001      	movs	r0, #1
 8001af2:	6562      	str	r2, [r4, #84]	; 0x54
 8001af4:	f884 3035 	strb.w	r3, [r4, #53]	; 0x35
 8001af8:	bdf8      	pop	{r3, r4, r5, r6, r7, pc}
 8001afa:	bf00      	nop
 8001afc:	c3c0003f 	.word	0xc3c0003f
 8001b00:	58025408 	.word	0x58025408
 8001b04:	5802541c 	.word	0x5802541c
 8001b08:	58025430 	.word	0x58025430
 8001b0c:	58025494 	.word	0x58025494
 8001b10:	1000823f 	.word	0x1000823f
 8001b14:	40020940 	.word	0x40020940
 8001b18:	1600963f 	.word	0x1600963f
 8001b1c:	58025940 	.word	0x58025940
 8001b20:	58025458 	.word	0x58025458
 8001b24:	fffe000f 	.word	0xfffe000f
 8001b28:	a7fdabf8 	.word	0xa7fdabf8
 8001b2c:	cccccccd 	.word	0xcccccccd

08001b30 <HAL_DMA_Start_IT>:
 8001b30:	2800      	cmp	r0, #0
 8001b32:	f000 818a 	beq.w	8001e4a <HAL_DMA_Start_IT+0x31a>
 8001b36:	e92d 47f0 	stmdb	sp!, {r4, r5, r6, r7, r8, r9, sl, lr}
 8001b3a:	4604      	mov	r4, r0
 8001b3c:	f890 0034 	ldrb.w	r0, [r0, #52]	; 0x34
 8001b40:	2801      	cmp	r0, #1
 8001b42:	f000 8184 	beq.w	8001e4e <HAL_DMA_Start_IT+0x31e>
 8001b46:	2001      	movs	r0, #1
 8001b48:	f894 5035 	ldrb.w	r5, [r4, #53]	; 0x35
 8001b4c:	4285      	cmp	r5, r0
 8001b4e:	f884 0034 	strb.w	r0, [r4, #52]	; 0x34
 8001b52:	d007      	beq.n	8001b64 <HAL_DMA_Start_IT+0x34>
 8001b54:	f44f 6200 	mov.w	r2, #2048	; 0x800
 8001b58:	2300      	movs	r3, #0
 8001b5a:	6562      	str	r2, [r4, #84]	; 0x54
 8001b5c:	f884 3034 	strb.w	r3, [r4, #52]	; 0x34
 8001b60:	e8bd 87f0 	ldmia.w	sp!, {r4, r5, r6, r7, r8, r9, sl, pc}
 8001b64:	6825      	ldr	r5, [r4, #0]
 8001b66:	f04f 0c02 	mov.w	ip, #2
 8001b6a:	4858      	ldr	r0, [pc, #352]	; (8001ccc <HAL_DMA_Start_IT+0x19c>)
 8001b6c:	2700      	movs	r7, #0
 8001b6e:	4e58      	ldr	r6, [pc, #352]	; (8001cd0 <HAL_DMA_Start_IT+0x1a0>)
 8001b70:	f884 c035 	strb.w	ip, [r4, #53]	; 0x35
 8001b74:	42b5      	cmp	r5, r6
 8001b76:	bf18      	it	ne
 8001b78:	4285      	cmpne	r5, r0
 8001b7a:	f8df c15c 	ldr.w	ip, [pc, #348]	; 8001cd8 <HAL_DMA_Start_IT+0x1a8>
 8001b7e:	f106 0630 	add.w	r6, r6, #48	; 0x30
 8001b82:	6567      	str	r7, [r4, #84]	; 0x54
 8001b84:	bf0c      	ite	eq
 8001b86:	2001      	moveq	r0, #1
 8001b88:	2000      	movne	r0, #0
 8001b8a:	4f52      	ldr	r7, [pc, #328]	; (8001cd4 <HAL_DMA_Start_IT+0x1a4>)
 8001b8c:	4565      	cmp	r5, ip
 8001b8e:	bf08      	it	eq
 8001b90:	f040 0001 	orreq.w	r0, r0, #1
 8001b94:	f10c 0c30 	add.w	ip, ip, #48	; 0x30
 8001b98:	42b5      	cmp	r5, r6
 8001b9a:	bf08      	it	eq
 8001b9c:	f040 0001 	orreq.w	r0, r0, #1
 8001ba0:	f506 7662 	add.w	r6, r6, #904	; 0x388
 8001ba4:	4565      	cmp	r5, ip
 8001ba6:	bf08      	it	eq
 8001ba8:	f040 0001 	orreq.w	r0, r0, #1
 8001bac:	f50c 7c62 	add.w	ip, ip, #904	; 0x388
 8001bb0:	42bd      	cmp	r5, r7
 8001bb2:	bf08      	it	eq
 8001bb4:	f040 0001 	orreq.w	r0, r0, #1
 8001bb8:	f507 7762 	add.w	r7, r7, #904	; 0x388
 8001bbc:	42b5      	cmp	r5, r6
 8001bbe:	bf08      	it	eq
 8001bc0:	f040 0001 	orreq.w	r0, r0, #1
 8001bc4:	3648      	adds	r6, #72	; 0x48
 8001bc6:	4565      	cmp	r5, ip
 8001bc8:	bf08      	it	eq
 8001bca:	f040 0001 	orreq.w	r0, r0, #1
 8001bce:	f10c 0c48 	add.w	ip, ip, #72	; 0x48
 8001bd2:	42bd      	cmp	r5, r7
 8001bd4:	bf08      	it	eq
 8001bd6:	f040 0001 	orreq.w	r0, r0, #1
 8001bda:	3748      	adds	r7, #72	; 0x48
 8001bdc:	42b5      	cmp	r5, r6
 8001bde:	bf08      	it	eq
 8001be0:	f040 0001 	orreq.w	r0, r0, #1
 8001be4:	3648      	adds	r6, #72	; 0x48
 8001be6:	4565      	cmp	r5, ip
 8001be8:	bf08      	it	eq
 8001bea:	f040 0001 	orreq.w	r0, r0, #1
 8001bee:	f10c 0c48 	add.w	ip, ip, #72	; 0x48
 8001bf2:	42bd      	cmp	r5, r7
 8001bf4:	bf08      	it	eq
 8001bf6:	f040 0001 	orreq.w	r0, r0, #1
 8001bfa:	f5a7 678f 	sub.w	r7, r7, #1144	; 0x478
 8001bfe:	42b5      	cmp	r5, r6
 8001c00:	bf08      	it	eq
 8001c02:	f040 0001 	orreq.w	r0, r0, #1
 8001c06:	f5a6 668f 	sub.w	r6, r6, #1144	; 0x478
 8001c0a:	4565      	cmp	r5, ip
 8001c0c:	bf14      	ite	ne
 8001c0e:	4682      	movne	sl, r0
 8001c10:	f040 0a01 	orreq.w	sl, r0, #1
 8001c14:	42b5      	cmp	r5, r6
 8001c16:	bf18      	it	ne
 8001c18:	42bd      	cmpne	r5, r7
 8001c1a:	bf0c      	ite	eq
 8001c1c:	2601      	moveq	r6, #1
 8001c1e:	2600      	movne	r6, #0
 8001c20:	d002      	beq.n	8001c28 <HAL_DMA_Start_IT+0xf8>
 8001c22:	f1ba 0f00 	cmp.w	sl, #0
 8001c26:	d059      	beq.n	8001cdc <HAL_DMA_Start_IT+0x1ac>
 8001c28:	682f      	ldr	r7, [r5, #0]
 8001c2a:	f8d4 c058 	ldr.w	ip, [r4, #88]	; 0x58
 8001c2e:	f027 0701 	bic.w	r7, r7, #1
 8001c32:	602f      	str	r7, [r5, #0]
 8001c34:	2e00      	cmp	r6, #0
 8001c36:	f000 8084 	beq.w	8001d42 <HAL_DMA_Start_IT+0x212>
 8001c3a:	6e67      	ldr	r7, [r4, #100]	; 0x64
 8001c3c:	e9d4 0e1a 	ldrd	r0, lr, [r4, #104]	; 0x68
 8001c40:	6078      	str	r0, [r7, #4]
 8001c42:	f1be 0f00 	cmp.w	lr, #0
 8001c46:	d002      	beq.n	8001c4e <HAL_DMA_Start_IT+0x11e>
 8001c48:	e9d4 701c 	ldrd	r7, r0, [r4, #112]	; 0x70
 8001c4c:	6078      	str	r0, [r7, #4]
 8001c4e:	6de7      	ldr	r7, [r4, #92]	; 0x5c
 8001c50:	f04f 093f 	mov.w	r9, #63	; 0x3f
 8001c54:	f8d4 8008 	ldr.w	r8, [r4, #8]
 8001c58:	f007 071f 	and.w	r7, r7, #31
 8001c5c:	f1b8 0f40 	cmp.w	r8, #64	; 0x40
 8001c60:	fa09 f707 	lsl.w	r7, r9, r7
 8001c64:	f8cc 7008 	str.w	r7, [ip, #8]
 8001c68:	682f      	ldr	r7, [r5, #0]
 8001c6a:	f427 2780 	bic.w	r7, r7, #262144	; 0x40000
 8001c6e:	602f      	str	r7, [r5, #0]
 8001c70:	606b      	str	r3, [r5, #4]
 8001c72:	f000 80ef 	beq.w	8001e54 <HAL_DMA_Start_IT+0x324>
 8001c76:	60a9      	str	r1, [r5, #8]
 8001c78:	60ea      	str	r2, [r5, #12]
 8001c7a:	b91e      	cbnz	r6, 8001c84 <HAL_DMA_Start_IT+0x154>
 8001c7c:	f1ba 0f00 	cmp.w	sl, #0
 8001c80:	f000 80ee 	beq.w	8001e60 <HAL_DMA_Start_IT+0x330>
 8001c84:	682b      	ldr	r3, [r5, #0]
 8001c86:	6c22      	ldr	r2, [r4, #64]	; 0x40
 8001c88:	f023 031e 	bic.w	r3, r3, #30
 8001c8c:	f043 0316 	orr.w	r3, r3, #22
 8001c90:	602b      	str	r3, [r5, #0]
 8001c92:	b11a      	cbz	r2, 8001c9c <HAL_DMA_Start_IT+0x16c>
 8001c94:	682b      	ldr	r3, [r5, #0]
 8001c96:	f043 0308 	orr.w	r3, r3, #8
 8001c9a:	602b      	str	r3, [r5, #0]
 8001c9c:	6e23      	ldr	r3, [r4, #96]	; 0x60
 8001c9e:	681a      	ldr	r2, [r3, #0]
 8001ca0:	03d2      	lsls	r2, r2, #15
 8001ca2:	d503      	bpl.n	8001cac <HAL_DMA_Start_IT+0x17c>
 8001ca4:	681a      	ldr	r2, [r3, #0]
 8001ca6:	f442 7280 	orr.w	r2, r2, #256	; 0x100
 8001caa:	601a      	str	r2, [r3, #0]
 8001cac:	f1be 0f00 	cmp.w	lr, #0
 8001cb0:	d005      	beq.n	8001cbe <HAL_DMA_Start_IT+0x18e>
 8001cb2:	f8de 3000 	ldr.w	r3, [lr]
 8001cb6:	f443 7380 	orr.w	r3, r3, #256	; 0x100
 8001cba:	f8ce 3000 	str.w	r3, [lr]
 8001cbe:	682b      	ldr	r3, [r5, #0]
 8001cc0:	2000      	movs	r0, #0
 8001cc2:	f043 0301 	orr.w	r3, r3, #1
 8001cc6:	602b      	str	r3, [r5, #0]
 8001cc8:	e8bd 87f0 	ldmia.w	sp!, {r4, r5, r6, r7, r8, r9, sl, pc}
 8001ccc:	40020040 	.word	0x40020040
 8001cd0:	40020058 	.word	0x40020058
 8001cd4:	400200b8 	.word	0x400200b8
 8001cd8:	40020070 	.word	0x40020070
 8001cdc:	4f65      	ldr	r7, [pc, #404]	; (8001e74 <HAL_DMA_Start_IT+0x344>)
 8001cde:	f8df e19c 	ldr.w	lr, [pc, #412]	; 8001e7c <HAL_DMA_Start_IT+0x34c>
 8001ce2:	f8df c19c 	ldr.w	ip, [pc, #412]	; 8001e80 <HAL_DMA_Start_IT+0x350>
 8001ce6:	4575      	cmp	r5, lr
 8001ce8:	bf18      	it	ne
 8001cea:	42bd      	cmpne	r5, r7
 8001cec:	f10e 0e3c 	add.w	lr, lr, #60	; 0x3c
 8001cf0:	bf0c      	ite	eq
 8001cf2:	2701      	moveq	r7, #1
 8001cf4:	2700      	movne	r7, #0
 8001cf6:	4565      	cmp	r5, ip
 8001cf8:	bf08      	it	eq
 8001cfa:	f047 0701 	orreq.w	r7, r7, #1
 8001cfe:	f10c 0c28 	add.w	ip, ip, #40	; 0x28
 8001d02:	4575      	cmp	r5, lr
 8001d04:	bf08      	it	eq
 8001d06:	f047 0701 	orreq.w	r7, r7, #1
 8001d0a:	f10e 0e28 	add.w	lr, lr, #40	; 0x28
 8001d0e:	4565      	cmp	r5, ip
 8001d10:	bf08      	it	eq
 8001d12:	f047 0701 	orreq.w	r7, r7, #1
 8001d16:	f10c 0c28 	add.w	ip, ip, #40	; 0x28
 8001d1a:	4575      	cmp	r5, lr
 8001d1c:	bf08      	it	eq
 8001d1e:	f047 0701 	orreq.w	r7, r7, #1
 8001d22:	f8d5 e000 	ldr.w	lr, [r5]
 8001d26:	4565      	cmp	r5, ip
 8001d28:	bf08      	it	eq
 8001d2a:	f047 0701 	orreq.w	r7, r7, #1
 8001d2e:	f02e 0e01 	bic.w	lr, lr, #1
 8001d32:	f8d4 c058 	ldr.w	ip, [r4, #88]	; 0x58
 8001d36:	f8c5 e000 	str.w	lr, [r5]
 8001d3a:	b917      	cbnz	r7, 8001d42 <HAL_DMA_Start_IT+0x212>
 8001d3c:	4f4e      	ldr	r7, [pc, #312]	; (8001e78 <HAL_DMA_Start_IT+0x348>)
 8001d3e:	42bd      	cmp	r5, r7
 8001d40:	d10d      	bne.n	8001d5e <HAL_DMA_Start_IT+0x22e>
 8001d42:	6e67      	ldr	r7, [r4, #100]	; 0x64
 8001d44:	e9d4 0e1a 	ldrd	r0, lr, [r4, #104]	; 0x68
 8001d48:	6078      	str	r0, [r7, #4]
 8001d4a:	f1be 0f00 	cmp.w	lr, #0
 8001d4e:	d002      	beq.n	8001d56 <HAL_DMA_Start_IT+0x226>
 8001d50:	e9d4 701c 	ldrd	r7, r0, [r4, #112]	; 0x70
 8001d54:	6078      	str	r0, [r7, #4]
 8001d56:	f1ba 0f00 	cmp.w	sl, #0
 8001d5a:	f47f af78 	bne.w	8001c4e <HAL_DMA_Start_IT+0x11e>
 8001d5e:	4f47      	ldr	r7, [pc, #284]	; (8001e7c <HAL_DMA_Start_IT+0x34c>)
 8001d60:	f8df 8110 	ldr.w	r8, [pc, #272]	; 8001e74 <HAL_DMA_Start_IT+0x344>
 8001d64:	f8df e118 	ldr.w	lr, [pc, #280]	; 8001e80 <HAL_DMA_Start_IT+0x350>
 8001d68:	4545      	cmp	r5, r8
 8001d6a:	bf18      	it	ne
 8001d6c:	42bd      	cmpne	r5, r7
 8001d6e:	f108 0828 	add.w	r8, r8, #40	; 0x28
 8001d72:	bf0c      	ite	eq
 8001d74:	2701      	moveq	r7, #1
 8001d76:	2700      	movne	r7, #0
 8001d78:	4575      	cmp	r5, lr
 8001d7a:	bf08      	it	eq
 8001d7c:	f047 0701 	orreq.w	r7, r7, #1
 8001d80:	f10e 0e28 	add.w	lr, lr, #40	; 0x28
 8001d84:	4545      	cmp	r5, r8
 8001d86:	bf08      	it	eq
 8001d88:	f047 0701 	orreq.w	r7, r7, #1
 8001d8c:	f108 0828 	add.w	r8, r8, #40	; 0x28
 8001d90:	4575      	cmp	r5, lr
 8001d92:	bf08      	it	eq
 8001d94:	f047 0701 	orreq.w	r7, r7, #1
 8001d98:	f10e 0e28 	add.w	lr, lr, #40	; 0x28
 8001d9c:	4545      	cmp	r5, r8
 8001d9e:	bf08      	it	eq
 8001da0:	f047 0701 	orreq.w	r7, r7, #1
 8001da4:	4575      	cmp	r5, lr
 8001da6:	bf08      	it	eq
 8001da8:	f047 0701 	orreq.w	r7, r7, #1
 8001dac:	b917      	cbnz	r7, 8001db4 <HAL_DMA_Start_IT+0x284>
 8001dae:	4f32      	ldr	r7, [pc, #200]	; (8001e78 <HAL_DMA_Start_IT+0x348>)
 8001db0:	42bd      	cmp	r5, r7
 8001db2:	d155      	bne.n	8001e60 <HAL_DMA_Start_IT+0x330>
 8001db4:	6de7      	ldr	r7, [r4, #92]	; 0x5c
 8001db6:	f04f 0e01 	mov.w	lr, #1
 8001dba:	f8d4 8008 	ldr.w	r8, [r4, #8]
 8001dbe:	f007 071f 	and.w	r7, r7, #31
 8001dc2:	f1b8 0f40 	cmp.w	r8, #64	; 0x40
 8001dc6:	fa0e f707 	lsl.w	r7, lr, r7
 8001dca:	f8cc 7004 	str.w	r7, [ip, #4]
 8001dce:	606b      	str	r3, [r5, #4]
 8001dd0:	d043      	beq.n	8001e5a <HAL_DMA_Start_IT+0x32a>
 8001dd2:	60a9      	str	r1, [r5, #8]
 8001dd4:	60ea      	str	r2, [r5, #12]
 8001dd6:	682b      	ldr	r3, [r5, #0]
 8001dd8:	6c22      	ldr	r2, [r4, #64]	; 0x40
 8001dda:	f023 030e 	bic.w	r3, r3, #14
 8001dde:	f043 030a 	orr.w	r3, r3, #10
 8001de2:	602b      	str	r3, [r5, #0]
 8001de4:	2a00      	cmp	r2, #0
 8001de6:	d02d      	beq.n	8001e44 <HAL_DMA_Start_IT+0x314>
 8001de8:	682b      	ldr	r3, [r5, #0]
 8001dea:	f043 0304 	orr.w	r3, r3, #4
 8001dee:	602b      	str	r3, [r5, #0]
 8001df0:	4b20      	ldr	r3, [pc, #128]	; (8001e74 <HAL_DMA_Start_IT+0x344>)
 8001df2:	4a22      	ldr	r2, [pc, #136]	; (8001e7c <HAL_DMA_Start_IT+0x34c>)
 8001df4:	4922      	ldr	r1, [pc, #136]	; (8001e80 <HAL_DMA_Start_IT+0x350>)
 8001df6:	4295      	cmp	r5, r2
 8001df8:	bf18      	it	ne
 8001dfa:	429d      	cmpne	r5, r3
 8001dfc:	f102 023c 	add.w	r2, r2, #60	; 0x3c
 8001e00:	bf0c      	ite	eq
 8001e02:	2301      	moveq	r3, #1
 8001e04:	2300      	movne	r3, #0
 8001e06:	428d      	cmp	r5, r1
 8001e08:	bf08      	it	eq
 8001e0a:	f043 0301 	orreq.w	r3, r3, #1
 8001e0e:	3128      	adds	r1, #40	; 0x28
 8001e10:	4295      	cmp	r5, r2
 8001e12:	bf08      	it	eq
 8001e14:	f043 0301 	orreq.w	r3, r3, #1
 8001e18:	3228      	adds	r2, #40	; 0x28
 8001e1a:	428d      	cmp	r5, r1
 8001e1c:	bf08      	it	eq
 8001e1e:	f043 0301 	orreq.w	r3, r3, #1
 8001e22:	3128      	adds	r1, #40	; 0x28
 8001e24:	4295      	cmp	r5, r2
 8001e26:	bf08      	it	eq
 8001e28:	f043 0301 	orreq.w	r3, r3, #1
 8001e2c:	3228      	adds	r2, #40	; 0x28
 8001e2e:	428d      	cmp	r5, r1
 8001e30:	bf08      	it	eq
 8001e32:	f043 0301 	orreq.w	r3, r3, #1
 8001e36:	4295      	cmp	r5, r2
 8001e38:	bf08      	it	eq
 8001e3a:	f043 0301 	orreq.w	r3, r3, #1
 8001e3e:	2b00      	cmp	r3, #0
 8001e40:	f43f af3d 	beq.w	8001cbe <HAL_DMA_Start_IT+0x18e>
 8001e44:	f8d4 e06c 	ldr.w	lr, [r4, #108]	; 0x6c
 8001e48:	e728      	b.n	8001c9c <HAL_DMA_Start_IT+0x16c>
 8001e4a:	2001      	movs	r0, #1
 8001e4c:	4770      	bx	lr
 8001e4e:	2002      	movs	r0, #2
 8001e50:	e8bd 87f0 	ldmia.w	sp!, {r4, r5, r6, r7, r8, r9, sl, pc}
 8001e54:	60aa      	str	r2, [r5, #8]
 8001e56:	60e9      	str	r1, [r5, #12]
 8001e58:	e70f      	b.n	8001c7a <HAL_DMA_Start_IT+0x14a>
 8001e5a:	60aa      	str	r2, [r5, #8]
 8001e5c:	60e9      	str	r1, [r5, #12]
 8001e5e:	e7ba      	b.n	8001dd6 <HAL_DMA_Start_IT+0x2a6>
 8001e60:	682b      	ldr	r3, [r5, #0]
 8001e62:	6c22      	ldr	r2, [r4, #64]	; 0x40
 8001e64:	f023 030e 	bic.w	r3, r3, #14
 8001e68:	f043 030a 	orr.w	r3, r3, #10
 8001e6c:	602b      	str	r3, [r5, #0]
 8001e6e:	2a00      	cmp	r2, #0
 8001e70:	d1ba      	bne.n	8001de8 <HAL_DMA_Start_IT+0x2b8>
 8001e72:	e7bd      	b.n	8001df0 <HAL_DMA_Start_IT+0x2c0>
 8001e74:	5802541c 	.word	0x5802541c
 8001e78:	58025494 	.word	0x58025494
 8001e7c:	58025408 	.word	0x58025408
 8001e80:	58025430 	.word	0x58025430

08001e84 <HAL_DMA_Abort>:
 8001e84:	b570      	push	{r4, r5, r6, lr}
 8001e86:	4605      	mov	r5, r0
 8001e88:	f7fe fbe2 	bl	8000650 <HAL_GetTick>
 8001e8c:	2d00      	cmp	r5, #0
 8001e8e:	f000 8129 	beq.w	80020e4 <HAL_DMA_Abort+0x260>
 8001e92:	f895 3035 	ldrb.w	r3, [r5, #53]	; 0x35
 8001e96:	2b02      	cmp	r3, #2
 8001e98:	f040 80e2 	bne.w	8002060 <HAL_DMA_Abort+0x1dc>
 8001e9c:	682c      	ldr	r4, [r5, #0]
 8001e9e:	4606      	mov	r6, r0
 8001ea0:	4b91      	ldr	r3, [pc, #580]	; (80020e8 <HAL_DMA_Abort+0x264>)
 8001ea2:	4992      	ldr	r1, [pc, #584]	; (80020ec <HAL_DMA_Abort+0x268>)
 8001ea4:	4a92      	ldr	r2, [pc, #584]	; (80020f0 <HAL_DMA_Abort+0x26c>)
 8001ea6:	428c      	cmp	r4, r1
 8001ea8:	bf18      	it	ne
 8001eaa:	429c      	cmpne	r4, r3
 8001eac:	f101 0148 	add.w	r1, r1, #72	; 0x48
 8001eb0:	4890      	ldr	r0, [pc, #576]	; (80020f4 <HAL_DMA_Abort+0x270>)
 8001eb2:	bf0c      	ite	eq
 8001eb4:	2301      	moveq	r3, #1
 8001eb6:	2300      	movne	r3, #0
 8001eb8:	4294      	cmp	r4, r2
 8001eba:	bf08      	it	eq
 8001ebc:	f043 0301 	orreq.w	r3, r3, #1
 8001ec0:	3248      	adds	r2, #72	; 0x48
 8001ec2:	428c      	cmp	r4, r1
 8001ec4:	bf08      	it	eq
 8001ec6:	f043 0301 	orreq.w	r3, r3, #1
 8001eca:	f501 7162 	add.w	r1, r1, #904	; 0x388
 8001ece:	4284      	cmp	r4, r0
 8001ed0:	bf08      	it	eq
 8001ed2:	f043 0301 	orreq.w	r3, r3, #1
 8001ed6:	f500 7062 	add.w	r0, r0, #904	; 0x388
 8001eda:	4294      	cmp	r4, r2
 8001edc:	bf08      	it	eq
 8001ede:	f043 0301 	orreq.w	r3, r3, #1
 8001ee2:	f502 7262 	add.w	r2, r2, #904	; 0x388
 8001ee6:	428c      	cmp	r4, r1
 8001ee8:	bf08      	it	eq
 8001eea:	f043 0301 	orreq.w	r3, r3, #1
 8001eee:	3148      	adds	r1, #72	; 0x48
 8001ef0:	4284      	cmp	r4, r0
 8001ef2:	bf08      	it	eq
 8001ef4:	f043 0301 	orreq.w	r3, r3, #1
 8001ef8:	3048      	adds	r0, #72	; 0x48
 8001efa:	4294      	cmp	r4, r2
 8001efc:	bf08      	it	eq
 8001efe:	f043 0301 	orreq.w	r3, r3, #1
 8001f02:	3248      	adds	r2, #72	; 0x48
 8001f04:	428c      	cmp	r4, r1
 8001f06:	bf08      	it	eq
 8001f08:	f043 0301 	orreq.w	r3, r3, #1
 8001f0c:	3148      	adds	r1, #72	; 0x48
 8001f0e:	4284      	cmp	r4, r0
 8001f10:	bf08      	it	eq
 8001f12:	f043 0301 	orreq.w	r3, r3, #1
 8001f16:	3048      	adds	r0, #72	; 0x48
 8001f18:	4294      	cmp	r4, r2
 8001f1a:	bf08      	it	eq
 8001f1c:	f043 0301 	orreq.w	r3, r3, #1
 8001f20:	f5a2 628f 	sub.w	r2, r2, #1144	; 0x478
 8001f24:	428c      	cmp	r4, r1
 8001f26:	bf08      	it	eq
 8001f28:	f043 0301 	orreq.w	r3, r3, #1
 8001f2c:	f5a1 618f 	sub.w	r1, r1, #1144	; 0x478
 8001f30:	4284      	cmp	r4, r0
 8001f32:	bf08      	it	eq
 8001f34:	f043 0301 	orreq.w	r3, r3, #1
 8001f38:	428c      	cmp	r4, r1
 8001f3a:	bf18      	it	ne
 8001f3c:	4294      	cmpne	r4, r2
 8001f3e:	bf0c      	ite	eq
 8001f40:	2201      	moveq	r2, #1
 8001f42:	2200      	movne	r2, #0
 8001f44:	d002      	beq.n	8001f4c <HAL_DMA_Abort+0xc8>
 8001f46:	2b00      	cmp	r3, #0
 8001f48:	f000 8091 	beq.w	800206e <HAL_DMA_Abort+0x1ea>
 8001f4c:	6821      	ldr	r1, [r4, #0]
 8001f4e:	f021 011e 	bic.w	r1, r1, #30
 8001f52:	6021      	str	r1, [r4, #0]
 8001f54:	6961      	ldr	r1, [r4, #20]
 8001f56:	f021 0180 	bic.w	r1, r1, #128	; 0x80
 8001f5a:	6161      	str	r1, [r4, #20]
 8001f5c:	2a00      	cmp	r2, #0
 8001f5e:	f000 80b1 	beq.w	80020c4 <HAL_DMA_Abort+0x240>
 8001f62:	6e2a      	ldr	r2, [r5, #96]	; 0x60
 8001f64:	6813      	ldr	r3, [r2, #0]
 8001f66:	f423 7380 	bic.w	r3, r3, #256	; 0x100
 8001f6a:	6013      	str	r3, [r2, #0]
 8001f6c:	6823      	ldr	r3, [r4, #0]
 8001f6e:	f023 0301 	bic.w	r3, r3, #1
 8001f72:	6023      	str	r3, [r4, #0]
 8001f74:	e005      	b.n	8001f82 <HAL_DMA_Abort+0xfe>
 8001f76:	f7fe fb6b 	bl	8000650 <HAL_GetTick>
 8001f7a:	1b83      	subs	r3, r0, r6
 8001f7c:	2b05      	cmp	r3, #5
 8001f7e:	f200 80a7 	bhi.w	80020d0 <HAL_DMA_Abort+0x24c>
 8001f82:	6823      	ldr	r3, [r4, #0]
 8001f84:	07db      	lsls	r3, r3, #31
 8001f86:	d4f6      	bmi.n	8001f76 <HAL_DMA_Abort+0xf2>
 8001f88:	682a      	ldr	r2, [r5, #0]
 8001f8a:	4b57      	ldr	r3, [pc, #348]	; (80020e8 <HAL_DMA_Abort+0x264>)
 8001f8c:	4957      	ldr	r1, [pc, #348]	; (80020ec <HAL_DMA_Abort+0x268>)
 8001f8e:	4c58      	ldr	r4, [pc, #352]	; (80020f0 <HAL_DMA_Abort+0x26c>)
 8001f90:	428a      	cmp	r2, r1
 8001f92:	bf18      	it	ne
 8001f94:	429a      	cmpne	r2, r3
 8001f96:	4858      	ldr	r0, [pc, #352]	; (80020f8 <HAL_DMA_Abort+0x274>)
 8001f98:	f101 0160 	add.w	r1, r1, #96	; 0x60
 8001f9c:	bf0c      	ite	eq
 8001f9e:	2301      	moveq	r3, #1
 8001fa0:	2300      	movne	r3, #0
 8001fa2:	42a2      	cmp	r2, r4
 8001fa4:	bf08      	it	eq
 8001fa6:	f043 0301 	orreq.w	r3, r3, #1
 8001faa:	3448      	adds	r4, #72	; 0x48
 8001fac:	4282      	cmp	r2, r0
 8001fae:	bf08      	it	eq
 8001fb0:	f043 0301 	orreq.w	r3, r3, #1
 8001fb4:	f500 7062 	add.w	r0, r0, #904	; 0x388
 8001fb8:	428a      	cmp	r2, r1
 8001fba:	bf08      	it	eq
 8001fbc:	f043 0301 	orreq.w	r3, r3, #1
 8001fc0:	f501 7162 	add.w	r1, r1, #904	; 0x388
 8001fc4:	42a2      	cmp	r2, r4
 8001fc6:	bf08      	it	eq
 8001fc8:	f043 0301 	orreq.w	r3, r3, #1
 8001fcc:	f504 7462 	add.w	r4, r4, #904	; 0x388
 8001fd0:	4282      	cmp	r2, r0
 8001fd2:	bf08      	it	eq
 8001fd4:	f043 0301 	orreq.w	r3, r3, #1
 8001fd8:	3048      	adds	r0, #72	; 0x48
 8001fda:	428a      	cmp	r2, r1
 8001fdc:	bf08      	it	eq
 8001fde:	f043 0301 	orreq.w	r3, r3, #1
 8001fe2:	3148      	adds	r1, #72	; 0x48
 8001fe4:	42a2      	cmp	r2, r4
 8001fe6:	bf08      	it	eq
 8001fe8:	f043 0301 	orreq.w	r3, r3, #1
 8001fec:	3448      	adds	r4, #72	; 0x48
 8001fee:	4282      	cmp	r2, r0
 8001ff0:	bf08      	it	eq
 8001ff2:	f043 0301 	orreq.w	r3, r3, #1
 8001ff6:	3048      	adds	r0, #72	; 0x48
 8001ff8:	428a      	cmp	r2, r1
 8001ffa:	bf08      	it	eq
 8001ffc:	f043 0301 	orreq.w	r3, r3, #1
 8002000:	3148      	adds	r1, #72	; 0x48
 8002002:	42a2      	cmp	r2, r4
 8002004:	bf08      	it	eq
 8002006:	f043 0301 	orreq.w	r3, r3, #1
 800200a:	4282      	cmp	r2, r0
 800200c:	bf08      	it	eq
 800200e:	f043 0301 	orreq.w	r3, r3, #1
 8002012:	428a      	cmp	r2, r1
 8002014:	bf08      	it	eq
 8002016:	f043 0301 	orreq.w	r3, r3, #1
 800201a:	b933      	cbnz	r3, 800202a <HAL_DMA_Abort+0x1a6>
 800201c:	f5a1 6195 	sub.w	r1, r1, #1192	; 0x4a8
 8002020:	4b36      	ldr	r3, [pc, #216]	; (80020fc <HAL_DMA_Abort+0x278>)
 8002022:	429a      	cmp	r2, r3
 8002024:	bf18      	it	ne
 8002026:	428a      	cmpne	r2, r1
 8002028:	d172      	bne.n	8002110 <HAL_DMA_Abort+0x28c>
 800202a:	6dea      	ldr	r2, [r5, #92]	; 0x5c
 800202c:	233f      	movs	r3, #63	; 0x3f
 800202e:	6da9      	ldr	r1, [r5, #88]	; 0x58
 8002030:	f002 021f 	and.w	r2, r2, #31
 8002034:	4093      	lsls	r3, r2
 8002036:	608b      	str	r3, [r1, #8]
 8002038:	6eeb      	ldr	r3, [r5, #108]	; 0x6c
 800203a:	e9d5 2119 	ldrd	r2, r1, [r5, #100]	; 0x64
 800203e:	6051      	str	r1, [r2, #4]
 8002040:	b133      	cbz	r3, 8002050 <HAL_DMA_Abort+0x1cc>
 8002042:	681a      	ldr	r2, [r3, #0]
 8002044:	6f29      	ldr	r1, [r5, #112]	; 0x70
 8002046:	6f68      	ldr	r0, [r5, #116]	; 0x74
 8002048:	f422 7280 	bic.w	r2, r2, #256	; 0x100
 800204c:	601a      	str	r2, [r3, #0]
 800204e:	6048      	str	r0, [r1, #4]
 8002050:	2300      	movs	r3, #0
 8002052:	2201      	movs	r2, #1
 8002054:	4618      	mov	r0, r3
 8002056:	f885 2035 	strb.w	r2, [r5, #53]	; 0x35
 800205a:	f885 3034 	strb.w	r3, [r5, #52]	; 0x34
 800205e:	bd70      	pop	{r4, r5, r6, pc}
 8002060:	2280      	movs	r2, #128	; 0x80
 8002062:	2300      	movs	r3, #0
 8002064:	2001      	movs	r0, #1
 8002066:	656a      	str	r2, [r5, #84]	; 0x54
 8002068:	f885 3034 	strb.w	r3, [r5, #52]	; 0x34
 800206c:	bd70      	pop	{r4, r5, r6, pc}
 800206e:	4a24      	ldr	r2, [pc, #144]	; (8002100 <HAL_DMA_Abort+0x27c>)
 8002070:	4924      	ldr	r1, [pc, #144]	; (8002104 <HAL_DMA_Abort+0x280>)
 8002072:	4825      	ldr	r0, [pc, #148]	; (8002108 <HAL_DMA_Abort+0x284>)
 8002074:	428c      	cmp	r4, r1
 8002076:	bf18      	it	ne
 8002078:	4294      	cmpne	r4, r2
 800207a:	f101 013c 	add.w	r1, r1, #60	; 0x3c
 800207e:	bf0c      	ite	eq
 8002080:	2201      	moveq	r2, #1
 8002082:	2200      	movne	r2, #0
 8002084:	4284      	cmp	r4, r0
 8002086:	bf08      	it	eq
 8002088:	f042 0201 	orreq.w	r2, r2, #1
 800208c:	3028      	adds	r0, #40	; 0x28
 800208e:	428c      	cmp	r4, r1
 8002090:	bf08      	it	eq
 8002092:	f042 0201 	orreq.w	r2, r2, #1
 8002096:	3128      	adds	r1, #40	; 0x28
 8002098:	4284      	cmp	r4, r0
 800209a:	bf08      	it	eq
 800209c:	f042 0201 	orreq.w	r2, r2, #1
 80020a0:	3028      	adds	r0, #40	; 0x28
 80020a2:	428c      	cmp	r4, r1
 80020a4:	bf08      	it	eq
 80020a6:	f042 0201 	orreq.w	r2, r2, #1
 80020aa:	6821      	ldr	r1, [r4, #0]
 80020ac:	4284      	cmp	r4, r0
 80020ae:	bf08      	it	eq
 80020b0:	f042 0201 	orreq.w	r2, r2, #1
 80020b4:	f021 010e 	bic.w	r1, r1, #14
 80020b8:	6021      	str	r1, [r4, #0]
 80020ba:	b91a      	cbnz	r2, 80020c4 <HAL_DMA_Abort+0x240>
 80020bc:	4a13      	ldr	r2, [pc, #76]	; (800210c <HAL_DMA_Abort+0x288>)
 80020be:	4294      	cmp	r4, r2
 80020c0:	f47f af54 	bne.w	8001f6c <HAL_DMA_Abort+0xe8>
 80020c4:	6e29      	ldr	r1, [r5, #96]	; 0x60
 80020c6:	680a      	ldr	r2, [r1, #0]
 80020c8:	f422 7280 	bic.w	r2, r2, #256	; 0x100
 80020cc:	600a      	str	r2, [r1, #0]
 80020ce:	e74d      	b.n	8001f6c <HAL_DMA_Abort+0xe8>
 80020d0:	2120      	movs	r1, #32
 80020d2:	2303      	movs	r3, #3
 80020d4:	2200      	movs	r2, #0
 80020d6:	2001      	movs	r0, #1
 80020d8:	6569      	str	r1, [r5, #84]	; 0x54
 80020da:	f885 2034 	strb.w	r2, [r5, #52]	; 0x34
 80020de:	f885 3035 	strb.w	r3, [r5, #53]	; 0x35
 80020e2:	bd70      	pop	{r4, r5, r6, pc}
 80020e4:	2001      	movs	r0, #1
 80020e6:	bd70      	pop	{r4, r5, r6, pc}
 80020e8:	40020058 	.word	0x40020058
 80020ec:	40020040 	.word	0x40020040
 80020f0:	40020070 	.word	0x40020070
 80020f4:	400200a0 	.word	0x400200a0
 80020f8:	40020088 	.word	0x40020088
 80020fc:	40020028 	.word	0x40020028
 8002100:	5802541c 	.word	0x5802541c
 8002104:	58025408 	.word	0x58025408
 8002108:	58025430 	.word	0x58025430
 800210c:	58025494 	.word	0x58025494
 8002110:	f104 54c0 	add.w	r4, r4, #402653184	; 0x18000000
 8002114:	4b18      	ldr	r3, [pc, #96]	; (8002178 <HAL_DMA_Abort+0x2f4>)
 8002116:	4819      	ldr	r0, [pc, #100]	; (800217c <HAL_DMA_Abort+0x2f8>)
 8002118:	2101      	movs	r1, #1
 800211a:	f504 449f 	add.w	r4, r4, #20352	; 0x4f80
 800211e:	42a2      	cmp	r2, r4
 8002120:	bf18      	it	ne
 8002122:	429a      	cmpne	r2, r3
 8002124:	f104 043c 	add.w	r4, r4, #60	; 0x3c
 8002128:	bf0c      	ite	eq
 800212a:	2301      	moveq	r3, #1
 800212c:	2300      	movne	r3, #0
 800212e:	4282      	cmp	r2, r0
 8002130:	bf08      	it	eq
 8002132:	f043 0301 	orreq.w	r3, r3, #1
 8002136:	3028      	adds	r0, #40	; 0x28
 8002138:	42a2      	cmp	r2, r4
 800213a:	bf08      	it	eq
 800213c:	f043 0301 	orreq.w	r3, r3, #1
 8002140:	3428      	adds	r4, #40	; 0x28
 8002142:	4282      	cmp	r2, r0
 8002144:	bf08      	it	eq
 8002146:	f043 0301 	orreq.w	r3, r3, #1
 800214a:	6de8      	ldr	r0, [r5, #92]	; 0x5c
 800214c:	42a2      	cmp	r2, r4
 800214e:	bf08      	it	eq
 8002150:	f043 0301 	orreq.w	r3, r3, #1
 8002154:	f000 001f 	and.w	r0, r0, #31
 8002158:	3414      	adds	r4, #20
 800215a:	4081      	lsls	r1, r0
 800215c:	42a2      	cmp	r2, r4
 800215e:	bf08      	it	eq
 8002160:	f043 0301 	orreq.w	r3, r3, #1
 8002164:	6dac      	ldr	r4, [r5, #88]	; 0x58
 8002166:	6061      	str	r1, [r4, #4]
 8002168:	2b00      	cmp	r3, #0
 800216a:	f47f af65 	bne.w	8002038 <HAL_DMA_Abort+0x1b4>
 800216e:	4b04      	ldr	r3, [pc, #16]	; (8002180 <HAL_DMA_Abort+0x2fc>)
 8002170:	429a      	cmp	r2, r3
 8002172:	f43f af61 	beq.w	8002038 <HAL_DMA_Abort+0x1b4>
 8002176:	e76b      	b.n	8002050 <HAL_DMA_Abort+0x1cc>
 8002178:	5802541c 	.word	0x5802541c
 800217c:	58025430 	.word	0x58025430
 8002180:	58025494 	.word	0x58025494

08002184 <HAL_DMA_Abort_IT>:
 8002184:	2800      	cmp	r0, #0
 8002186:	d060      	beq.n	800224a <HAL_DMA_Abort_IT+0xc6>
 8002188:	b538      	push	{r3, r4, r5, lr}
 800218a:	f890 2035 	ldrb.w	r2, [r0, #53]	; 0x35
 800218e:	4603      	mov	r3, r0
 8002190:	2a02      	cmp	r2, #2
 8002192:	d156      	bne.n	8002242 <HAL_DMA_Abort_IT+0xbe>
 8002194:	6801      	ldr	r1, [r0, #0]
 8002196:	4a59      	ldr	r2, [pc, #356]	; (80022fc <HAL_DMA_Abort_IT+0x178>)
 8002198:	4291      	cmp	r1, r2
 800219a:	d049      	beq.n	8002230 <HAL_DMA_Abort_IT+0xac>
 800219c:	3218      	adds	r2, #24
 800219e:	4291      	cmp	r1, r2
 80021a0:	d046      	beq.n	8002230 <HAL_DMA_Abort_IT+0xac>
 80021a2:	3230      	adds	r2, #48	; 0x30
 80021a4:	4856      	ldr	r0, [pc, #344]	; (8002300 <HAL_DMA_Abort_IT+0x17c>)
 80021a6:	4c57      	ldr	r4, [pc, #348]	; (8002304 <HAL_DMA_Abort_IT+0x180>)
 80021a8:	4281      	cmp	r1, r0
 80021aa:	bf18      	it	ne
 80021ac:	4291      	cmpne	r1, r2
 80021ae:	f100 0048 	add.w	r0, r0, #72	; 0x48
 80021b2:	4d55      	ldr	r5, [pc, #340]	; (8002308 <HAL_DMA_Abort_IT+0x184>)
 80021b4:	bf0c      	ite	eq
 80021b6:	2201      	moveq	r2, #1
 80021b8:	2200      	movne	r2, #0
 80021ba:	42a1      	cmp	r1, r4
 80021bc:	bf08      	it	eq
 80021be:	f042 0201 	orreq.w	r2, r2, #1
 80021c2:	3448      	adds	r4, #72	; 0x48
 80021c4:	4281      	cmp	r1, r0
 80021c6:	bf08      	it	eq
 80021c8:	f042 0201 	orreq.w	r2, r2, #1
 80021cc:	f500 7062 	add.w	r0, r0, #904	; 0x388
 80021d0:	42a9      	cmp	r1, r5
 80021d2:	bf08      	it	eq
 80021d4:	f042 0201 	orreq.w	r2, r2, #1
 80021d8:	f505 7562 	add.w	r5, r5, #904	; 0x388
 80021dc:	42a1      	cmp	r1, r4
 80021de:	bf08      	it	eq
 80021e0:	f042 0201 	orreq.w	r2, r2, #1
 80021e4:	f504 7462 	add.w	r4, r4, #904	; 0x388
 80021e8:	4281      	cmp	r1, r0
 80021ea:	bf08      	it	eq
 80021ec:	f042 0201 	orreq.w	r2, r2, #1
 80021f0:	3048      	adds	r0, #72	; 0x48
 80021f2:	42a9      	cmp	r1, r5
 80021f4:	bf08      	it	eq
 80021f6:	f042 0201 	orreq.w	r2, r2, #1
 80021fa:	3548      	adds	r5, #72	; 0x48
 80021fc:	42a1      	cmp	r1, r4
 80021fe:	bf08      	it	eq
 8002200:	f042 0201 	orreq.w	r2, r2, #1
 8002204:	3448      	adds	r4, #72	; 0x48
 8002206:	4281      	cmp	r1, r0
 8002208:	bf08      	it	eq
 800220a:	f042 0201 	orreq.w	r2, r2, #1
 800220e:	3048      	adds	r0, #72	; 0x48
 8002210:	42a9      	cmp	r1, r5
 8002212:	bf08      	it	eq
 8002214:	f042 0201 	orreq.w	r2, r2, #1
 8002218:	42a1      	cmp	r1, r4
 800221a:	bf08      	it	eq
 800221c:	f042 0201 	orreq.w	r2, r2, #1
 8002220:	4281      	cmp	r1, r0
 8002222:	bf08      	it	eq
 8002224:	f042 0201 	orreq.w	r2, r2, #1
 8002228:	b912      	cbnz	r2, 8002230 <HAL_DMA_Abort_IT+0xac>
 800222a:	4a38      	ldr	r2, [pc, #224]	; (800230c <HAL_DMA_Abort_IT+0x188>)
 800222c:	4291      	cmp	r1, r2
 800222e:	d10e      	bne.n	800224e <HAL_DMA_Abort_IT+0xca>
 8002230:	2204      	movs	r2, #4
 8002232:	2000      	movs	r0, #0
 8002234:	f883 2035 	strb.w	r2, [r3, #53]	; 0x35
 8002238:	680b      	ldr	r3, [r1, #0]
 800223a:	f023 0301 	bic.w	r3, r3, #1
 800223e:	600b      	str	r3, [r1, #0]
 8002240:	bd38      	pop	{r3, r4, r5, pc}
 8002242:	2280      	movs	r2, #128	; 0x80
 8002244:	2001      	movs	r0, #1
 8002246:	655a      	str	r2, [r3, #84]	; 0x54
 8002248:	bd38      	pop	{r3, r4, r5, pc}
 800224a:	2001      	movs	r0, #1
 800224c:	4770      	bx	lr
 800224e:	f104 54c0 	add.w	r4, r4, #402653184	; 0x18000000
 8002252:	4a2f      	ldr	r2, [pc, #188]	; (8002310 <HAL_DMA_Abort_IT+0x18c>)
 8002254:	482f      	ldr	r0, [pc, #188]	; (8002314 <HAL_DMA_Abort_IT+0x190>)
 8002256:	f504 449f 	add.w	r4, r4, #20352	; 0x4f80
 800225a:	4d2f      	ldr	r5, [pc, #188]	; (8002318 <HAL_DMA_Abort_IT+0x194>)
 800225c:	42a1      	cmp	r1, r4
 800225e:	bf18      	it	ne
 8002260:	4291      	cmpne	r1, r2
 8002262:	f104 0450 	add.w	r4, r4, #80	; 0x50
 8002266:	bf0c      	ite	eq
 8002268:	2201      	moveq	r2, #1
 800226a:	2200      	movne	r2, #0
 800226c:	4281      	cmp	r1, r0
 800226e:	bf08      	it	eq
 8002270:	f042 0201 	orreq.w	r2, r2, #1
 8002274:	6808      	ldr	r0, [r1, #0]
 8002276:	42a9      	cmp	r1, r5
 8002278:	bf08      	it	eq
 800227a:	f042 0201 	orreq.w	r2, r2, #1
 800227e:	f020 000e 	bic.w	r0, r0, #14
 8002282:	3528      	adds	r5, #40	; 0x28
 8002284:	42a1      	cmp	r1, r4
 8002286:	bf08      	it	eq
 8002288:	f042 0201 	orreq.w	r2, r2, #1
 800228c:	6008      	str	r0, [r1, #0]
 800228e:	3428      	adds	r4, #40	; 0x28
 8002290:	6808      	ldr	r0, [r1, #0]
 8002292:	42a9      	cmp	r1, r5
 8002294:	bf08      	it	eq
 8002296:	f042 0201 	orreq.w	r2, r2, #1
 800229a:	f020 0001 	bic.w	r0, r0, #1
 800229e:	42a1      	cmp	r1, r4
 80022a0:	bf08      	it	eq
 80022a2:	f042 0201 	orreq.w	r2, r2, #1
 80022a6:	6008      	str	r0, [r1, #0]
 80022a8:	b912      	cbnz	r2, 80022b0 <HAL_DMA_Abort_IT+0x12c>
 80022aa:	4a1c      	ldr	r2, [pc, #112]	; (800231c <HAL_DMA_Abort_IT+0x198>)
 80022ac:	4291      	cmp	r1, r2
 80022ae:	d117      	bne.n	80022e0 <HAL_DMA_Abort_IT+0x15c>
 80022b0:	6e1c      	ldr	r4, [r3, #96]	; 0x60
 80022b2:	2101      	movs	r1, #1
 80022b4:	6dd8      	ldr	r0, [r3, #92]	; 0x5c
 80022b6:	6822      	ldr	r2, [r4, #0]
 80022b8:	f000 001f 	and.w	r0, r0, #31
 80022bc:	6d9d      	ldr	r5, [r3, #88]	; 0x58
 80022be:	f422 7280 	bic.w	r2, r2, #256	; 0x100
 80022c2:	4081      	lsls	r1, r0
 80022c4:	6e58      	ldr	r0, [r3, #100]	; 0x64
 80022c6:	6022      	str	r2, [r4, #0]
 80022c8:	e9d3 421a 	ldrd	r4, r2, [r3, #104]	; 0x68
 80022cc:	6069      	str	r1, [r5, #4]
 80022ce:	6044      	str	r4, [r0, #4]
 80022d0:	b132      	cbz	r2, 80022e0 <HAL_DMA_Abort_IT+0x15c>
 80022d2:	6811      	ldr	r1, [r2, #0]
 80022d4:	6f18      	ldr	r0, [r3, #112]	; 0x70
 80022d6:	6f5c      	ldr	r4, [r3, #116]	; 0x74
 80022d8:	f421 7180 	bic.w	r1, r1, #256	; 0x100
 80022dc:	6011      	str	r1, [r2, #0]
 80022de:	6044      	str	r4, [r0, #4]
 80022e0:	2101      	movs	r1, #1
 80022e2:	2400      	movs	r4, #0
 80022e4:	6d1a      	ldr	r2, [r3, #80]	; 0x50
 80022e6:	f883 1035 	strb.w	r1, [r3, #53]	; 0x35
 80022ea:	f883 4034 	strb.w	r4, [r3, #52]	; 0x34
 80022ee:	b11a      	cbz	r2, 80022f8 <HAL_DMA_Abort_IT+0x174>
 80022f0:	4618      	mov	r0, r3
 80022f2:	4790      	blx	r2
 80022f4:	4620      	mov	r0, r4
 80022f6:	bd38      	pop	{r3, r4, r5, pc}
 80022f8:	4610      	mov	r0, r2
 80022fa:	bd38      	pop	{r3, r4, r5, pc}
 80022fc:	40020010 	.word	0x40020010
 8002300:	40020040 	.word	0x40020040
 8002304:	40020070 	.word	0x40020070
 8002308:	400200a0 	.word	0x400200a0
 800230c:	400204b8 	.word	0x400204b8
 8002310:	5802541c 	.word	0x5802541c
 8002314:	58025430 	.word	0x58025430
 8002318:	58025444 	.word	0x58025444
 800231c:	58025494 	.word	0x58025494

08002320 <HAL_DMA_IRQHandler>:
 8002320:	e92d 47f0 	stmdb	sp!, {r4, r5, r6, r7, r8, r9, sl, lr}
 8002324:	4a9f      	ldr	r2, [pc, #636]	; (80025a4 <HAL_DMA_IRQHandler+0x284>)
 8002326:	2500      	movs	r5, #0
 8002328:	4e9f      	ldr	r6, [pc, #636]	; (80025a8 <HAL_DMA_IRQHandler+0x288>)
 800232a:	b082      	sub	sp, #8
 800232c:	6803      	ldr	r3, [r0, #0]
 800232e:	4682      	mov	sl, r0
 8002330:	499e      	ldr	r1, [pc, #632]	; (80025ac <HAL_DMA_IRQHandler+0x28c>)
 8002332:	6d84      	ldr	r4, [r0, #88]	; 0x58
 8002334:	4293      	cmp	r3, r2
 8002336:	bf18      	it	ne
 8002338:	42b3      	cmpne	r3, r6
 800233a:	9501      	str	r5, [sp, #4]
 800233c:	bf08      	it	eq
 800233e:	2601      	moveq	r6, #1
 8002340:	680d      	ldr	r5, [r1, #0]
 8002342:	6827      	ldr	r7, [r4, #0]
 8002344:	bf18      	it	ne
 8002346:	2600      	movne	r6, #0
 8002348:	6821      	ldr	r1, [r4, #0]
 800234a:	d04a      	beq.n	80023e2 <HAL_DMA_IRQHandler+0xc2>
 800234c:	3230      	adds	r2, #48	; 0x30
 800234e:	f8df e268 	ldr.w	lr, [pc, #616]	; 80025b8 <HAL_DMA_IRQHandler+0x298>
 8002352:	4897      	ldr	r0, [pc, #604]	; (80025b0 <HAL_DMA_IRQHandler+0x290>)
 8002354:	4573      	cmp	r3, lr
 8002356:	bf18      	it	ne
 8002358:	4293      	cmpne	r3, r2
 800235a:	f10e 0e48 	add.w	lr, lr, #72	; 0x48
 800235e:	bf0c      	ite	eq
 8002360:	2201      	moveq	r2, #1
 8002362:	2200      	movne	r2, #0
 8002364:	4283      	cmp	r3, r0
 8002366:	bf08      	it	eq
 8002368:	f042 0201 	orreq.w	r2, r2, #1
 800236c:	3030      	adds	r0, #48	; 0x30
 800236e:	4573      	cmp	r3, lr
 8002370:	bf08      	it	eq
 8002372:	f042 0201 	orreq.w	r2, r2, #1
 8002376:	f10e 0e30 	add.w	lr, lr, #48	; 0x30
 800237a:	4283      	cmp	r3, r0
 800237c:	bf08      	it	eq
 800237e:	f042 0201 	orreq.w	r2, r2, #1
 8002382:	f500 705c 	add.w	r0, r0, #880	; 0x370
 8002386:	4573      	cmp	r3, lr
 8002388:	bf08      	it	eq
 800238a:	f042 0201 	orreq.w	r2, r2, #1
 800238e:	f50e 7e5c 	add.w	lr, lr, #880	; 0x370
 8002392:	4283      	cmp	r3, r0
 8002394:	bf08      	it	eq
 8002396:	f042 0201 	orreq.w	r2, r2, #1
 800239a:	3030      	adds	r0, #48	; 0x30
 800239c:	4573      	cmp	r3, lr
 800239e:	bf08      	it	eq
 80023a0:	f042 0201 	orreq.w	r2, r2, #1
 80023a4:	f10e 0e30 	add.w	lr, lr, #48	; 0x30
 80023a8:	4283      	cmp	r3, r0
 80023aa:	bf08      	it	eq
 80023ac:	f042 0201 	orreq.w	r2, r2, #1
 80023b0:	3030      	adds	r0, #48	; 0x30
 80023b2:	4573      	cmp	r3, lr
 80023b4:	bf08      	it	eq
 80023b6:	f042 0201 	orreq.w	r2, r2, #1
 80023ba:	f10e 0e30 	add.w	lr, lr, #48	; 0x30
 80023be:	4283      	cmp	r3, r0
 80023c0:	bf08      	it	eq
 80023c2:	f042 0201 	orreq.w	r2, r2, #1
 80023c6:	3030      	adds	r0, #48	; 0x30
 80023c8:	4573      	cmp	r3, lr
 80023ca:	bf08      	it	eq
 80023cc:	f042 0201 	orreq.w	r2, r2, #1
 80023d0:	4283      	cmp	r3, r0
 80023d2:	bf08      	it	eq
 80023d4:	f042 0201 	orreq.w	r2, r2, #1
 80023d8:	b91a      	cbnz	r2, 80023e2 <HAL_DMA_IRQHandler+0xc2>
 80023da:	4a76      	ldr	r2, [pc, #472]	; (80025b4 <HAL_DMA_IRQHandler+0x294>)
 80023dc:	4293      	cmp	r3, r2
 80023de:	f040 820b 	bne.w	80027f8 <HAL_DMA_IRQHandler+0x4d8>
 80023e2:	f8da 105c 	ldr.w	r1, [sl, #92]	; 0x5c
 80023e6:	2208      	movs	r2, #8
 80023e8:	f001 0c1f 	and.w	ip, r1, #31
 80023ec:	fa02 f20c 	lsl.w	r2, r2, ip
 80023f0:	4217      	tst	r7, r2
 80023f2:	f040 818d 	bne.w	8002710 <HAL_DMA_IRQHandler+0x3f0>
 80023f6:	fa27 f20c 	lsr.w	r2, r7, ip
 80023fa:	07d2      	lsls	r2, r2, #31
 80023fc:	d50c      	bpl.n	8002418 <HAL_DMA_IRQHandler+0xf8>
 80023fe:	695a      	ldr	r2, [r3, #20]
 8002400:	0610      	lsls	r0, r2, #24
 8002402:	d509      	bpl.n	8002418 <HAL_DMA_IRQHandler+0xf8>
 8002404:	2201      	movs	r2, #1
 8002406:	fa02 f20c 	lsl.w	r2, r2, ip
 800240a:	60a2      	str	r2, [r4, #8]
 800240c:	f8da 2054 	ldr.w	r2, [sl, #84]	; 0x54
 8002410:	f042 0202 	orr.w	r2, r2, #2
 8002414:	f8ca 2054 	str.w	r2, [sl, #84]	; 0x54
 8002418:	f04f 0e04 	mov.w	lr, #4
 800241c:	fa0e f00c 	lsl.w	r0, lr, ip
 8002420:	4238      	tst	r0, r7
 8002422:	d05b      	beq.n	80024dc <HAL_DMA_IRQHandler+0x1bc>
 8002424:	2e00      	cmp	r6, #0
 8002426:	d14f      	bne.n	80024c8 <HAL_DMA_IRQHandler+0x1a8>
 8002428:	4a63      	ldr	r2, [pc, #396]	; (80025b8 <HAL_DMA_IRQHandler+0x298>)
 800242a:	f8df 9190 	ldr.w	r9, [pc, #400]	; 80025bc <HAL_DMA_IRQHandler+0x29c>
 800242e:	f8df 8180 	ldr.w	r8, [pc, #384]	; 80025b0 <HAL_DMA_IRQHandler+0x290>
 8002432:	454b      	cmp	r3, r9
 8002434:	bf18      	it	ne
 8002436:	4293      	cmpne	r3, r2
 8002438:	f109 0930 	add.w	r9, r9, #48	; 0x30
 800243c:	bf0c      	ite	eq
 800243e:	2201      	moveq	r2, #1
 8002440:	2200      	movne	r2, #0
 8002442:	4543      	cmp	r3, r8
 8002444:	bf08      	it	eq
 8002446:	f042 0201 	orreq.w	r2, r2, #1
 800244a:	f108 0830 	add.w	r8, r8, #48	; 0x30
 800244e:	454b      	cmp	r3, r9
 8002450:	bf08      	it	eq
 8002452:	f042 0201 	orreq.w	r2, r2, #1
 8002456:	f109 0930 	add.w	r9, r9, #48	; 0x30
 800245a:	4543      	cmp	r3, r8
 800245c:	bf08      	it	eq
 800245e:	f042 0201 	orreq.w	r2, r2, #1
 8002462:	f508 785c 	add.w	r8, r8, #880	; 0x370
 8002466:	454b      	cmp	r3, r9
 8002468:	bf08      	it	eq
 800246a:	f042 0201 	orreq.w	r2, r2, #1
 800246e:	f509 795c 	add.w	r9, r9, #880	; 0x370
 8002472:	4543      	cmp	r3, r8
 8002474:	bf08      	it	eq
 8002476:	f042 0201 	orreq.w	r2, r2, #1
 800247a:	f108 0830 	add.w	r8, r8, #48	; 0x30
 800247e:	454b      	cmp	r3, r9
 8002480:	bf08      	it	eq
 8002482:	f042 0201 	orreq.w	r2, r2, #1
 8002486:	f109 0930 	add.w	r9, r9, #48	; 0x30
 800248a:	4543      	cmp	r3, r8
 800248c:	bf08      	it	eq
 800248e:	f042 0201 	orreq.w	r2, r2, #1
 8002492:	f108 0830 	add.w	r8, r8, #48	; 0x30
 8002496:	454b      	cmp	r3, r9
 8002498:	bf08      	it	eq
 800249a:	f042 0201 	orreq.w	r2, r2, #1
 800249e:	f109 0930 	add.w	r9, r9, #48	; 0x30
 80024a2:	4543      	cmp	r3, r8
 80024a4:	bf08      	it	eq
 80024a6:	f042 0201 	orreq.w	r2, r2, #1
 80024aa:	f108 0830 	add.w	r8, r8, #48	; 0x30
 80024ae:	454b      	cmp	r3, r9
 80024b0:	bf08      	it	eq
 80024b2:	f042 0201 	orreq.w	r2, r2, #1
 80024b6:	4543      	cmp	r3, r8
 80024b8:	bf08      	it	eq
 80024ba:	f042 0201 	orreq.w	r2, r2, #1
 80024be:	b91a      	cbnz	r2, 80024c8 <HAL_DMA_IRQHandler+0x1a8>
 80024c0:	4a3c      	ldr	r2, [pc, #240]	; (80025b4 <HAL_DMA_IRQHandler+0x294>)
 80024c2:	4293      	cmp	r3, r2
 80024c4:	f040 822f 	bne.w	8002926 <HAL_DMA_IRQHandler+0x606>
 80024c8:	681a      	ldr	r2, [r3, #0]
 80024ca:	0792      	lsls	r2, r2, #30
 80024cc:	d506      	bpl.n	80024dc <HAL_DMA_IRQHandler+0x1bc>
 80024ce:	60a0      	str	r0, [r4, #8]
 80024d0:	f8da 2054 	ldr.w	r2, [sl, #84]	; 0x54
 80024d4:	f042 0204 	orr.w	r2, r2, #4
 80024d8:	f8ca 2054 	str.w	r2, [sl, #84]	; 0x54
 80024dc:	2210      	movs	r2, #16
 80024de:	fa02 fc0c 	lsl.w	ip, r2, ip
 80024e2:	ea1c 0f07 	tst.w	ip, r7
 80024e6:	d06f      	beq.n	80025c8 <HAL_DMA_IRQHandler+0x2a8>
 80024e8:	2e00      	cmp	r6, #0
 80024ea:	d146      	bne.n	800257a <HAL_DMA_IRQHandler+0x25a>
 80024ec:	4a32      	ldr	r2, [pc, #200]	; (80025b8 <HAL_DMA_IRQHandler+0x298>)
 80024ee:	4833      	ldr	r0, [pc, #204]	; (80025bc <HAL_DMA_IRQHandler+0x29c>)
 80024f0:	4e2f      	ldr	r6, [pc, #188]	; (80025b0 <HAL_DMA_IRQHandler+0x290>)
 80024f2:	4283      	cmp	r3, r0
 80024f4:	bf18      	it	ne
 80024f6:	4293      	cmpne	r3, r2
 80024f8:	f100 0030 	add.w	r0, r0, #48	; 0x30
 80024fc:	bf0c      	ite	eq
 80024fe:	2201      	moveq	r2, #1
 8002500:	2200      	movne	r2, #0
 8002502:	42b3      	cmp	r3, r6
 8002504:	bf08      	it	eq
 8002506:	f042 0201 	orreq.w	r2, r2, #1
 800250a:	3630      	adds	r6, #48	; 0x30
 800250c:	4283      	cmp	r3, r0
 800250e:	bf08      	it	eq
 8002510:	f042 0201 	orreq.w	r2, r2, #1
 8002514:	3030      	adds	r0, #48	; 0x30
 8002516:	42b3      	cmp	r3, r6
 8002518:	bf08      	it	eq
 800251a:	f042 0201 	orreq.w	r2, r2, #1
 800251e:	f506 765c 	add.w	r6, r6, #880	; 0x370
 8002522:	4283      	cmp	r3, r0
 8002524:	bf08      	it	eq
 8002526:	f042 0201 	orreq.w	r2, r2, #1
 800252a:	f500 705c 	add.w	r0, r0, #880	; 0x370
 800252e:	42b3      	cmp	r3, r6
 8002530:	bf08      	it	eq
 8002532:	f042 0201 	orreq.w	r2, r2, #1
 8002536:	3630      	adds	r6, #48	; 0x30
 8002538:	4283      	cmp	r3, r0
 800253a:	bf08      	it	eq
 800253c:	f042 0201 	orreq.w	r2, r2, #1
 8002540:	3030      	adds	r0, #48	; 0x30
 8002542:	42b3      	cmp	r3, r6
 8002544:	bf08      	it	eq
 8002546:	f042 0201 	orreq.w	r2, r2, #1
 800254a:	3630      	adds	r6, #48	; 0x30
 800254c:	4283      	cmp	r3, r0
 800254e:	bf08      	it	eq
 8002550:	f042 0201 	orreq.w	r2, r2, #1
 8002554:	3030      	adds	r0, #48	; 0x30
 8002556:	42b3      	cmp	r3, r6
 8002558:	bf08      	it	eq
 800255a:	f042 0201 	orreq.w	r2, r2, #1
 800255e:	3630      	adds	r6, #48	; 0x30
 8002560:	4283      	cmp	r3, r0
 8002562:	bf08      	it	eq
 8002564:	f042 0201 	orreq.w	r2, r2, #1
 8002568:	42b3      	cmp	r3, r6
 800256a:	bf08      	it	eq
 800256c:	f042 0201 	orreq.w	r2, r2, #1
 8002570:	b91a      	cbnz	r2, 800257a <HAL_DMA_IRQHandler+0x25a>
 8002572:	4a10      	ldr	r2, [pc, #64]	; (80025b4 <HAL_DMA_IRQHandler+0x294>)
 8002574:	4293      	cmp	r3, r2
 8002576:	f040 81de 	bne.w	8002936 <HAL_DMA_IRQHandler+0x616>
 800257a:	681a      	ldr	r2, [r3, #0]
 800257c:	f3c2 02c0 	ubfx	r2, r2, #3, #1
 8002580:	b312      	cbz	r2, 80025c8 <HAL_DMA_IRQHandler+0x2a8>
 8002582:	f8c4 c008 	str.w	ip, [r4, #8]
 8002586:	681a      	ldr	r2, [r3, #0]
 8002588:	0352      	lsls	r2, r2, #13
 800258a:	f100 818b 	bmi.w	80028a4 <HAL_DMA_IRQHandler+0x584>
 800258e:	681a      	ldr	r2, [r3, #0]
 8002590:	05d6      	lsls	r6, r2, #23
 8002592:	d403      	bmi.n	800259c <HAL_DMA_IRQHandler+0x27c>
 8002594:	681a      	ldr	r2, [r3, #0]
 8002596:	f022 0208 	bic.w	r2, r2, #8
 800259a:	601a      	str	r2, [r3, #0]
 800259c:	f8da 3040 	ldr.w	r3, [sl, #64]	; 0x40
 80025a0:	b193      	cbz	r3, 80025c8 <HAL_DMA_IRQHandler+0x2a8>
 80025a2:	e00d      	b.n	80025c0 <HAL_DMA_IRQHandler+0x2a0>
 80025a4:	40020028 	.word	0x40020028
 80025a8:	40020010 	.word	0x40020010
 80025ac:	2400000c 	.word	0x2400000c
 80025b0:	40020070 	.word	0x40020070
 80025b4:	400204b8 	.word	0x400204b8
 80025b8:	40020040 	.word	0x40020040
 80025bc:	40020058 	.word	0x40020058
 80025c0:	4650      	mov	r0, sl
 80025c2:	4798      	blx	r3
 80025c4:	f8da 105c 	ldr.w	r1, [sl, #92]	; 0x5c
 80025c8:	f001 011f 	and.w	r1, r1, #31
 80025cc:	2620      	movs	r6, #32
 80025ce:	408e      	lsls	r6, r1
 80025d0:	423e      	tst	r6, r7
 80025d2:	d06a      	beq.n	80026aa <HAL_DMA_IRQHandler+0x38a>
 80025d4:	f8da 2000 	ldr.w	r2, [sl]
 80025d8:	4ba7      	ldr	r3, [pc, #668]	; (8002878 <HAL_DMA_IRQHandler+0x558>)
 80025da:	48a8      	ldr	r0, [pc, #672]	; (800287c <HAL_DMA_IRQHandler+0x55c>)
 80025dc:	4fa8      	ldr	r7, [pc, #672]	; (8002880 <HAL_DMA_IRQHandler+0x560>)
 80025de:	4282      	cmp	r2, r0
 80025e0:	bf18      	it	ne
 80025e2:	429a      	cmpne	r2, r3
 80025e4:	f100 0030 	add.w	r0, r0, #48	; 0x30
 80025e8:	bf0c      	ite	eq
 80025ea:	2301      	moveq	r3, #1
 80025ec:	2300      	movne	r3, #0
 80025ee:	42ba      	cmp	r2, r7
 80025f0:	bf08      	it	eq
 80025f2:	f043 0301 	orreq.w	r3, r3, #1
 80025f6:	3730      	adds	r7, #48	; 0x30
 80025f8:	4282      	cmp	r2, r0
 80025fa:	bf08      	it	eq
 80025fc:	f043 0301 	orreq.w	r3, r3, #1
 8002600:	3030      	adds	r0, #48	; 0x30
 8002602:	42ba      	cmp	r2, r7
 8002604:	bf08      	it	eq
 8002606:	f043 0301 	orreq.w	r3, r3, #1
 800260a:	3730      	adds	r7, #48	; 0x30
 800260c:	4282      	cmp	r2, r0
 800260e:	bf08      	it	eq
 8002610:	f043 0301 	orreq.w	r3, r3, #1
 8002614:	3030      	adds	r0, #48	; 0x30
 8002616:	42ba      	cmp	r2, r7
 8002618:	bf08      	it	eq
 800261a:	f043 0301 	orreq.w	r3, r3, #1
 800261e:	f507 775c 	add.w	r7, r7, #880	; 0x370
 8002622:	4282      	cmp	r2, r0
 8002624:	bf08      	it	eq
 8002626:	f043 0301 	orreq.w	r3, r3, #1
 800262a:	f500 705c 	add.w	r0, r0, #880	; 0x370
 800262e:	42ba      	cmp	r2, r7
 8002630:	bf08      	it	eq
 8002632:	f043 0301 	orreq.w	r3, r3, #1
 8002636:	3730      	adds	r7, #48	; 0x30
 8002638:	4282      	cmp	r2, r0
 800263a:	bf08      	it	eq
 800263c:	f043 0301 	orreq.w	r3, r3, #1
 8002640:	3030      	adds	r0, #48	; 0x30
 8002642:	42ba      	cmp	r2, r7
 8002644:	bf08      	it	eq
 8002646:	f043 0301 	orreq.w	r3, r3, #1
 800264a:	3730      	adds	r7, #48	; 0x30
 800264c:	4282      	cmp	r2, r0
 800264e:	bf08      	it	eq
 8002650:	f043 0301 	orreq.w	r3, r3, #1
 8002654:	3030      	adds	r0, #48	; 0x30
 8002656:	42ba      	cmp	r2, r7
 8002658:	bf08      	it	eq
 800265a:	f043 0301 	orreq.w	r3, r3, #1
 800265e:	3730      	adds	r7, #48	; 0x30
 8002660:	4282      	cmp	r2, r0
 8002662:	bf08      	it	eq
 8002664:	f043 0301 	orreq.w	r3, r3, #1
 8002668:	42ba      	cmp	r2, r7
 800266a:	bf08      	it	eq
 800266c:	f043 0301 	orreq.w	r3, r3, #1
 8002670:	b91b      	cbnz	r3, 800267a <HAL_DMA_IRQHandler+0x35a>
 8002672:	4b84      	ldr	r3, [pc, #528]	; (8002884 <HAL_DMA_IRQHandler+0x564>)
 8002674:	429a      	cmp	r2, r3
 8002676:	f040 8173 	bne.w	8002960 <HAL_DMA_IRQHandler+0x640>
 800267a:	6813      	ldr	r3, [r2, #0]
 800267c:	f3c3 1300 	ubfx	r3, r3, #4, #1
 8002680:	b19b      	cbz	r3, 80026aa <HAL_DMA_IRQHandler+0x38a>
 8002682:	60a6      	str	r6, [r4, #8]
 8002684:	f89a 3035 	ldrb.w	r3, [sl, #53]	; 0x35
 8002688:	2b04      	cmp	r3, #4
 800268a:	6813      	ldr	r3, [r2, #0]
 800268c:	f000 8114 	beq.w	80028b8 <HAL_DMA_IRQHandler+0x598>
 8002690:	f413 2f80 	tst.w	r3, #262144	; 0x40000
 8002694:	6813      	ldr	r3, [r2, #0]
 8002696:	f000 812d 	beq.w	80028f4 <HAL_DMA_IRQHandler+0x5d4>
 800269a:	031c      	lsls	r4, r3, #12
 800269c:	f140 8138 	bpl.w	8002910 <HAL_DMA_IRQHandler+0x5f0>
 80026a0:	f8da 303c 	ldr.w	r3, [sl, #60]	; 0x3c
 80026a4:	b10b      	cbz	r3, 80026aa <HAL_DMA_IRQHandler+0x38a>
 80026a6:	4650      	mov	r0, sl
 80026a8:	4798      	blx	r3
 80026aa:	f8da 3054 	ldr.w	r3, [sl, #84]	; 0x54
 80026ae:	2b00      	cmp	r3, #0
 80026b0:	f000 80df 	beq.w	8002872 <HAL_DMA_IRQHandler+0x552>
 80026b4:	f8da 3054 	ldr.w	r3, [sl, #84]	; 0x54
 80026b8:	07d8      	lsls	r0, r3, #31
 80026ba:	d51f      	bpl.n	80026fc <HAL_DMA_IRQHandler+0x3dc>
 80026bc:	f8da 2000 	ldr.w	r2, [sl]
 80026c0:	2404      	movs	r4, #4
 80026c2:	f88a 4035 	strb.w	r4, [sl, #53]	; 0x35
 80026c6:	6813      	ldr	r3, [r2, #0]
 80026c8:	f023 0301 	bic.w	r3, r3, #1
 80026cc:	6013      	str	r3, [r2, #0]
 80026ce:	4b6e      	ldr	r3, [pc, #440]	; (8002888 <HAL_DMA_IRQHandler+0x568>)
 80026d0:	fba3 3505 	umull	r3, r5, r3, r5
 80026d4:	0aad      	lsrs	r5, r5, #10
 80026d6:	e002      	b.n	80026de <HAL_DMA_IRQHandler+0x3be>
 80026d8:	6813      	ldr	r3, [r2, #0]
 80026da:	07d9      	lsls	r1, r3, #31
 80026dc:	d504      	bpl.n	80026e8 <HAL_DMA_IRQHandler+0x3c8>
 80026de:	9b01      	ldr	r3, [sp, #4]
 80026e0:	3301      	adds	r3, #1
 80026e2:	42ab      	cmp	r3, r5
 80026e4:	9301      	str	r3, [sp, #4]
 80026e6:	d9f7      	bls.n	80026d8 <HAL_DMA_IRQHandler+0x3b8>
 80026e8:	6813      	ldr	r3, [r2, #0]
 80026ea:	07db      	lsls	r3, r3, #31
 80026ec:	bf4c      	ite	mi
 80026ee:	2303      	movmi	r3, #3
 80026f0:	2301      	movpl	r3, #1
 80026f2:	f88a 3035 	strb.w	r3, [sl, #53]	; 0x35
 80026f6:	2300      	movs	r3, #0
 80026f8:	f88a 3034 	strb.w	r3, [sl, #52]	; 0x34
 80026fc:	f8da 304c 	ldr.w	r3, [sl, #76]	; 0x4c
 8002700:	2b00      	cmp	r3, #0
 8002702:	f000 80b6 	beq.w	8002872 <HAL_DMA_IRQHandler+0x552>
 8002706:	4650      	mov	r0, sl
 8002708:	b002      	add	sp, #8
 800270a:	e8bd 47f0 	ldmia.w	sp!, {r4, r5, r6, r7, r8, r9, sl, lr}
 800270e:	4718      	bx	r3
 8002710:	6818      	ldr	r0, [r3, #0]
 8002712:	0740      	lsls	r0, r0, #29
 8002714:	d50a      	bpl.n	800272c <HAL_DMA_IRQHandler+0x40c>
 8002716:	6818      	ldr	r0, [r3, #0]
 8002718:	f020 0004 	bic.w	r0, r0, #4
 800271c:	6018      	str	r0, [r3, #0]
 800271e:	60a2      	str	r2, [r4, #8]
 8002720:	f8da 2054 	ldr.w	r2, [sl, #84]	; 0x54
 8002724:	f042 0201 	orr.w	r2, r2, #1
 8002728:	f8ca 2054 	str.w	r2, [sl, #84]	; 0x54
 800272c:	fa27 f20c 	lsr.w	r2, r7, ip
 8002730:	07d2      	lsls	r2, r2, #31
 8002732:	f57f ae71 	bpl.w	8002418 <HAL_DMA_IRQHandler+0xf8>
 8002736:	4a55      	ldr	r2, [pc, #340]	; (800288c <HAL_DMA_IRQHandler+0x56c>)
 8002738:	4851      	ldr	r0, [pc, #324]	; (8002880 <HAL_DMA_IRQHandler+0x560>)
 800273a:	f8df 8164 	ldr.w	r8, [pc, #356]	; 80028a0 <HAL_DMA_IRQHandler+0x580>
 800273e:	4283      	cmp	r3, r0
 8002740:	bf18      	it	ne
 8002742:	4293      	cmpne	r3, r2
 8002744:	f100 0048 	add.w	r0, r0, #72	; 0x48
 8002748:	bf0c      	ite	eq
 800274a:	2201      	moveq	r2, #1
 800274c:	2200      	movne	r2, #0
 800274e:	4543      	cmp	r3, r8
 8002750:	bf08      	it	eq
 8002752:	f042 0201 	orreq.w	r2, r2, #1
 8002756:	f108 0830 	add.w	r8, r8, #48	; 0x30
 800275a:	4283      	cmp	r3, r0
 800275c:	bf08      	it	eq
 800275e:	f042 0201 	orreq.w	r2, r2, #1
 8002762:	3030      	adds	r0, #48	; 0x30
 8002764:	4543      	cmp	r3, r8
 8002766:	bf08      	it	eq
 8002768:	f042 0201 	orreq.w	r2, r2, #1
 800276c:	f508 785c 	add.w	r8, r8, #880	; 0x370
 8002770:	4283      	cmp	r3, r0
 8002772:	bf08      	it	eq
 8002774:	f042 0201 	orreq.w	r2, r2, #1
 8002778:	f500 705c 	add.w	r0, r0, #880	; 0x370
 800277c:	4543      	cmp	r3, r8
 800277e:	bf08      	it	eq
 8002780:	f042 0201 	orreq.w	r2, r2, #1
 8002784:	f108 0830 	add.w	r8, r8, #48	; 0x30
 8002788:	4283      	cmp	r3, r0
 800278a:	bf08      	it	eq
 800278c:	f042 0201 	orreq.w	r2, r2, #1
 8002790:	3030      	adds	r0, #48	; 0x30
 8002792:	4543      	cmp	r3, r8
 8002794:	bf08      	it	eq
 8002796:	f042 0201 	orreq.w	r2, r2, #1
 800279a:	f108 0830 	add.w	r8, r8, #48	; 0x30
 800279e:	4283      	cmp	r3, r0
 80027a0:	bf08      	it	eq
 80027a2:	f042 0201 	orreq.w	r2, r2, #1
 80027a6:	3030      	adds	r0, #48	; 0x30
 80027a8:	4543      	cmp	r3, r8
 80027aa:	bf08      	it	eq
 80027ac:	f042 0201 	orreq.w	r2, r2, #1
 80027b0:	f108 0830 	add.w	r8, r8, #48	; 0x30
 80027b4:	4283      	cmp	r3, r0
 80027b6:	bf08      	it	eq
 80027b8:	f042 0201 	orreq.w	r2, r2, #1
 80027bc:	3030      	adds	r0, #48	; 0x30
 80027be:	4543      	cmp	r3, r8
 80027c0:	bf08      	it	eq
 80027c2:	f042 0201 	orreq.w	r2, r2, #1
 80027c6:	4283      	cmp	r3, r0
 80027c8:	bf08      	it	eq
 80027ca:	f042 0201 	orreq.w	r2, r2, #1
 80027ce:	2a00      	cmp	r2, #0
 80027d0:	f47f ae15 	bne.w	80023fe <HAL_DMA_IRQHandler+0xde>
 80027d4:	2e00      	cmp	r6, #0
 80027d6:	f47f ae12 	bne.w	80023fe <HAL_DMA_IRQHandler+0xde>
 80027da:	2204      	movs	r2, #4
 80027dc:	681e      	ldr	r6, [r3, #0]
 80027de:	fa02 f20c 	lsl.w	r2, r2, ip
 80027e2:	423a      	tst	r2, r7
 80027e4:	f040 809f 	bne.w	8002926 <HAL_DMA_IRQHandler+0x606>
 80027e8:	2210      	movs	r2, #16
 80027ea:	fa02 fc0c 	lsl.w	ip, r2, ip
 80027ee:	ea17 0f0c 	tst.w	r7, ip
 80027f2:	f43f aee9 	beq.w	80025c8 <HAL_DMA_IRQHandler+0x2a8>
 80027f6:	e679      	b.n	80024ec <HAL_DMA_IRQHandler+0x1cc>
 80027f8:	4a25      	ldr	r2, [pc, #148]	; (8002890 <HAL_DMA_IRQHandler+0x570>)
 80027fa:	4e26      	ldr	r6, [pc, #152]	; (8002894 <HAL_DMA_IRQHandler+0x574>)
 80027fc:	4d26      	ldr	r5, [pc, #152]	; (8002898 <HAL_DMA_IRQHandler+0x578>)
 80027fe:	42b3      	cmp	r3, r6
 8002800:	bf18      	it	ne
 8002802:	4293      	cmpne	r3, r2
 8002804:	f106 0628 	add.w	r6, r6, #40	; 0x28
 8002808:	bf0c      	ite	eq
 800280a:	2201      	moveq	r2, #1
 800280c:	2200      	movne	r2, #0
 800280e:	42ab      	cmp	r3, r5
 8002810:	bf08      	it	eq
 8002812:	f042 0201 	orreq.w	r2, r2, #1
 8002816:	3528      	adds	r5, #40	; 0x28
 8002818:	42b3      	cmp	r3, r6
 800281a:	bf08      	it	eq
 800281c:	f042 0201 	orreq.w	r2, r2, #1
 8002820:	3628      	adds	r6, #40	; 0x28
 8002822:	42ab      	cmp	r3, r5
 8002824:	bf08      	it	eq
 8002826:	f042 0201 	orreq.w	r2, r2, #1
 800282a:	3528      	adds	r5, #40	; 0x28
 800282c:	42b3      	cmp	r3, r6
 800282e:	bf08      	it	eq
 8002830:	f042 0201 	orreq.w	r2, r2, #1
 8002834:	42ab      	cmp	r3, r5
 8002836:	bf08      	it	eq
 8002838:	f042 0201 	orreq.w	r2, r2, #1
 800283c:	b912      	cbnz	r2, 8002844 <HAL_DMA_IRQHandler+0x524>
 800283e:	4a17      	ldr	r2, [pc, #92]	; (800289c <HAL_DMA_IRQHandler+0x57c>)
 8002840:	4293      	cmp	r3, r2
 8002842:	d116      	bne.n	8002872 <HAL_DMA_IRQHandler+0x552>
 8002844:	f8da 505c 	ldr.w	r5, [sl, #92]	; 0x5c
 8002848:	2604      	movs	r6, #4
 800284a:	681a      	ldr	r2, [r3, #0]
 800284c:	f005 051f 	and.w	r5, r5, #31
 8002850:	40ae      	lsls	r6, r5
 8002852:	420e      	tst	r6, r1
 8002854:	d073      	beq.n	800293e <HAL_DMA_IRQHandler+0x61e>
 8002856:	0757      	lsls	r7, r2, #29
 8002858:	d571      	bpl.n	800293e <HAL_DMA_IRQHandler+0x61e>
 800285a:	0410      	lsls	r0, r2, #16
 800285c:	6066      	str	r6, [r4, #4]
 800285e:	f140 809f 	bpl.w	80029a0 <HAL_DMA_IRQHandler+0x680>
 8002862:	03d1      	lsls	r1, r2, #15
 8002864:	f100 80a2 	bmi.w	80029ac <HAL_DMA_IRQHandler+0x68c>
 8002868:	f8da 3048 	ldr.w	r3, [sl, #72]	; 0x48
 800286c:	2b00      	cmp	r3, #0
 800286e:	f47f af4a 	bne.w	8002706 <HAL_DMA_IRQHandler+0x3e6>
 8002872:	b002      	add	sp, #8
 8002874:	e8bd 87f0 	ldmia.w	sp!, {r4, r5, r6, r7, r8, r9, sl, pc}
 8002878:	40020010 	.word	0x40020010
 800287c:	40020028 	.word	0x40020028
 8002880:	40020040 	.word	0x40020040
 8002884:	400204b8 	.word	0x400204b8
 8002888:	1b4e81b5 	.word	0x1b4e81b5
 800288c:	40020058 	.word	0x40020058
 8002890:	58025408 	.word	0x58025408
 8002894:	5802541c 	.word	0x5802541c
 8002898:	58025430 	.word	0x58025430
 800289c:	58025494 	.word	0x58025494
 80028a0:	40020070 	.word	0x40020070
 80028a4:	681b      	ldr	r3, [r3, #0]
 80028a6:	031b      	lsls	r3, r3, #12
 80028a8:	f57f ae78 	bpl.w	800259c <HAL_DMA_IRQHandler+0x27c>
 80028ac:	f8da 3048 	ldr.w	r3, [sl, #72]	; 0x48
 80028b0:	2b00      	cmp	r3, #0
 80028b2:	f47f ae85 	bne.w	80025c0 <HAL_DMA_IRQHandler+0x2a0>
 80028b6:	e687      	b.n	80025c8 <HAL_DMA_IRQHandler+0x2a8>
 80028b8:	f023 0316 	bic.w	r3, r3, #22
 80028bc:	f8da 5040 	ldr.w	r5, [sl, #64]	; 0x40
 80028c0:	6013      	str	r3, [r2, #0]
 80028c2:	6953      	ldr	r3, [r2, #20]
 80028c4:	f023 0380 	bic.w	r3, r3, #128	; 0x80
 80028c8:	6153      	str	r3, [r2, #20]
 80028ca:	b33d      	cbz	r5, 800291c <HAL_DMA_IRQHandler+0x5fc>
 80028cc:	6813      	ldr	r3, [r2, #0]
 80028ce:	f023 0308 	bic.w	r3, r3, #8
 80028d2:	6013      	str	r3, [r2, #0]
 80028d4:	233f      	movs	r3, #63	; 0x3f
 80028d6:	2501      	movs	r5, #1
 80028d8:	2200      	movs	r2, #0
 80028da:	fa03 f101 	lsl.w	r1, r3, r1
 80028de:	f8da 3050 	ldr.w	r3, [sl, #80]	; 0x50
 80028e2:	60a1      	str	r1, [r4, #8]
 80028e4:	f88a 5035 	strb.w	r5, [sl, #53]	; 0x35
 80028e8:	f88a 2034 	strb.w	r2, [sl, #52]	; 0x34
 80028ec:	2b00      	cmp	r3, #0
 80028ee:	f47f af0a 	bne.w	8002706 <HAL_DMA_IRQHandler+0x3e6>
 80028f2:	e7be      	b.n	8002872 <HAL_DMA_IRQHandler+0x552>
 80028f4:	f413 7380 	ands.w	r3, r3, #256	; 0x100
 80028f8:	f47f aed2 	bne.w	80026a0 <HAL_DMA_IRQHandler+0x380>
 80028fc:	6811      	ldr	r1, [r2, #0]
 80028fe:	2401      	movs	r4, #1
 8002900:	f021 0110 	bic.w	r1, r1, #16
 8002904:	6011      	str	r1, [r2, #0]
 8002906:	f88a 3034 	strb.w	r3, [sl, #52]	; 0x34
 800290a:	f88a 4035 	strb.w	r4, [sl, #53]	; 0x35
 800290e:	e6c7      	b.n	80026a0 <HAL_DMA_IRQHandler+0x380>
 8002910:	f8da 3044 	ldr.w	r3, [sl, #68]	; 0x44
 8002914:	2b00      	cmp	r3, #0
 8002916:	f47f aec6 	bne.w	80026a6 <HAL_DMA_IRQHandler+0x386>
 800291a:	e6c6      	b.n	80026aa <HAL_DMA_IRQHandler+0x38a>
 800291c:	f8da 3048 	ldr.w	r3, [sl, #72]	; 0x48
 8002920:	2b00      	cmp	r3, #0
 8002922:	d1d3      	bne.n	80028cc <HAL_DMA_IRQHandler+0x5ac>
 8002924:	e7d6      	b.n	80028d4 <HAL_DMA_IRQHandler+0x5b4>
 8002926:	2210      	movs	r2, #16
 8002928:	681e      	ldr	r6, [r3, #0]
 800292a:	fa02 fc0c 	lsl.w	ip, r2, ip
 800292e:	ea17 0f0c 	tst.w	r7, ip
 8002932:	f43f ae49 	beq.w	80025c8 <HAL_DMA_IRQHandler+0x2a8>
 8002936:	681a      	ldr	r2, [r3, #0]
 8002938:	f3c2 0280 	ubfx	r2, r2, #2, #1
 800293c:	e620      	b.n	8002580 <HAL_DMA_IRQHandler+0x260>
 800293e:	2602      	movs	r6, #2
 8002940:	40ae      	lsls	r6, r5
 8002942:	420e      	tst	r6, r1
 8002944:	d010      	beq.n	8002968 <HAL_DMA_IRQHandler+0x648>
 8002946:	0797      	lsls	r7, r2, #30
 8002948:	d50e      	bpl.n	8002968 <HAL_DMA_IRQHandler+0x648>
 800294a:	6066      	str	r6, [r4, #4]
 800294c:	0414      	lsls	r4, r2, #16
 800294e:	d533      	bpl.n	80029b8 <HAL_DMA_IRQHandler+0x698>
 8002950:	03d0      	lsls	r0, r2, #15
 8002952:	d43d      	bmi.n	80029d0 <HAL_DMA_IRQHandler+0x6b0>
 8002954:	f8da 3044 	ldr.w	r3, [sl, #68]	; 0x44
 8002958:	2b00      	cmp	r3, #0
 800295a:	f47f aed4 	bne.w	8002706 <HAL_DMA_IRQHandler+0x3e6>
 800295e:	e788      	b.n	8002872 <HAL_DMA_IRQHandler+0x552>
 8002960:	6813      	ldr	r3, [r2, #0]
 8002962:	f3c3 0340 	ubfx	r3, r3, #1, #1
 8002966:	e68b      	b.n	8002680 <HAL_DMA_IRQHandler+0x360>
 8002968:	2608      	movs	r6, #8
 800296a:	40ae      	lsls	r6, r5
 800296c:	420e      	tst	r6, r1
 800296e:	d080      	beq.n	8002872 <HAL_DMA_IRQHandler+0x552>
 8002970:	0711      	lsls	r1, r2, #28
 8002972:	f57f af7e 	bpl.w	8002872 <HAL_DMA_IRQHandler+0x552>
 8002976:	6819      	ldr	r1, [r3, #0]
 8002978:	2201      	movs	r2, #1
 800297a:	2600      	movs	r6, #0
 800297c:	f021 010e 	bic.w	r1, r1, #14
 8002980:	fa02 f505 	lsl.w	r5, r2, r5
 8002984:	6019      	str	r1, [r3, #0]
 8002986:	f8da 304c 	ldr.w	r3, [sl, #76]	; 0x4c
 800298a:	6065      	str	r5, [r4, #4]
 800298c:	f8ca 2054 	str.w	r2, [sl, #84]	; 0x54
 8002990:	f88a 6034 	strb.w	r6, [sl, #52]	; 0x34
 8002994:	f88a 2035 	strb.w	r2, [sl, #53]	; 0x35
 8002998:	2b00      	cmp	r3, #0
 800299a:	f47f aeb4 	bne.w	8002706 <HAL_DMA_IRQHandler+0x3e6>
 800299e:	e768      	b.n	8002872 <HAL_DMA_IRQHandler+0x552>
 80029a0:	0692      	lsls	r2, r2, #26
 80029a2:	d403      	bmi.n	80029ac <HAL_DMA_IRQHandler+0x68c>
 80029a4:	681a      	ldr	r2, [r3, #0]
 80029a6:	f022 0204 	bic.w	r2, r2, #4
 80029aa:	601a      	str	r2, [r3, #0]
 80029ac:	f8da 3040 	ldr.w	r3, [sl, #64]	; 0x40
 80029b0:	2b00      	cmp	r3, #0
 80029b2:	f47f aea8 	bne.w	8002706 <HAL_DMA_IRQHandler+0x3e6>
 80029b6:	e75c      	b.n	8002872 <HAL_DMA_IRQHandler+0x552>
 80029b8:	f012 0220 	ands.w	r2, r2, #32
 80029bc:	d108      	bne.n	80029d0 <HAL_DMA_IRQHandler+0x6b0>
 80029be:	6819      	ldr	r1, [r3, #0]
 80029c0:	2401      	movs	r4, #1
 80029c2:	f021 010a 	bic.w	r1, r1, #10
 80029c6:	6019      	str	r1, [r3, #0]
 80029c8:	f88a 2034 	strb.w	r2, [sl, #52]	; 0x34
 80029cc:	f88a 4035 	strb.w	r4, [sl, #53]	; 0x35
 80029d0:	f8da 303c 	ldr.w	r3, [sl, #60]	; 0x3c
 80029d4:	2b00      	cmp	r3, #0
 80029d6:	f47f ae96 	bne.w	8002706 <HAL_DMA_IRQHandler+0x3e6>
 80029da:	e74a      	b.n	8002872 <HAL_DMA_IRQHandler+0x552>

080029dc <HAL_GPIO_Init>:
 80029dc:	e92d 4ff0 	stmdb	sp!, {r4, r5, r6, r7, r8, r9, sl, fp, lr}
 80029e0:	680d      	ldr	r5, [r1, #0]
 80029e2:	b085      	sub	sp, #20
 80029e4:	2d00      	cmp	r5, #0
 80029e6:	f000 80a3 	beq.w	8002b30 <HAL_GPIO_Init+0x154>
 80029ea:	2300      	movs	r3, #0
 80029ec:	f8df b24c 	ldr.w	fp, [pc, #588]	; 8002c3c <HAL_GPIO_Init+0x260>
 80029f0:	9101      	str	r1, [sp, #4]
 80029f2:	2201      	movs	r2, #1
 80029f4:	409a      	lsls	r2, r3
 80029f6:	ea12 0a05 	ands.w	sl, r2, r5
 80029fa:	f000 8094 	beq.w	8002b26 <HAL_GPIO_Init+0x14a>
 80029fe:	9901      	ldr	r1, [sp, #4]
 8002a00:	684f      	ldr	r7, [r1, #4]
 8002a02:	f007 0c03 	and.w	ip, r7, #3
 8002a06:	f10c 34ff 	add.w	r4, ip, #4294967295
 8002a0a:	2c01      	cmp	r4, #1
 8002a0c:	ea4f 0443 	mov.w	r4, r3, lsl #1
 8002a10:	f240 8091 	bls.w	8002b36 <HAL_GPIO_Init+0x15a>
 8002a14:	f1bc 0f03 	cmp.w	ip, #3
 8002a18:	f040 80d0 	bne.w	8002bbc <HAL_GPIO_Init+0x1e0>
 8002a1c:	fa0c f404 	lsl.w	r4, ip, r4
 8002a20:	43e6      	mvns	r6, r4
 8002a22:	6802      	ldr	r2, [r0, #0]
 8002a24:	f417 3f40 	tst.w	r7, #196608	; 0x30000
 8002a28:	ea06 0602 	and.w	r6, r6, r2
 8002a2c:	ea44 0406 	orr.w	r4, r4, r6
 8002a30:	6004      	str	r4, [r0, #0]
 8002a32:	d078      	beq.n	8002b26 <HAL_GPIO_Init+0x14a>
 8002a34:	4a7b      	ldr	r2, [pc, #492]	; (8002c24 <HAL_GPIO_Init+0x248>)
 8002a36:	f023 0e03 	bic.w	lr, r3, #3
 8002a3a:	240f      	movs	r4, #15
 8002a3c:	f8d2 60f4 	ldr.w	r6, [r2, #244]	; 0xf4
 8002a40:	4611      	mov	r1, r2
 8002a42:	f003 0203 	and.w	r2, r3, #3
 8002a46:	f046 0c02 	orr.w	ip, r6, #2
 8002a4a:	4e77      	ldr	r6, [pc, #476]	; (8002c28 <HAL_GPIO_Init+0x24c>)
 8002a4c:	0092      	lsls	r2, r2, #2
 8002a4e:	f8c1 c0f4 	str.w	ip, [r1, #244]	; 0xf4
 8002a52:	4476      	add	r6, lr
 8002a54:	f8d1 c0f4 	ldr.w	ip, [r1, #244]	; 0xf4
 8002a58:	f5a1 4188 	sub.w	r1, r1, #17408	; 0x4400
 8002a5c:	4094      	lsls	r4, r2
 8002a5e:	f00c 0c02 	and.w	ip, ip, #2
 8002a62:	4288      	cmp	r0, r1
 8002a64:	f8cd c00c 	str.w	ip, [sp, #12]
 8002a68:	f8dd c00c 	ldr.w	ip, [sp, #12]
 8002a6c:	f8d6 c008 	ldr.w	ip, [r6, #8]
 8002a70:	ea2c 0404 	bic.w	r4, ip, r4
 8002a74:	d02e      	beq.n	8002ad4 <HAL_GPIO_Init+0xf8>
 8002a76:	f501 6180 	add.w	r1, r1, #1024	; 0x400
 8002a7a:	4288      	cmp	r0, r1
 8002a7c:	f000 80a8 	beq.w	8002bd0 <HAL_GPIO_Init+0x1f4>
 8002a80:	496a      	ldr	r1, [pc, #424]	; (8002c2c <HAL_GPIO_Init+0x250>)
 8002a82:	4288      	cmp	r0, r1
 8002a84:	f000 80aa 	beq.w	8002bdc <HAL_GPIO_Init+0x200>
 8002a88:	4969      	ldr	r1, [pc, #420]	; (8002c30 <HAL_GPIO_Init+0x254>)
 8002a8a:	4288      	cmp	r0, r1
 8002a8c:	f000 809a 	beq.w	8002bc4 <HAL_GPIO_Init+0x1e8>
 8002a90:	4968      	ldr	r1, [pc, #416]	; (8002c34 <HAL_GPIO_Init+0x258>)
 8002a92:	4288      	cmp	r0, r1
 8002a94:	f000 80ae 	beq.w	8002bf4 <HAL_GPIO_Init+0x218>
 8002a98:	4967      	ldr	r1, [pc, #412]	; (8002c38 <HAL_GPIO_Init+0x25c>)
 8002a9a:	4288      	cmp	r0, r1
 8002a9c:	f000 80b0 	beq.w	8002c00 <HAL_GPIO_Init+0x224>
 8002aa0:	f8df c19c 	ldr.w	ip, [pc, #412]	; 8002c40 <HAL_GPIO_Init+0x264>
 8002aa4:	4560      	cmp	r0, ip
 8002aa6:	f000 809f 	beq.w	8002be8 <HAL_GPIO_Init+0x20c>
 8002aaa:	f8df c198 	ldr.w	ip, [pc, #408]	; 8002c44 <HAL_GPIO_Init+0x268>
 8002aae:	4560      	cmp	r0, ip
 8002ab0:	f000 80ac 	beq.w	8002c0c <HAL_GPIO_Init+0x230>
 8002ab4:	f8df c190 	ldr.w	ip, [pc, #400]	; 8002c48 <HAL_GPIO_Init+0x26c>
 8002ab8:	4560      	cmp	r0, ip
 8002aba:	f000 80ad 	beq.w	8002c18 <HAL_GPIO_Init+0x23c>
 8002abe:	f8df c18c 	ldr.w	ip, [pc, #396]	; 8002c4c <HAL_GPIO_Init+0x270>
 8002ac2:	4560      	cmp	r0, ip
 8002ac4:	bf0c      	ite	eq
 8002ac6:	f04f 0c09 	moveq.w	ip, #9
 8002aca:	f04f 0c0a 	movne.w	ip, #10
 8002ace:	fa0c f202 	lsl.w	r2, ip, r2
 8002ad2:	4314      	orrs	r4, r2
 8002ad4:	f04f 42b0 	mov.w	r2, #1476395008	; 0x58000000
 8002ad8:	60b4      	str	r4, [r6, #8]
 8002ada:	ea6f 060a 	mvn.w	r6, sl
 8002ade:	6814      	ldr	r4, [r2, #0]
 8002ae0:	02fa      	lsls	r2, r7, #11
 8002ae2:	f04f 42b0 	mov.w	r2, #1476395008	; 0x58000000
 8002ae6:	bf54      	ite	pl
 8002ae8:	4034      	andpl	r4, r6
 8002aea:	ea4a 0404 	orrmi.w	r4, sl, r4
 8002aee:	02b9      	lsls	r1, r7, #10
 8002af0:	6014      	str	r4, [r2, #0]
 8002af2:	6854      	ldr	r4, [r2, #4]
 8002af4:	f04f 42b0 	mov.w	r2, #1476395008	; 0x58000000
 8002af8:	bf54      	ite	pl
 8002afa:	4034      	andpl	r4, r6
 8002afc:	ea4a 0404 	orrmi.w	r4, sl, r4
 8002b00:	6054      	str	r4, [r2, #4]
 8002b02:	03ba      	lsls	r2, r7, #14
 8002b04:	f8db 4004 	ldr.w	r4, [fp, #4]
 8002b08:	bf54      	ite	pl
 8002b0a:	4034      	andpl	r4, r6
 8002b0c:	ea4a 0404 	orrmi.w	r4, sl, r4
 8002b10:	03f9      	lsls	r1, r7, #15
 8002b12:	f8cb 4004 	str.w	r4, [fp, #4]
 8002b16:	f8db 2000 	ldr.w	r2, [fp]
 8002b1a:	bf54      	ite	pl
 8002b1c:	4032      	andpl	r2, r6
 8002b1e:	ea4a 0202 	orrmi.w	r2, sl, r2
 8002b22:	f8cb 2000 	str.w	r2, [fp]
 8002b26:	3301      	adds	r3, #1
 8002b28:	fa35 f203 	lsrs.w	r2, r5, r3
 8002b2c:	f47f af61 	bne.w	80029f2 <HAL_GPIO_Init+0x16>
 8002b30:	b005      	add	sp, #20
 8002b32:	e8bd 8ff0 	ldmia.w	sp!, {r4, r5, r6, r7, r8, r9, sl, fp, pc}
 8002b36:	2603      	movs	r6, #3
 8002b38:	f8d0 8008 	ldr.w	r8, [r0, #8]
 8002b3c:	68c9      	ldr	r1, [r1, #12]
 8002b3e:	f3c7 1e00 	ubfx	lr, r7, #4, #1
 8002b42:	40a6      	lsls	r6, r4
 8002b44:	fa01 f904 	lsl.w	r9, r1, r4
 8002b48:	fa0e fe03 	lsl.w	lr, lr, r3
 8002b4c:	ea28 0806 	bic.w	r8, r8, r6
 8002b50:	43f6      	mvns	r6, r6
 8002b52:	ea49 0808 	orr.w	r8, r9, r8
 8002b56:	f8c0 8008 	str.w	r8, [r0, #8]
 8002b5a:	f8d0 8004 	ldr.w	r8, [r0, #4]
 8002b5e:	ea28 0202 	bic.w	r2, r8, r2
 8002b62:	ea4e 0202 	orr.w	r2, lr, r2
 8002b66:	6042      	str	r2, [r0, #4]
 8002b68:	68c2      	ldr	r2, [r0, #12]
 8002b6a:	f1bc 0f02 	cmp.w	ip, #2
 8002b6e:	ea02 0e06 	and.w	lr, r2, r6
 8002b72:	9a01      	ldr	r2, [sp, #4]
 8002b74:	6892      	ldr	r2, [r2, #8]
 8002b76:	fa02 f204 	lsl.w	r2, r2, r4
 8002b7a:	ea42 020e 	orr.w	r2, r2, lr
 8002b7e:	60c2      	str	r2, [r0, #12]
 8002b80:	d002      	beq.n	8002b88 <HAL_GPIO_Init+0x1ac>
 8002b82:	fa0c f404 	lsl.w	r4, ip, r4
 8002b86:	e74c      	b.n	8002a22 <HAL_GPIO_Init+0x46>
 8002b88:	08da      	lsrs	r2, r3, #3
 8002b8a:	f003 0e07 	and.w	lr, r3, #7
 8002b8e:	f04f 080f 	mov.w	r8, #15
 8002b92:	fa0c f404 	lsl.w	r4, ip, r4
 8002b96:	ea4f 0e8e 	mov.w	lr, lr, lsl #2
 8002b9a:	eb00 0c82 	add.w	ip, r0, r2, lsl #2
 8002b9e:	9a01      	ldr	r2, [sp, #4]
 8002ba0:	fa08 f80e 	lsl.w	r8, r8, lr
 8002ba4:	6912      	ldr	r2, [r2, #16]
 8002ba6:	f8dc 9020 	ldr.w	r9, [ip, #32]
 8002baa:	fa02 f20e 	lsl.w	r2, r2, lr
 8002bae:	ea29 0808 	bic.w	r8, r9, r8
 8002bb2:	ea42 0208 	orr.w	r2, r2, r8
 8002bb6:	f8cc 2020 	str.w	r2, [ip, #32]
 8002bba:	e732      	b.n	8002a22 <HAL_GPIO_Init+0x46>
 8002bbc:	2603      	movs	r6, #3
 8002bbe:	40a6      	lsls	r6, r4
 8002bc0:	43f6      	mvns	r6, r6
 8002bc2:	e7d1      	b.n	8002b68 <HAL_GPIO_Init+0x18c>
 8002bc4:	f04f 0c03 	mov.w	ip, #3
 8002bc8:	fa0c f202 	lsl.w	r2, ip, r2
 8002bcc:	4314      	orrs	r4, r2
 8002bce:	e781      	b.n	8002ad4 <HAL_GPIO_Init+0xf8>
 8002bd0:	f04f 0c01 	mov.w	ip, #1
 8002bd4:	fa0c f202 	lsl.w	r2, ip, r2
 8002bd8:	4314      	orrs	r4, r2
 8002bda:	e77b      	b.n	8002ad4 <HAL_GPIO_Init+0xf8>
 8002bdc:	f04f 0c02 	mov.w	ip, #2
 8002be0:	fa0c f202 	lsl.w	r2, ip, r2
 8002be4:	4314      	orrs	r4, r2
 8002be6:	e775      	b.n	8002ad4 <HAL_GPIO_Init+0xf8>
 8002be8:	f04f 0c06 	mov.w	ip, #6
 8002bec:	fa0c f202 	lsl.w	r2, ip, r2
 8002bf0:	4314      	orrs	r4, r2
 8002bf2:	e76f      	b.n	8002ad4 <HAL_GPIO_Init+0xf8>
 8002bf4:	f04f 0c04 	mov.w	ip, #4
 8002bf8:	fa0c f202 	lsl.w	r2, ip, r2
 8002bfc:	4314      	orrs	r4, r2
 8002bfe:	e769      	b.n	8002ad4 <HAL_GPIO_Init+0xf8>
 8002c00:	f04f 0c05 	mov.w	ip, #5
 8002c04:	fa0c f202 	lsl.w	r2, ip, r2
 8002c08:	4314      	orrs	r4, r2
 8002c0a:	e763      	b.n	8002ad4 <HAL_GPIO_Init+0xf8>
 8002c0c:	f04f 0c07 	mov.w	ip, #7
 8002c10:	fa0c f202 	lsl.w	r2, ip, r2
 8002c14:	4314      	orrs	r4, r2
 8002c16:	e75d      	b.n	8002ad4 <HAL_GPIO_Init+0xf8>
 8002c18:	f04f 0c08 	mov.w	ip, #8
 8002c1c:	fa0c f202 	lsl.w	r2, ip, r2
 8002c20:	4314      	orrs	r4, r2
 8002c22:	e757      	b.n	8002ad4 <HAL_GPIO_Init+0xf8>
 8002c24:	58024400 	.word	0x58024400
 8002c28:	58000400 	.word	0x58000400
 8002c2c:	58020800 	.word	0x58020800
 8002c30:	58020c00 	.word	0x58020c00
 8002c34:	58021000 	.word	0x58021000
 8002c38:	58021400 	.word	0x58021400
 8002c3c:	58000080 	.word	0x58000080
 8002c40:	58021800 	.word	0x58021800
 8002c44:	58021c00 	.word	0x58021c00
 8002c48:	58022000 	.word	0x58022000
 8002c4c:	58022400 	.word	0x58022400

08002c50 <HAL_GPIO_WritePin>:
 8002c50:	b902      	cbnz	r2, 8002c54 <HAL_GPIO_WritePin+0x4>
 8002c52:	0409      	lsls	r1, r1, #16
 8002c54:	6181      	str	r1, [r0, #24]
 8002c56:	4770      	bx	lr

08002c58 <HAL_GPIO_EXTI_Callback>:
 8002c58:	4770      	bx	lr
 8002c5a:	bf00      	nop

08002c5c <HAL_GPIO_EXTI_IRQHandler>:
 8002c5c:	f04f 42b0 	mov.w	r2, #1476395008	; 0x58000000
 8002c60:	f8d2 1088 	ldr.w	r1, [r2, #136]	; 0x88
 8002c64:	4201      	tst	r1, r0
 8002c66:	d100      	bne.n	8002c6a <HAL_GPIO_EXTI_IRQHandler+0xe>
 8002c68:	4770      	bx	lr
 8002c6a:	b508      	push	{r3, lr}
 8002c6c:	f8c2 0088 	str.w	r0, [r2, #136]	; 0x88
 8002c70:	f7ff fff2 	bl	8002c58 <HAL_GPIO_EXTI_Callback>
 8002c74:	bd08      	pop	{r3, pc}
 8002c76:	bf00      	nop

08002c78 <HAL_PWREx_ConfigSupply>:
 8002c78:	b538      	push	{r3, r4, r5, lr}
 8002c7a:	4b11      	ldr	r3, [pc, #68]	; (8002cc0 <HAL_PWREx_ConfigSupply+0x48>)
 8002c7c:	68da      	ldr	r2, [r3, #12]
 8002c7e:	0752      	lsls	r2, r2, #29
 8002c80:	d406      	bmi.n	8002c90 <HAL_PWREx_ConfigSupply+0x18>
 8002c82:	68db      	ldr	r3, [r3, #12]
 8002c84:	f003 0307 	and.w	r3, r3, #7
 8002c88:	1a18      	subs	r0, r3, r0
 8002c8a:	bf18      	it	ne
 8002c8c:	2001      	movne	r0, #1
 8002c8e:	bd38      	pop	{r3, r4, r5, pc}
 8002c90:	68da      	ldr	r2, [r3, #12]
 8002c92:	461d      	mov	r5, r3
 8002c94:	f022 0207 	bic.w	r2, r2, #7
 8002c98:	4310      	orrs	r0, r2
 8002c9a:	60d8      	str	r0, [r3, #12]
 8002c9c:	f7fd fcd8 	bl	8000650 <HAL_GetTick>
 8002ca0:	4604      	mov	r4, r0
 8002ca2:	e005      	b.n	8002cb0 <HAL_PWREx_ConfigSupply+0x38>
 8002ca4:	f7fd fcd4 	bl	8000650 <HAL_GetTick>
 8002ca8:	1b00      	subs	r0, r0, r4
 8002caa:	f5b0 7f7a 	cmp.w	r0, #1000	; 0x3e8
 8002cae:	d804      	bhi.n	8002cba <HAL_PWREx_ConfigSupply+0x42>
 8002cb0:	686b      	ldr	r3, [r5, #4]
 8002cb2:	049b      	lsls	r3, r3, #18
 8002cb4:	d5f6      	bpl.n	8002ca4 <HAL_PWREx_ConfigSupply+0x2c>
 8002cb6:	2000      	movs	r0, #0
 8002cb8:	bd38      	pop	{r3, r4, r5, pc}
 8002cba:	2001      	movs	r0, #1
 8002cbc:	bd38      	pop	{r3, r4, r5, pc}
 8002cbe:	bf00      	nop
 8002cc0:	58024800 	.word	0x58024800

08002cc4 <HAL_RCC_GetSysClockFreq.part.0>:
 8002cc4:	4b45      	ldr	r3, [pc, #276]	; (8002ddc <HAL_RCC_GetSysClockFreq.part.0+0x118>)
 8002cc6:	b430      	push	{r4, r5}
 8002cc8:	6a9a      	ldr	r2, [r3, #40]	; 0x28
 8002cca:	6a9c      	ldr	r4, [r3, #40]	; 0x28
 8002ccc:	6ad9      	ldr	r1, [r3, #44]	; 0x2c
 8002cce:	f414 7f7c 	tst.w	r4, #1008	; 0x3f0
 8002cd2:	f3c4 1005 	ubfx	r0, r4, #4, #6
 8002cd6:	6b5d      	ldr	r5, [r3, #52]	; 0x34
 8002cd8:	d038      	beq.n	8002d4c <HAL_RCC_GetSysClockFreq.part.0+0x88>
 8002cda:	f3c5 05cc 	ubfx	r5, r5, #3, #13
 8002cde:	f001 0101 	and.w	r1, r1, #1
 8002ce2:	f002 0203 	and.w	r2, r2, #3
 8002ce6:	fb01 f105 	mul.w	r1, r1, r5
 8002cea:	2a01      	cmp	r2, #1
 8002cec:	ee07 1a90 	vmov	s15, r1
 8002cf0:	eeb8 7ae7 	vcvt.f32.s32	s14, s15
 8002cf4:	d002      	beq.n	8002cfc <HAL_RCC_GetSysClockFreq.part.0+0x38>
 8002cf6:	2a02      	cmp	r2, #2
 8002cf8:	d04e      	beq.n	8002d98 <HAL_RCC_GetSysClockFreq.part.0+0xd4>
 8002cfa:	b34a      	cbz	r2, 8002d50 <HAL_RCC_GetSysClockFreq.part.0+0x8c>
 8002cfc:	ee07 0a90 	vmov	s15, r0
 8002d00:	eddf 6a37 	vldr	s13, [pc, #220]	; 8002de0 <HAL_RCC_GetSysClockFreq.part.0+0x11c>
 8002d04:	eef8 7ae7 	vcvt.f32.s32	s15, s15
 8002d08:	6b1b      	ldr	r3, [r3, #48]	; 0x30
 8002d0a:	ee86 6aa7 	vdiv.f32	s12, s13, s15
 8002d0e:	ed9f 5a35 	vldr	s10, [pc, #212]	; 8002de4 <HAL_RCC_GetSysClockFreq.part.0+0x120>
 8002d12:	f3c3 0308 	ubfx	r3, r3, #0, #9
 8002d16:	ee06 3a90 	vmov	s13, r3
 8002d1a:	eef7 5a00 	vmov.f32	s11, #112	; 0x3f800000  1.0
 8002d1e:	eef8 6ae6 	vcvt.f32.s32	s13, s13
 8002d22:	eee7 6a05 	vfma.f32	s13, s14, s10
 8002d26:	ee76 6aa5 	vadd.f32	s13, s13, s11
 8002d2a:	ee66 6a26 	vmul.f32	s13, s12, s13
 8002d2e:	4b2b      	ldr	r3, [pc, #172]	; (8002ddc <HAL_RCC_GetSysClockFreq.part.0+0x118>)
 8002d30:	6b1b      	ldr	r3, [r3, #48]	; 0x30
 8002d32:	f3c3 2346 	ubfx	r3, r3, #9, #7
 8002d36:	3301      	adds	r3, #1
 8002d38:	ee07 3a90 	vmov	s15, r3
 8002d3c:	eeb8 7ae7 	vcvt.f32.s32	s14, s15
 8002d40:	eec6 7a87 	vdiv.f32	s15, s13, s14
 8002d44:	eefc 7ae7 	vcvt.u32.f32	s15, s15
 8002d48:	ee17 0a90 	vmov	r0, s15
 8002d4c:	bc30      	pop	{r4, r5}
 8002d4e:	4770      	bx	lr
 8002d50:	681a      	ldr	r2, [r3, #0]
 8002d52:	0692      	lsls	r2, r2, #26
 8002d54:	d527      	bpl.n	8002da6 <HAL_RCC_GetSysClockFreq.part.0+0xe2>
 8002d56:	6819      	ldr	r1, [r3, #0]
 8002d58:	ee07 0a90 	vmov	s15, r0
 8002d5c:	4a22      	ldr	r2, [pc, #136]	; (8002de8 <HAL_RCC_GetSysClockFreq.part.0+0x124>)
 8002d5e:	eeb7 5a00 	vmov.f32	s10, #112	; 0x3f800000  1.0
 8002d62:	f3c1 01c1 	ubfx	r1, r1, #3, #2
 8002d66:	eef8 7ae7 	vcvt.f32.s32	s15, s15
 8002d6a:	6b1b      	ldr	r3, [r3, #48]	; 0x30
 8002d6c:	40ca      	lsrs	r2, r1
 8002d6e:	eddf 4a1d 	vldr	s9, [pc, #116]	; 8002de4 <HAL_RCC_GetSysClockFreq.part.0+0x120>
 8002d72:	f3c3 0308 	ubfx	r3, r3, #0, #9
 8002d76:	ee06 2a10 	vmov	s12, r2
 8002d7a:	ee06 3a90 	vmov	s13, r3
 8002d7e:	eeb8 6ac6 	vcvt.f32.s32	s12, s12
 8002d82:	eef8 6ae6 	vcvt.f32.s32	s13, s13
 8002d86:	eec6 5a27 	vdiv.f32	s11, s12, s15
 8002d8a:	eee7 6a24 	vfma.f32	s13, s14, s9
 8002d8e:	ee76 6a85 	vadd.f32	s13, s13, s10
 8002d92:	ee66 6aa5 	vmul.f32	s13, s13, s11
 8002d96:	e7ca      	b.n	8002d2e <HAL_RCC_GetSysClockFreq.part.0+0x6a>
 8002d98:	ee07 0a90 	vmov	s15, r0
 8002d9c:	eddf 6a13 	vldr	s13, [pc, #76]	; 8002dec <HAL_RCC_GetSysClockFreq.part.0+0x128>
 8002da0:	eef8 7ae7 	vcvt.f32.s32	s15, s15
 8002da4:	e7b0      	b.n	8002d08 <HAL_RCC_GetSysClockFreq.part.0+0x44>
 8002da6:	ee07 0a90 	vmov	s15, r0
 8002daa:	ed9f 5a11 	vldr	s10, [pc, #68]	; 8002df0 <HAL_RCC_GetSysClockFreq.part.0+0x12c>
 8002dae:	6b1b      	ldr	r3, [r3, #48]	; 0x30
 8002db0:	eeb7 6a00 	vmov.f32	s12, #112	; 0x3f800000  1.0
 8002db4:	eef8 7ae7 	vcvt.f32.s32	s15, s15
 8002db8:	eddf 5a0a 	vldr	s11, [pc, #40]	; 8002de4 <HAL_RCC_GetSysClockFreq.part.0+0x120>
 8002dbc:	f3c3 0308 	ubfx	r3, r3, #0, #9
 8002dc0:	eec5 6a27 	vdiv.f32	s13, s10, s15
 8002dc4:	ee07 3a90 	vmov	s15, r3
 8002dc8:	eef8 7ae7 	vcvt.f32.s32	s15, s15
 8002dcc:	eee7 7a25 	vfma.f32	s15, s14, s11
 8002dd0:	ee77 7a86 	vadd.f32	s15, s15, s12
 8002dd4:	ee66 6aa7 	vmul.f32	s13, s13, s15
 8002dd8:	e7a9      	b.n	8002d2e <HAL_RCC_GetSysClockFreq.part.0+0x6a>
 8002dda:	bf00      	nop
 8002ddc:	58024400 	.word	0x58024400
 8002de0:	4a742400 	.word	0x4a742400
 8002de4:	39000000 	.word	0x39000000
 8002de8:	03d09000 	.word	0x03d09000
 8002dec:	4bf42400 	.word	0x4bf42400
 8002df0:	4c742400 	.word	0x4c742400

08002df4 <HAL_RCC_OscConfig>:
 8002df4:	2800      	cmp	r0, #0
 8002df6:	f000 81f8 	beq.w	80031ea <HAL_RCC_OscConfig+0x3f6>
 8002dfa:	b5f8      	push	{r3, r4, r5, r6, r7, lr}
 8002dfc:	6803      	ldr	r3, [r0, #0]
 8002dfe:	4604      	mov	r4, r0
 8002e00:	07d9      	lsls	r1, r3, #31
 8002e02:	d52e      	bpl.n	8002e62 <HAL_RCC_OscConfig+0x6e>
 8002e04:	49a7      	ldr	r1, [pc, #668]	; (80030a4 <HAL_RCC_OscConfig+0x2b0>)
 8002e06:	690a      	ldr	r2, [r1, #16]
 8002e08:	6a89      	ldr	r1, [r1, #40]	; 0x28
 8002e0a:	f002 0238 	and.w	r2, r2, #56	; 0x38
 8002e0e:	2a10      	cmp	r2, #16
 8002e10:	f000 810d 	beq.w	800302e <HAL_RCC_OscConfig+0x23a>
 8002e14:	2a18      	cmp	r2, #24
 8002e16:	f000 8105 	beq.w	8003024 <HAL_RCC_OscConfig+0x230>
 8002e1a:	6863      	ldr	r3, [r4, #4]
 8002e1c:	f5b3 3f80 	cmp.w	r3, #65536	; 0x10000
 8002e20:	f000 8130 	beq.w	8003084 <HAL_RCC_OscConfig+0x290>
 8002e24:	2b00      	cmp	r3, #0
 8002e26:	f000 816e 	beq.w	8003106 <HAL_RCC_OscConfig+0x312>
 8002e2a:	f5b3 2fa0 	cmp.w	r3, #327680	; 0x50000
 8002e2e:	4b9d      	ldr	r3, [pc, #628]	; (80030a4 <HAL_RCC_OscConfig+0x2b0>)
 8002e30:	681a      	ldr	r2, [r3, #0]
 8002e32:	f000 827a 	beq.w	800332a <HAL_RCC_OscConfig+0x536>
 8002e36:	f422 3280 	bic.w	r2, r2, #65536	; 0x10000
 8002e3a:	601a      	str	r2, [r3, #0]
 8002e3c:	681a      	ldr	r2, [r3, #0]
 8002e3e:	f422 2280 	bic.w	r2, r2, #262144	; 0x40000
 8002e42:	601a      	str	r2, [r3, #0]
 8002e44:	f7fd fc04 	bl	8000650 <HAL_GetTick>
 8002e48:	4e96      	ldr	r6, [pc, #600]	; (80030a4 <HAL_RCC_OscConfig+0x2b0>)
 8002e4a:	4605      	mov	r5, r0
 8002e4c:	e005      	b.n	8002e5a <HAL_RCC_OscConfig+0x66>
 8002e4e:	f7fd fbff 	bl	8000650 <HAL_GetTick>
 8002e52:	1b40      	subs	r0, r0, r5
 8002e54:	2864      	cmp	r0, #100	; 0x64
 8002e56:	f200 8154 	bhi.w	8003102 <HAL_RCC_OscConfig+0x30e>
 8002e5a:	6833      	ldr	r3, [r6, #0]
 8002e5c:	039b      	lsls	r3, r3, #14
 8002e5e:	d5f6      	bpl.n	8002e4e <HAL_RCC_OscConfig+0x5a>
 8002e60:	6823      	ldr	r3, [r4, #0]
 8002e62:	0798      	lsls	r0, r3, #30
 8002e64:	f100 808e 	bmi.w	8002f84 <HAL_RCC_OscConfig+0x190>
 8002e68:	06d9      	lsls	r1, r3, #27
 8002e6a:	d534      	bpl.n	8002ed6 <HAL_RCC_OscConfig+0xe2>
 8002e6c:	4a8d      	ldr	r2, [pc, #564]	; (80030a4 <HAL_RCC_OscConfig+0x2b0>)
 8002e6e:	6913      	ldr	r3, [r2, #16]
 8002e70:	6a92      	ldr	r2, [r2, #40]	; 0x28
 8002e72:	f003 0338 	and.w	r3, r3, #56	; 0x38
 8002e76:	2b08      	cmp	r3, #8
 8002e78:	f000 80e9 	beq.w	800304e <HAL_RCC_OscConfig+0x25a>
 8002e7c:	2b18      	cmp	r3, #24
 8002e7e:	f000 80e1 	beq.w	8003044 <HAL_RCC_OscConfig+0x250>
 8002e82:	69e3      	ldr	r3, [r4, #28]
 8002e84:	2b00      	cmp	r3, #0
 8002e86:	f000 817b 	beq.w	8003180 <HAL_RCC_OscConfig+0x38c>
 8002e8a:	4b86      	ldr	r3, [pc, #536]	; (80030a4 <HAL_RCC_OscConfig+0x2b0>)
 8002e8c:	681a      	ldr	r2, [r3, #0]
 8002e8e:	461e      	mov	r6, r3
 8002e90:	f042 0280 	orr.w	r2, r2, #128	; 0x80
 8002e94:	601a      	str	r2, [r3, #0]
 8002e96:	f7fd fbdb 	bl	8000650 <HAL_GetTick>
 8002e9a:	4605      	mov	r5, r0
 8002e9c:	e005      	b.n	8002eaa <HAL_RCC_OscConfig+0xb6>
 8002e9e:	f7fd fbd7 	bl	8000650 <HAL_GetTick>
 8002ea2:	1b40      	subs	r0, r0, r5
 8002ea4:	2802      	cmp	r0, #2
 8002ea6:	f200 812c 	bhi.w	8003102 <HAL_RCC_OscConfig+0x30e>
 8002eaa:	6833      	ldr	r3, [r6, #0]
 8002eac:	05db      	lsls	r3, r3, #23
 8002eae:	d5f6      	bpl.n	8002e9e <HAL_RCC_OscConfig+0xaa>
 8002eb0:	f7fd fbd4 	bl	800065c <HAL_GetREVID>
 8002eb4:	f241 0303 	movw	r3, #4099	; 0x1003
 8002eb8:	4298      	cmp	r0, r3
 8002eba:	f200 8258 	bhi.w	800336e <HAL_RCC_OscConfig+0x57a>
 8002ebe:	6a22      	ldr	r2, [r4, #32]
 8002ec0:	6873      	ldr	r3, [r6, #4]
 8002ec2:	2a20      	cmp	r2, #32
 8002ec4:	f023 43f8 	bic.w	r3, r3, #2080374784	; 0x7c000000
 8002ec8:	bf0c      	ite	eq
 8002eca:	f043 4380 	orreq.w	r3, r3, #1073741824	; 0x40000000
 8002ece:	ea43 6382 	orrne.w	r3, r3, r2, lsl #26
 8002ed2:	6073      	str	r3, [r6, #4]
 8002ed4:	6823      	ldr	r3, [r4, #0]
 8002ed6:	071d      	lsls	r5, r3, #28
 8002ed8:	d517      	bpl.n	8002f0a <HAL_RCC_OscConfig+0x116>
 8002eda:	6963      	ldr	r3, [r4, #20]
 8002edc:	2b00      	cmp	r3, #0
 8002ede:	f000 8129 	beq.w	8003134 <HAL_RCC_OscConfig+0x340>
 8002ee2:	4b70      	ldr	r3, [pc, #448]	; (80030a4 <HAL_RCC_OscConfig+0x2b0>)
 8002ee4:	6f5a      	ldr	r2, [r3, #116]	; 0x74
 8002ee6:	461e      	mov	r6, r3
 8002ee8:	f042 0201 	orr.w	r2, r2, #1
 8002eec:	675a      	str	r2, [r3, #116]	; 0x74
 8002eee:	f7fd fbaf 	bl	8000650 <HAL_GetTick>
 8002ef2:	4605      	mov	r5, r0
 8002ef4:	e005      	b.n	8002f02 <HAL_RCC_OscConfig+0x10e>
 8002ef6:	f7fd fbab 	bl	8000650 <HAL_GetTick>
 8002efa:	1b40      	subs	r0, r0, r5
 8002efc:	2802      	cmp	r0, #2
 8002efe:	f200 8100 	bhi.w	8003102 <HAL_RCC_OscConfig+0x30e>
 8002f02:	6f73      	ldr	r3, [r6, #116]	; 0x74
 8002f04:	0798      	lsls	r0, r3, #30
 8002f06:	d5f6      	bpl.n	8002ef6 <HAL_RCC_OscConfig+0x102>
 8002f08:	6823      	ldr	r3, [r4, #0]
 8002f0a:	069a      	lsls	r2, r3, #26
 8002f0c:	d517      	bpl.n	8002f3e <HAL_RCC_OscConfig+0x14a>
 8002f0e:	69a3      	ldr	r3, [r4, #24]
 8002f10:	2b00      	cmp	r3, #0
 8002f12:	f000 8122 	beq.w	800315a <HAL_RCC_OscConfig+0x366>
 8002f16:	4b63      	ldr	r3, [pc, #396]	; (80030a4 <HAL_RCC_OscConfig+0x2b0>)
 8002f18:	681a      	ldr	r2, [r3, #0]
 8002f1a:	461e      	mov	r6, r3
 8002f1c:	f442 5280 	orr.w	r2, r2, #4096	; 0x1000
 8002f20:	601a      	str	r2, [r3, #0]
 8002f22:	f7fd fb95 	bl	8000650 <HAL_GetTick>
 8002f26:	4605      	mov	r5, r0
 8002f28:	e005      	b.n	8002f36 <HAL_RCC_OscConfig+0x142>
 8002f2a:	f7fd fb91 	bl	8000650 <HAL_GetTick>
 8002f2e:	1b40      	subs	r0, r0, r5
 8002f30:	2802      	cmp	r0, #2
 8002f32:	f200 80e6 	bhi.w	8003102 <HAL_RCC_OscConfig+0x30e>
 8002f36:	6833      	ldr	r3, [r6, #0]
 8002f38:	049f      	lsls	r7, r3, #18
 8002f3a:	d5f6      	bpl.n	8002f2a <HAL_RCC_OscConfig+0x136>
 8002f3c:	6823      	ldr	r3, [r4, #0]
 8002f3e:	0759      	lsls	r1, r3, #29
 8002f40:	f100 80a6 	bmi.w	8003090 <HAL_RCC_OscConfig+0x29c>
 8002f44:	6a60      	ldr	r0, [r4, #36]	; 0x24
 8002f46:	b1d8      	cbz	r0, 8002f80 <HAL_RCC_OscConfig+0x18c>
 8002f48:	4b56      	ldr	r3, [pc, #344]	; (80030a4 <HAL_RCC_OscConfig+0x2b0>)
 8002f4a:	691a      	ldr	r2, [r3, #16]
 8002f4c:	f002 0238 	and.w	r2, r2, #56	; 0x38
 8002f50:	2a18      	cmp	r2, #24
 8002f52:	f000 81bc 	beq.w	80032ce <HAL_RCC_OscConfig+0x4da>
 8002f56:	681a      	ldr	r2, [r3, #0]
 8002f58:	2802      	cmp	r0, #2
 8002f5a:	461d      	mov	r5, r3
 8002f5c:	f022 7280 	bic.w	r2, r2, #16777216	; 0x1000000
 8002f60:	601a      	str	r2, [r3, #0]
 8002f62:	f000 814e 	beq.w	8003202 <HAL_RCC_OscConfig+0x40e>
 8002f66:	f7fd fb73 	bl	8000650 <HAL_GetTick>
 8002f6a:	4604      	mov	r4, r0
 8002f6c:	e005      	b.n	8002f7a <HAL_RCC_OscConfig+0x186>
 8002f6e:	f7fd fb6f 	bl	8000650 <HAL_GetTick>
 8002f72:	1b00      	subs	r0, r0, r4
 8002f74:	2802      	cmp	r0, #2
 8002f76:	f200 80c4 	bhi.w	8003102 <HAL_RCC_OscConfig+0x30e>
 8002f7a:	682b      	ldr	r3, [r5, #0]
 8002f7c:	019b      	lsls	r3, r3, #6
 8002f7e:	d4f6      	bmi.n	8002f6e <HAL_RCC_OscConfig+0x17a>
 8002f80:	2000      	movs	r0, #0
 8002f82:	bdf8      	pop	{r3, r4, r5, r6, r7, pc}
 8002f84:	4a47      	ldr	r2, [pc, #284]	; (80030a4 <HAL_RCC_OscConfig+0x2b0>)
 8002f86:	6913      	ldr	r3, [r2, #16]
 8002f88:	6a92      	ldr	r2, [r2, #40]	; 0x28
 8002f8a:	f013 0338 	ands.w	r3, r3, #56	; 0x38
 8002f8e:	d12e      	bne.n	8002fee <HAL_RCC_OscConfig+0x1fa>
 8002f90:	4b44      	ldr	r3, [pc, #272]	; (80030a4 <HAL_RCC_OscConfig+0x2b0>)
 8002f92:	68e1      	ldr	r1, [r4, #12]
 8002f94:	681b      	ldr	r3, [r3, #0]
 8002f96:	075a      	lsls	r2, r3, #29
 8002f98:	d501      	bpl.n	8002f9e <HAL_RCC_OscConfig+0x1aa>
 8002f9a:	2900      	cmp	r1, #0
 8002f9c:	d050      	beq.n	8003040 <HAL_RCC_OscConfig+0x24c>
 8002f9e:	4a41      	ldr	r2, [pc, #260]	; (80030a4 <HAL_RCC_OscConfig+0x2b0>)
 8002fa0:	6813      	ldr	r3, [r2, #0]
 8002fa2:	4616      	mov	r6, r2
 8002fa4:	f023 0319 	bic.w	r3, r3, #25
 8002fa8:	430b      	orrs	r3, r1
 8002faa:	6013      	str	r3, [r2, #0]
 8002fac:	f7fd fb50 	bl	8000650 <HAL_GetTick>
 8002fb0:	4605      	mov	r5, r0
 8002fb2:	e005      	b.n	8002fc0 <HAL_RCC_OscConfig+0x1cc>
 8002fb4:	f7fd fb4c 	bl	8000650 <HAL_GetTick>
 8002fb8:	1b40      	subs	r0, r0, r5
 8002fba:	2802      	cmp	r0, #2
 8002fbc:	f200 80a1 	bhi.w	8003102 <HAL_RCC_OscConfig+0x30e>
 8002fc0:	6833      	ldr	r3, [r6, #0]
 8002fc2:	075b      	lsls	r3, r3, #29
 8002fc4:	d5f6      	bpl.n	8002fb4 <HAL_RCC_OscConfig+0x1c0>
 8002fc6:	f7fd fb49 	bl	800065c <HAL_GetREVID>
 8002fca:	f241 0303 	movw	r3, #4099	; 0x1003
 8002fce:	4298      	cmp	r0, r3
 8002fd0:	f200 8102 	bhi.w	80031d8 <HAL_RCC_OscConfig+0x3e4>
 8002fd4:	6922      	ldr	r2, [r4, #16]
 8002fd6:	6873      	ldr	r3, [r6, #4]
 8002fd8:	2a40      	cmp	r2, #64	; 0x40
 8002fda:	f423 337c 	bic.w	r3, r3, #258048	; 0x3f000
 8002fde:	bf0c      	ite	eq
 8002fe0:	f443 3300 	orreq.w	r3, r3, #131072	; 0x20000
 8002fe4:	ea43 3302 	orrne.w	r3, r3, r2, lsl #12
 8002fe8:	6073      	str	r3, [r6, #4]
 8002fea:	6823      	ldr	r3, [r4, #0]
 8002fec:	e73c      	b.n	8002e68 <HAL_RCC_OscConfig+0x74>
 8002fee:	2b18      	cmp	r3, #24
 8002ff0:	f000 80ee 	beq.w	80031d0 <HAL_RCC_OscConfig+0x3dc>
 8002ff4:	68e2      	ldr	r2, [r4, #12]
 8002ff6:	2a00      	cmp	r2, #0
 8002ff8:	f000 80d6 	beq.w	80031a8 <HAL_RCC_OscConfig+0x3b4>
 8002ffc:	4929      	ldr	r1, [pc, #164]	; (80030a4 <HAL_RCC_OscConfig+0x2b0>)
 8002ffe:	680b      	ldr	r3, [r1, #0]
 8003000:	460e      	mov	r6, r1
 8003002:	f023 0319 	bic.w	r3, r3, #25
 8003006:	4313      	orrs	r3, r2
 8003008:	600b      	str	r3, [r1, #0]
 800300a:	f7fd fb21 	bl	8000650 <HAL_GetTick>
 800300e:	4605      	mov	r5, r0
 8003010:	e004      	b.n	800301c <HAL_RCC_OscConfig+0x228>
 8003012:	f7fd fb1d 	bl	8000650 <HAL_GetTick>
 8003016:	1b40      	subs	r0, r0, r5
 8003018:	2802      	cmp	r0, #2
 800301a:	d872      	bhi.n	8003102 <HAL_RCC_OscConfig+0x30e>
 800301c:	6833      	ldr	r3, [r6, #0]
 800301e:	075f      	lsls	r7, r3, #29
 8003020:	d5f7      	bpl.n	8003012 <HAL_RCC_OscConfig+0x21e>
 8003022:	e7d0      	b.n	8002fc6 <HAL_RCC_OscConfig+0x1d2>
 8003024:	f001 0103 	and.w	r1, r1, #3
 8003028:	2902      	cmp	r1, #2
 800302a:	f47f aef6 	bne.w	8002e1a <HAL_RCC_OscConfig+0x26>
 800302e:	4a1d      	ldr	r2, [pc, #116]	; (80030a4 <HAL_RCC_OscConfig+0x2b0>)
 8003030:	6812      	ldr	r2, [r2, #0]
 8003032:	0392      	lsls	r2, r2, #14
 8003034:	f57f af15 	bpl.w	8002e62 <HAL_RCC_OscConfig+0x6e>
 8003038:	6862      	ldr	r2, [r4, #4]
 800303a:	2a00      	cmp	r2, #0
 800303c:	f47f af11 	bne.w	8002e62 <HAL_RCC_OscConfig+0x6e>
 8003040:	2001      	movs	r0, #1
 8003042:	bdf8      	pop	{r3, r4, r5, r6, r7, pc}
 8003044:	f002 0203 	and.w	r2, r2, #3
 8003048:	2a01      	cmp	r2, #1
 800304a:	f47f af1a 	bne.w	8002e82 <HAL_RCC_OscConfig+0x8e>
 800304e:	4b15      	ldr	r3, [pc, #84]	; (80030a4 <HAL_RCC_OscConfig+0x2b0>)
 8003050:	681b      	ldr	r3, [r3, #0]
 8003052:	05da      	lsls	r2, r3, #23
 8003054:	d502      	bpl.n	800305c <HAL_RCC_OscConfig+0x268>
 8003056:	69e3      	ldr	r3, [r4, #28]
 8003058:	2b80      	cmp	r3, #128	; 0x80
 800305a:	d1f1      	bne.n	8003040 <HAL_RCC_OscConfig+0x24c>
 800305c:	f7fd fafe 	bl	800065c <HAL_GetREVID>
 8003060:	f241 0303 	movw	r3, #4099	; 0x1003
 8003064:	4298      	cmp	r0, r3
 8003066:	f200 80c2 	bhi.w	80031ee <HAL_RCC_OscConfig+0x3fa>
 800306a:	6a22      	ldr	r2, [r4, #32]
 800306c:	2a20      	cmp	r2, #32
 800306e:	f000 8193 	beq.w	8003398 <HAL_RCC_OscConfig+0x5a4>
 8003072:	490c      	ldr	r1, [pc, #48]	; (80030a4 <HAL_RCC_OscConfig+0x2b0>)
 8003074:	684b      	ldr	r3, [r1, #4]
 8003076:	f023 43f8 	bic.w	r3, r3, #2080374784	; 0x7c000000
 800307a:	ea43 6382 	orr.w	r3, r3, r2, lsl #26
 800307e:	604b      	str	r3, [r1, #4]
 8003080:	6823      	ldr	r3, [r4, #0]
 8003082:	e728      	b.n	8002ed6 <HAL_RCC_OscConfig+0xe2>
 8003084:	4a07      	ldr	r2, [pc, #28]	; (80030a4 <HAL_RCC_OscConfig+0x2b0>)
 8003086:	6813      	ldr	r3, [r2, #0]
 8003088:	f443 3380 	orr.w	r3, r3, #65536	; 0x10000
 800308c:	6013      	str	r3, [r2, #0]
 800308e:	e6d9      	b.n	8002e44 <HAL_RCC_OscConfig+0x50>
 8003090:	4b05      	ldr	r3, [pc, #20]	; (80030a8 <HAL_RCC_OscConfig+0x2b4>)
 8003092:	681a      	ldr	r2, [r3, #0]
 8003094:	461e      	mov	r6, r3
 8003096:	f442 7280 	orr.w	r2, r2, #256	; 0x100
 800309a:	601a      	str	r2, [r3, #0]
 800309c:	f7fd fad8 	bl	8000650 <HAL_GetTick>
 80030a0:	4605      	mov	r5, r0
 80030a2:	e008      	b.n	80030b6 <HAL_RCC_OscConfig+0x2c2>
 80030a4:	58024400 	.word	0x58024400
 80030a8:	58024800 	.word	0x58024800
 80030ac:	f7fd fad0 	bl	8000650 <HAL_GetTick>
 80030b0:	1b40      	subs	r0, r0, r5
 80030b2:	2864      	cmp	r0, #100	; 0x64
 80030b4:	d825      	bhi.n	8003102 <HAL_RCC_OscConfig+0x30e>
 80030b6:	6833      	ldr	r3, [r6, #0]
 80030b8:	05da      	lsls	r2, r3, #23
 80030ba:	d5f7      	bpl.n	80030ac <HAL_RCC_OscConfig+0x2b8>
 80030bc:	68a3      	ldr	r3, [r4, #8]
 80030be:	2b01      	cmp	r3, #1
 80030c0:	f000 815e 	beq.w	8003380 <HAL_RCC_OscConfig+0x58c>
 80030c4:	2b00      	cmp	r3, #0
 80030c6:	f000 8138 	beq.w	800333a <HAL_RCC_OscConfig+0x546>
 80030ca:	2b05      	cmp	r3, #5
 80030cc:	4baf      	ldr	r3, [pc, #700]	; (800338c <HAL_RCC_OscConfig+0x598>)
 80030ce:	6f1a      	ldr	r2, [r3, #112]	; 0x70
 80030d0:	f000 816b 	beq.w	80033aa <HAL_RCC_OscConfig+0x5b6>
 80030d4:	f022 0201 	bic.w	r2, r2, #1
 80030d8:	671a      	str	r2, [r3, #112]	; 0x70
 80030da:	6f1a      	ldr	r2, [r3, #112]	; 0x70
 80030dc:	f022 0204 	bic.w	r2, r2, #4
 80030e0:	671a      	str	r2, [r3, #112]	; 0x70
 80030e2:	f7fd fab5 	bl	8000650 <HAL_GetTick>
 80030e6:	4ea9      	ldr	r6, [pc, #676]	; (800338c <HAL_RCC_OscConfig+0x598>)
 80030e8:	f241 3788 	movw	r7, #5000	; 0x1388
 80030ec:	4605      	mov	r5, r0
 80030ee:	e004      	b.n	80030fa <HAL_RCC_OscConfig+0x306>
 80030f0:	f7fd faae 	bl	8000650 <HAL_GetTick>
 80030f4:	1b40      	subs	r0, r0, r5
 80030f6:	42b8      	cmp	r0, r7
 80030f8:	d803      	bhi.n	8003102 <HAL_RCC_OscConfig+0x30e>
 80030fa:	6f33      	ldr	r3, [r6, #112]	; 0x70
 80030fc:	079b      	lsls	r3, r3, #30
 80030fe:	d5f7      	bpl.n	80030f0 <HAL_RCC_OscConfig+0x2fc>
 8003100:	e720      	b.n	8002f44 <HAL_RCC_OscConfig+0x150>
 8003102:	2003      	movs	r0, #3
 8003104:	bdf8      	pop	{r3, r4, r5, r6, r7, pc}
 8003106:	4ba1      	ldr	r3, [pc, #644]	; (800338c <HAL_RCC_OscConfig+0x598>)
 8003108:	681a      	ldr	r2, [r3, #0]
 800310a:	461e      	mov	r6, r3
 800310c:	f422 3280 	bic.w	r2, r2, #65536	; 0x10000
 8003110:	601a      	str	r2, [r3, #0]
 8003112:	681a      	ldr	r2, [r3, #0]
 8003114:	f422 2280 	bic.w	r2, r2, #262144	; 0x40000
 8003118:	601a      	str	r2, [r3, #0]
 800311a:	f7fd fa99 	bl	8000650 <HAL_GetTick>
 800311e:	4605      	mov	r5, r0
 8003120:	e004      	b.n	800312c <HAL_RCC_OscConfig+0x338>
 8003122:	f7fd fa95 	bl	8000650 <HAL_GetTick>
 8003126:	1b40      	subs	r0, r0, r5
 8003128:	2864      	cmp	r0, #100	; 0x64
 800312a:	d8ea      	bhi.n	8003102 <HAL_RCC_OscConfig+0x30e>
 800312c:	6833      	ldr	r3, [r6, #0]
 800312e:	039f      	lsls	r7, r3, #14
 8003130:	d4f7      	bmi.n	8003122 <HAL_RCC_OscConfig+0x32e>
 8003132:	e695      	b.n	8002e60 <HAL_RCC_OscConfig+0x6c>
 8003134:	4b95      	ldr	r3, [pc, #596]	; (800338c <HAL_RCC_OscConfig+0x598>)
 8003136:	6f5a      	ldr	r2, [r3, #116]	; 0x74
 8003138:	461e      	mov	r6, r3
 800313a:	f022 0201 	bic.w	r2, r2, #1
 800313e:	675a      	str	r2, [r3, #116]	; 0x74
 8003140:	f7fd fa86 	bl	8000650 <HAL_GetTick>
 8003144:	4605      	mov	r5, r0
 8003146:	e004      	b.n	8003152 <HAL_RCC_OscConfig+0x35e>
 8003148:	f7fd fa82 	bl	8000650 <HAL_GetTick>
 800314c:	1b40      	subs	r0, r0, r5
 800314e:	2802      	cmp	r0, #2
 8003150:	d8d7      	bhi.n	8003102 <HAL_RCC_OscConfig+0x30e>
 8003152:	6f73      	ldr	r3, [r6, #116]	; 0x74
 8003154:	0799      	lsls	r1, r3, #30
 8003156:	d4f7      	bmi.n	8003148 <HAL_RCC_OscConfig+0x354>
 8003158:	e6d6      	b.n	8002f08 <HAL_RCC_OscConfig+0x114>
 800315a:	4b8c      	ldr	r3, [pc, #560]	; (800338c <HAL_RCC_OscConfig+0x598>)
 800315c:	681a      	ldr	r2, [r3, #0]
 800315e:	461e      	mov	r6, r3
 8003160:	f422 5280 	bic.w	r2, r2, #4096	; 0x1000
 8003164:	601a      	str	r2, [r3, #0]
 8003166:	f7fd fa73 	bl	8000650 <HAL_GetTick>
 800316a:	4605      	mov	r5, r0
 800316c:	e004      	b.n	8003178 <HAL_RCC_OscConfig+0x384>
 800316e:	f7fd fa6f 	bl	8000650 <HAL_GetTick>
 8003172:	1b40      	subs	r0, r0, r5
 8003174:	2802      	cmp	r0, #2
 8003176:	d8c4      	bhi.n	8003102 <HAL_RCC_OscConfig+0x30e>
 8003178:	6833      	ldr	r3, [r6, #0]
 800317a:	0498      	lsls	r0, r3, #18
 800317c:	d4f7      	bmi.n	800316e <HAL_RCC_OscConfig+0x37a>
 800317e:	e6dd      	b.n	8002f3c <HAL_RCC_OscConfig+0x148>
 8003180:	4b82      	ldr	r3, [pc, #520]	; (800338c <HAL_RCC_OscConfig+0x598>)
 8003182:	681a      	ldr	r2, [r3, #0]
 8003184:	461e      	mov	r6, r3
 8003186:	f022 0280 	bic.w	r2, r2, #128	; 0x80
 800318a:	601a      	str	r2, [r3, #0]
 800318c:	f7fd fa60 	bl	8000650 <HAL_GetTick>
 8003190:	4605      	mov	r5, r0
 8003192:	e004      	b.n	800319e <HAL_RCC_OscConfig+0x3aa>
 8003194:	f7fd fa5c 	bl	8000650 <HAL_GetTick>
 8003198:	1b40      	subs	r0, r0, r5
 800319a:	2802      	cmp	r0, #2
 800319c:	d8b1      	bhi.n	8003102 <HAL_RCC_OscConfig+0x30e>
 800319e:	6833      	ldr	r3, [r6, #0]
 80031a0:	05df      	lsls	r7, r3, #23
 80031a2:	d4f7      	bmi.n	8003194 <HAL_RCC_OscConfig+0x3a0>
 80031a4:	6823      	ldr	r3, [r4, #0]
 80031a6:	e696      	b.n	8002ed6 <HAL_RCC_OscConfig+0xe2>
 80031a8:	4b78      	ldr	r3, [pc, #480]	; (800338c <HAL_RCC_OscConfig+0x598>)
 80031aa:	681a      	ldr	r2, [r3, #0]
 80031ac:	461e      	mov	r6, r3
 80031ae:	f022 0201 	bic.w	r2, r2, #1
 80031b2:	601a      	str	r2, [r3, #0]
 80031b4:	f7fd fa4c 	bl	8000650 <HAL_GetTick>
 80031b8:	4605      	mov	r5, r0
 80031ba:	e004      	b.n	80031c6 <HAL_RCC_OscConfig+0x3d2>
 80031bc:	f7fd fa48 	bl	8000650 <HAL_GetTick>
 80031c0:	1b40      	subs	r0, r0, r5
 80031c2:	2802      	cmp	r0, #2
 80031c4:	d89d      	bhi.n	8003102 <HAL_RCC_OscConfig+0x30e>
 80031c6:	6833      	ldr	r3, [r6, #0]
 80031c8:	0758      	lsls	r0, r3, #29
 80031ca:	d4f7      	bmi.n	80031bc <HAL_RCC_OscConfig+0x3c8>
 80031cc:	6823      	ldr	r3, [r4, #0]
 80031ce:	e64b      	b.n	8002e68 <HAL_RCC_OscConfig+0x74>
 80031d0:	0791      	lsls	r1, r2, #30
 80031d2:	f47f af0f 	bne.w	8002ff4 <HAL_RCC_OscConfig+0x200>
 80031d6:	e6db      	b.n	8002f90 <HAL_RCC_OscConfig+0x19c>
 80031d8:	6873      	ldr	r3, [r6, #4]
 80031da:	6922      	ldr	r2, [r4, #16]
 80031dc:	f023 43fe 	bic.w	r3, r3, #2130706432	; 0x7f000000
 80031e0:	ea43 6302 	orr.w	r3, r3, r2, lsl #24
 80031e4:	6073      	str	r3, [r6, #4]
 80031e6:	6823      	ldr	r3, [r4, #0]
 80031e8:	e63e      	b.n	8002e68 <HAL_RCC_OscConfig+0x74>
 80031ea:	2001      	movs	r0, #1
 80031ec:	4770      	bx	lr
 80031ee:	4a67      	ldr	r2, [pc, #412]	; (800338c <HAL_RCC_OscConfig+0x598>)
 80031f0:	6a21      	ldr	r1, [r4, #32]
 80031f2:	68d3      	ldr	r3, [r2, #12]
 80031f4:	f023 537c 	bic.w	r3, r3, #1056964608	; 0x3f000000
 80031f8:	ea43 6301 	orr.w	r3, r3, r1, lsl #24
 80031fc:	60d3      	str	r3, [r2, #12]
 80031fe:	6823      	ldr	r3, [r4, #0]
 8003200:	e669      	b.n	8002ed6 <HAL_RCC_OscConfig+0xe2>
 8003202:	f7fd fa25 	bl	8000650 <HAL_GetTick>
 8003206:	4606      	mov	r6, r0
 8003208:	e005      	b.n	8003216 <HAL_RCC_OscConfig+0x422>
 800320a:	f7fd fa21 	bl	8000650 <HAL_GetTick>
 800320e:	1b80      	subs	r0, r0, r6
 8003210:	2802      	cmp	r0, #2
 8003212:	f63f af76 	bhi.w	8003102 <HAL_RCC_OscConfig+0x30e>
 8003216:	682b      	ldr	r3, [r5, #0]
 8003218:	0199      	lsls	r1, r3, #6
 800321a:	d4f6      	bmi.n	800320a <HAL_RCC_OscConfig+0x416>
 800321c:	6aaa      	ldr	r2, [r5, #40]	; 0x28
 800321e:	4b5c      	ldr	r3, [pc, #368]	; (8003390 <HAL_RCC_OscConfig+0x59c>)
 8003220:	6aa0      	ldr	r0, [r4, #40]	; 0x28
 8003222:	4013      	ands	r3, r2
 8003224:	6ae2      	ldr	r2, [r4, #44]	; 0x2c
 8003226:	495b      	ldr	r1, [pc, #364]	; (8003394 <HAL_RCC_OscConfig+0x5a0>)
 8003228:	4303      	orrs	r3, r0
 800322a:	4e58      	ldr	r6, [pc, #352]	; (800338c <HAL_RCC_OscConfig+0x598>)
 800322c:	ea43 1302 	orr.w	r3, r3, r2, lsl #4
 8003230:	62ab      	str	r3, [r5, #40]	; 0x28
 8003232:	6b27      	ldr	r7, [r4, #48]	; 0x30
 8003234:	e9d4 320d 	ldrd	r3, r2, [r4, #52]	; 0x34
 8003238:	3f01      	subs	r7, #1
 800323a:	1e50      	subs	r0, r2, #1
 800323c:	3b01      	subs	r3, #1
 800323e:	6be2      	ldr	r2, [r4, #60]	; 0x3c
 8003240:	f3c7 0708 	ubfx	r7, r7, #0, #9
 8003244:	025b      	lsls	r3, r3, #9
 8003246:	0400      	lsls	r0, r0, #16
 8003248:	3a01      	subs	r2, #1
 800324a:	b29b      	uxth	r3, r3
 800324c:	f400 00fe 	and.w	r0, r0, #8323072	; 0x7f0000
 8003250:	0612      	lsls	r2, r2, #24
 8003252:	4303      	orrs	r3, r0
 8003254:	f002 42fe 	and.w	r2, r2, #2130706432	; 0x7f000000
 8003258:	433b      	orrs	r3, r7
 800325a:	4313      	orrs	r3, r2
 800325c:	632b      	str	r3, [r5, #48]	; 0x30
 800325e:	6aeb      	ldr	r3, [r5, #44]	; 0x2c
 8003260:	f023 0301 	bic.w	r3, r3, #1
 8003264:	62eb      	str	r3, [r5, #44]	; 0x2c
 8003266:	6b6a      	ldr	r2, [r5, #52]	; 0x34
 8003268:	6ca3      	ldr	r3, [r4, #72]	; 0x48
 800326a:	4011      	ands	r1, r2
 800326c:	ea41 01c3 	orr.w	r1, r1, r3, lsl #3
 8003270:	6369      	str	r1, [r5, #52]	; 0x34
 8003272:	6aeb      	ldr	r3, [r5, #44]	; 0x2c
 8003274:	6c22      	ldr	r2, [r4, #64]	; 0x40
 8003276:	f023 030c 	bic.w	r3, r3, #12
 800327a:	4313      	orrs	r3, r2
 800327c:	62eb      	str	r3, [r5, #44]	; 0x2c
 800327e:	6aeb      	ldr	r3, [r5, #44]	; 0x2c
 8003280:	6c62      	ldr	r2, [r4, #68]	; 0x44
 8003282:	f023 0302 	bic.w	r3, r3, #2
 8003286:	4313      	orrs	r3, r2
 8003288:	62eb      	str	r3, [r5, #44]	; 0x2c
 800328a:	6aeb      	ldr	r3, [r5, #44]	; 0x2c
 800328c:	f443 3380 	orr.w	r3, r3, #65536	; 0x10000
 8003290:	62eb      	str	r3, [r5, #44]	; 0x2c
 8003292:	6aeb      	ldr	r3, [r5, #44]	; 0x2c
 8003294:	f443 3300 	orr.w	r3, r3, #131072	; 0x20000
 8003298:	62eb      	str	r3, [r5, #44]	; 0x2c
 800329a:	6aeb      	ldr	r3, [r5, #44]	; 0x2c
 800329c:	f443 2380 	orr.w	r3, r3, #262144	; 0x40000
 80032a0:	62eb      	str	r3, [r5, #44]	; 0x2c
 80032a2:	6aeb      	ldr	r3, [r5, #44]	; 0x2c
 80032a4:	f043 0301 	orr.w	r3, r3, #1
 80032a8:	62eb      	str	r3, [r5, #44]	; 0x2c
 80032aa:	682b      	ldr	r3, [r5, #0]
 80032ac:	f043 7380 	orr.w	r3, r3, #16777216	; 0x1000000
 80032b0:	602b      	str	r3, [r5, #0]
 80032b2:	f7fd f9cd 	bl	8000650 <HAL_GetTick>
 80032b6:	4604      	mov	r4, r0
 80032b8:	e005      	b.n	80032c6 <HAL_RCC_OscConfig+0x4d2>
 80032ba:	f7fd f9c9 	bl	8000650 <HAL_GetTick>
 80032be:	1b00      	subs	r0, r0, r4
 80032c0:	2802      	cmp	r0, #2
 80032c2:	f63f af1e 	bhi.w	8003102 <HAL_RCC_OscConfig+0x30e>
 80032c6:	6833      	ldr	r3, [r6, #0]
 80032c8:	019a      	lsls	r2, r3, #6
 80032ca:	d5f6      	bpl.n	80032ba <HAL_RCC_OscConfig+0x4c6>
 80032cc:	e658      	b.n	8002f80 <HAL_RCC_OscConfig+0x18c>
 80032ce:	2801      	cmp	r0, #1
 80032d0:	6a9a      	ldr	r2, [r3, #40]	; 0x28
 80032d2:	6b1d      	ldr	r5, [r3, #48]	; 0x30
 80032d4:	f43f ae55 	beq.w	8002f82 <HAL_RCC_OscConfig+0x18e>
 80032d8:	f002 0303 	and.w	r3, r2, #3
 80032dc:	6aa1      	ldr	r1, [r4, #40]	; 0x28
 80032de:	428b      	cmp	r3, r1
 80032e0:	f47f aeae 	bne.w	8003040 <HAL_RCC_OscConfig+0x24c>
 80032e4:	f3c2 1205 	ubfx	r2, r2, #4, #6
 80032e8:	6ae3      	ldr	r3, [r4, #44]	; 0x2c
 80032ea:	429a      	cmp	r2, r3
 80032ec:	f47f aea8 	bne.w	8003040 <HAL_RCC_OscConfig+0x24c>
 80032f0:	6b23      	ldr	r3, [r4, #48]	; 0x30
 80032f2:	f3c5 0208 	ubfx	r2, r5, #0, #9
 80032f6:	3b01      	subs	r3, #1
 80032f8:	429a      	cmp	r2, r3
 80032fa:	f47f aea1 	bne.w	8003040 <HAL_RCC_OscConfig+0x24c>
 80032fe:	6b63      	ldr	r3, [r4, #52]	; 0x34
 8003300:	f3c5 2246 	ubfx	r2, r5, #9, #7
 8003304:	3b01      	subs	r3, #1
 8003306:	429a      	cmp	r2, r3
 8003308:	f47f ae9a 	bne.w	8003040 <HAL_RCC_OscConfig+0x24c>
 800330c:	6ba3      	ldr	r3, [r4, #56]	; 0x38
 800330e:	f3c5 4206 	ubfx	r2, r5, #16, #7
 8003312:	3b01      	subs	r3, #1
 8003314:	429a      	cmp	r2, r3
 8003316:	f47f ae93 	bne.w	8003040 <HAL_RCC_OscConfig+0x24c>
 800331a:	6be0      	ldr	r0, [r4, #60]	; 0x3c
 800331c:	f3c5 6506 	ubfx	r5, r5, #24, #7
 8003320:	3801      	subs	r0, #1
 8003322:	1a28      	subs	r0, r5, r0
 8003324:	bf18      	it	ne
 8003326:	2001      	movne	r0, #1
 8003328:	bdf8      	pop	{r3, r4, r5, r6, r7, pc}
 800332a:	f442 2280 	orr.w	r2, r2, #262144	; 0x40000
 800332e:	601a      	str	r2, [r3, #0]
 8003330:	681a      	ldr	r2, [r3, #0]
 8003332:	f442 3280 	orr.w	r2, r2, #65536	; 0x10000
 8003336:	601a      	str	r2, [r3, #0]
 8003338:	e584      	b.n	8002e44 <HAL_RCC_OscConfig+0x50>
 800333a:	4b14      	ldr	r3, [pc, #80]	; (800338c <HAL_RCC_OscConfig+0x598>)
 800333c:	f241 3788 	movw	r7, #5000	; 0x1388
 8003340:	6f1a      	ldr	r2, [r3, #112]	; 0x70
 8003342:	461e      	mov	r6, r3
 8003344:	f022 0201 	bic.w	r2, r2, #1
 8003348:	671a      	str	r2, [r3, #112]	; 0x70
 800334a:	6f1a      	ldr	r2, [r3, #112]	; 0x70
 800334c:	f022 0204 	bic.w	r2, r2, #4
 8003350:	671a      	str	r2, [r3, #112]	; 0x70
 8003352:	f7fd f97d 	bl	8000650 <HAL_GetTick>
 8003356:	4605      	mov	r5, r0
 8003358:	e005      	b.n	8003366 <HAL_RCC_OscConfig+0x572>
 800335a:	f7fd f979 	bl	8000650 <HAL_GetTick>
 800335e:	1b40      	subs	r0, r0, r5
 8003360:	42b8      	cmp	r0, r7
 8003362:	f63f aece 	bhi.w	8003102 <HAL_RCC_OscConfig+0x30e>
 8003366:	6f33      	ldr	r3, [r6, #112]	; 0x70
 8003368:	0798      	lsls	r0, r3, #30
 800336a:	d4f6      	bmi.n	800335a <HAL_RCC_OscConfig+0x566>
 800336c:	e5ea      	b.n	8002f44 <HAL_RCC_OscConfig+0x150>
 800336e:	68f3      	ldr	r3, [r6, #12]
 8003370:	6a22      	ldr	r2, [r4, #32]
 8003372:	f023 537c 	bic.w	r3, r3, #1056964608	; 0x3f000000
 8003376:	ea43 6302 	orr.w	r3, r3, r2, lsl #24
 800337a:	60f3      	str	r3, [r6, #12]
 800337c:	6823      	ldr	r3, [r4, #0]
 800337e:	e5aa      	b.n	8002ed6 <HAL_RCC_OscConfig+0xe2>
 8003380:	4a02      	ldr	r2, [pc, #8]	; (800338c <HAL_RCC_OscConfig+0x598>)
 8003382:	6f13      	ldr	r3, [r2, #112]	; 0x70
 8003384:	f043 0301 	orr.w	r3, r3, #1
 8003388:	6713      	str	r3, [r2, #112]	; 0x70
 800338a:	e6aa      	b.n	80030e2 <HAL_RCC_OscConfig+0x2ee>
 800338c:	58024400 	.word	0x58024400
 8003390:	fffffc0c 	.word	0xfffffc0c
 8003394:	ffff0007 	.word	0xffff0007
 8003398:	4a08      	ldr	r2, [pc, #32]	; (80033bc <HAL_RCC_OscConfig+0x5c8>)
 800339a:	6853      	ldr	r3, [r2, #4]
 800339c:	f023 43f8 	bic.w	r3, r3, #2080374784	; 0x7c000000
 80033a0:	f043 4380 	orr.w	r3, r3, #1073741824	; 0x40000000
 80033a4:	6053      	str	r3, [r2, #4]
 80033a6:	6823      	ldr	r3, [r4, #0]
 80033a8:	e595      	b.n	8002ed6 <HAL_RCC_OscConfig+0xe2>
 80033aa:	f042 0204 	orr.w	r2, r2, #4
 80033ae:	671a      	str	r2, [r3, #112]	; 0x70
 80033b0:	6f1a      	ldr	r2, [r3, #112]	; 0x70
 80033b2:	f042 0201 	orr.w	r2, r2, #1
 80033b6:	671a      	str	r2, [r3, #112]	; 0x70
 80033b8:	e693      	b.n	80030e2 <HAL_RCC_OscConfig+0x2ee>
 80033ba:	bf00      	nop
 80033bc:	58024400 	.word	0x58024400

080033c0 <HAL_RCC_MCOConfig>:
 80033c0:	e92d 4370 	stmdb	sp!, {r4, r5, r6, r8, r9, lr}
 80033c4:	460d      	mov	r5, r1
 80033c6:	b088      	sub	sp, #32
 80033c8:	4614      	mov	r4, r2
 80033ca:	bb28      	cbnz	r0, 8003418 <HAL_RCC_MCOConfig+0x58>
 80033cc:	4e27      	ldr	r6, [pc, #156]	; (800346c <HAL_RCC_MCOConfig+0xac>)
 80033ce:	4603      	mov	r3, r0
 80033d0:	f44f 7880 	mov.w	r8, #256	; 0x100
 80033d4:	f04f 0902 	mov.w	r9, #2
 80033d8:	f8d6 20e0 	ldr.w	r2, [r6, #224]	; 0xe0
 80033dc:	a902      	add	r1, sp, #8
 80033de:	4824      	ldr	r0, [pc, #144]	; (8003470 <HAL_RCC_MCOConfig+0xb0>)
 80033e0:	f042 0201 	orr.w	r2, r2, #1
 80033e4:	f8c6 20e0 	str.w	r2, [r6, #224]	; 0xe0
 80033e8:	f8d6 20e0 	ldr.w	r2, [r6, #224]	; 0xe0
 80033ec:	9306      	str	r3, [sp, #24]
 80033ee:	f002 0201 	and.w	r2, r2, #1
 80033f2:	9200      	str	r2, [sp, #0]
 80033f4:	2200      	movs	r2, #0
 80033f6:	9b00      	ldr	r3, [sp, #0]
 80033f8:	2303      	movs	r3, #3
 80033fa:	e9cd 8902 	strd	r8, r9, [sp, #8]
 80033fe:	e9cd 2304 	strd	r2, r3, [sp, #16]
 8003402:	f7ff faeb 	bl	80029dc <HAL_GPIO_Init>
 8003406:	6932      	ldr	r2, [r6, #16]
 8003408:	f022 72fe 	bic.w	r2, r2, #33292288	; 0x1fc0000
 800340c:	432a      	orrs	r2, r5
 800340e:	4322      	orrs	r2, r4
 8003410:	6132      	str	r2, [r6, #16]
 8003412:	b008      	add	sp, #32
 8003414:	e8bd 8370 	ldmia.w	sp!, {r4, r5, r6, r8, r9, pc}
 8003418:	4e14      	ldr	r6, [pc, #80]	; (800346c <HAL_RCC_MCOConfig+0xac>)
 800341a:	f44f 7000 	mov.w	r0, #512	; 0x200
 800341e:	2102      	movs	r1, #2
 8003420:	2200      	movs	r2, #0
 8003422:	f8d6 30e0 	ldr.w	r3, [r6, #224]	; 0xe0
 8003426:	f04f 0800 	mov.w	r8, #0
 800342a:	f04f 0903 	mov.w	r9, #3
 800342e:	f043 0304 	orr.w	r3, r3, #4
 8003432:	f8c6 30e0 	str.w	r3, [r6, #224]	; 0xe0
 8003436:	f8d6 30e0 	ldr.w	r3, [r6, #224]	; 0xe0
 800343a:	9206      	str	r2, [sp, #24]
 800343c:	f003 0304 	and.w	r3, r3, #4
 8003440:	e9cd 0102 	strd	r0, r1, [sp, #8]
 8003444:	9301      	str	r3, [sp, #4]
 8003446:	a902      	add	r1, sp, #8
 8003448:	480a      	ldr	r0, [pc, #40]	; (8003474 <HAL_RCC_MCOConfig+0xb4>)
 800344a:	9b01      	ldr	r3, [sp, #4]
 800344c:	e9cd 8904 	strd	r8, r9, [sp, #16]
 8003450:	f7ff fac4 	bl	80029dc <HAL_GPIO_Init>
 8003454:	6933      	ldr	r3, [r6, #16]
 8003456:	f023 437e 	bic.w	r3, r3, #4261412864	; 0xfe000000
 800345a:	ea43 0105 	orr.w	r1, r3, r5
 800345e:	ea41 11c4 	orr.w	r1, r1, r4, lsl #7
 8003462:	6131      	str	r1, [r6, #16]
 8003464:	b008      	add	sp, #32
 8003466:	e8bd 8370 	ldmia.w	sp!, {r4, r5, r6, r8, r9, pc}
 800346a:	bf00      	nop
 800346c:	58024400 	.word	0x58024400
 8003470:	58020000 	.word	0x58020000
 8003474:	58020800 	.word	0x58020800

08003478 <HAL_RCC_GetSysClockFreq>:
 8003478:	4a47      	ldr	r2, [pc, #284]	; (8003598 <HAL_RCC_GetSysClockFreq+0x120>)
 800347a:	6913      	ldr	r3, [r2, #16]
 800347c:	f003 0338 	and.w	r3, r3, #56	; 0x38
 8003480:	2b10      	cmp	r3, #16
 8003482:	d004      	beq.n	800348e <HAL_RCC_GetSysClockFreq+0x16>
 8003484:	2b18      	cmp	r3, #24
 8003486:	d00d      	beq.n	80034a4 <HAL_RCC_GetSysClockFreq+0x2c>
 8003488:	b11b      	cbz	r3, 8003492 <HAL_RCC_GetSysClockFreq+0x1a>
 800348a:	4844      	ldr	r0, [pc, #272]	; (800359c <HAL_RCC_GetSysClockFreq+0x124>)
 800348c:	4770      	bx	lr
 800348e:	4844      	ldr	r0, [pc, #272]	; (80035a0 <HAL_RCC_GetSysClockFreq+0x128>)
 8003490:	4770      	bx	lr
 8003492:	6813      	ldr	r3, [r2, #0]
 8003494:	0699      	lsls	r1, r3, #26
 8003496:	d54a      	bpl.n	800352e <HAL_RCC_GetSysClockFreq+0xb6>
 8003498:	6813      	ldr	r3, [r2, #0]
 800349a:	4842      	ldr	r0, [pc, #264]	; (80035a4 <HAL_RCC_GetSysClockFreq+0x12c>)
 800349c:	f3c3 03c1 	ubfx	r3, r3, #3, #2
 80034a0:	40d8      	lsrs	r0, r3
 80034a2:	4770      	bx	lr
 80034a4:	6a93      	ldr	r3, [r2, #40]	; 0x28
 80034a6:	b430      	push	{r4, r5}
 80034a8:	6a94      	ldr	r4, [r2, #40]	; 0x28
 80034aa:	6ad1      	ldr	r1, [r2, #44]	; 0x2c
 80034ac:	f414 7f7c 	tst.w	r4, #1008	; 0x3f0
 80034b0:	f3c4 1005 	ubfx	r0, r4, #4, #6
 80034b4:	6b55      	ldr	r5, [r2, #52]	; 0x34
 80034b6:	d038      	beq.n	800352a <HAL_RCC_GetSysClockFreq+0xb2>
 80034b8:	f3c5 05cc 	ubfx	r5, r5, #3, #13
 80034bc:	f001 0101 	and.w	r1, r1, #1
 80034c0:	f003 0303 	and.w	r3, r3, #3
 80034c4:	fb01 f105 	mul.w	r1, r1, r5
 80034c8:	2b01      	cmp	r3, #1
 80034ca:	ee07 1a90 	vmov	s15, r1
 80034ce:	eeb8 7ae7 	vcvt.f32.s32	s14, s15
 80034d2:	d002      	beq.n	80034da <HAL_RCC_GetSysClockFreq+0x62>
 80034d4:	2b02      	cmp	r3, #2
 80034d6:	d02c      	beq.n	8003532 <HAL_RCC_GetSysClockFreq+0xba>
 80034d8:	b393      	cbz	r3, 8003540 <HAL_RCC_GetSysClockFreq+0xc8>
 80034da:	ee07 0a90 	vmov	s15, r0
 80034de:	ed9f 5a32 	vldr	s10, [pc, #200]	; 80035a8 <HAL_RCC_GetSysClockFreq+0x130>
 80034e2:	eef8 7ae7 	vcvt.f32.s32	s15, s15
 80034e6:	6b13      	ldr	r3, [r2, #48]	; 0x30
 80034e8:	eec5 6a27 	vdiv.f32	s13, s10, s15
 80034ec:	eddf 5a2f 	vldr	s11, [pc, #188]	; 80035ac <HAL_RCC_GetSysClockFreq+0x134>
 80034f0:	f3c3 0308 	ubfx	r3, r3, #0, #9
 80034f4:	ee07 3a90 	vmov	s15, r3
 80034f8:	eeb7 6a00 	vmov.f32	s12, #112	; 0x3f800000  1.0
 80034fc:	eef8 7ae7 	vcvt.f32.s32	s15, s15
 8003500:	eee7 7a25 	vfma.f32	s15, s14, s11
 8003504:	ee77 7a86 	vadd.f32	s15, s15, s12
 8003508:	ee66 6aa7 	vmul.f32	s13, s13, s15
 800350c:	4b22      	ldr	r3, [pc, #136]	; (8003598 <HAL_RCC_GetSysClockFreq+0x120>)
 800350e:	6b1b      	ldr	r3, [r3, #48]	; 0x30
 8003510:	f3c3 2346 	ubfx	r3, r3, #9, #7
 8003514:	3301      	adds	r3, #1
 8003516:	ee07 3a90 	vmov	s15, r3
 800351a:	eeb8 7ae7 	vcvt.f32.s32	s14, s15
 800351e:	eec6 7a87 	vdiv.f32	s15, s13, s14
 8003522:	eefc 7ae7 	vcvt.u32.f32	s15, s15
 8003526:	ee17 0a90 	vmov	r0, s15
 800352a:	bc30      	pop	{r4, r5}
 800352c:	4770      	bx	lr
 800352e:	481d      	ldr	r0, [pc, #116]	; (80035a4 <HAL_RCC_GetSysClockFreq+0x12c>)
 8003530:	4770      	bx	lr
 8003532:	ee07 0a90 	vmov	s15, r0
 8003536:	ed9f 5a1e 	vldr	s10, [pc, #120]	; 80035b0 <HAL_RCC_GetSysClockFreq+0x138>
 800353a:	eef8 7ae7 	vcvt.f32.s32	s15, s15
 800353e:	e7d2      	b.n	80034e6 <HAL_RCC_GetSysClockFreq+0x6e>
 8003540:	6813      	ldr	r3, [r2, #0]
 8003542:	069b      	lsls	r3, r3, #26
 8003544:	d520      	bpl.n	8003588 <HAL_RCC_GetSysClockFreq+0x110>
 8003546:	6813      	ldr	r3, [r2, #0]
 8003548:	ee07 0a90 	vmov	s15, r0
 800354c:	4915      	ldr	r1, [pc, #84]	; (80035a4 <HAL_RCC_GetSysClockFreq+0x12c>)
 800354e:	eeb7 5a00 	vmov.f32	s10, #112	; 0x3f800000  1.0
 8003552:	f3c3 00c1 	ubfx	r0, r3, #3, #2
 8003556:	eef8 7ae7 	vcvt.f32.s32	s15, s15
 800355a:	6b13      	ldr	r3, [r2, #48]	; 0x30
 800355c:	40c1      	lsrs	r1, r0
 800355e:	eddf 4a13 	vldr	s9, [pc, #76]	; 80035ac <HAL_RCC_GetSysClockFreq+0x134>
 8003562:	f3c3 0308 	ubfx	r3, r3, #0, #9
 8003566:	ee06 1a10 	vmov	s12, r1
 800356a:	ee06 3a90 	vmov	s13, r3
 800356e:	eeb8 6ac6 	vcvt.f32.s32	s12, s12
 8003572:	eef8 6ae6 	vcvt.f32.s32	s13, s13
 8003576:	eec6 5a27 	vdiv.f32	s11, s12, s15
 800357a:	eee7 6a24 	vfma.f32	s13, s14, s9
 800357e:	ee76 6a85 	vadd.f32	s13, s13, s10
 8003582:	ee66 6aa5 	vmul.f32	s13, s13, s11
 8003586:	e7c1      	b.n	800350c <HAL_RCC_GetSysClockFreq+0x94>
 8003588:	ee07 0a90 	vmov	s15, r0
 800358c:	ed9f 5a09 	vldr	s10, [pc, #36]	; 80035b4 <HAL_RCC_GetSysClockFreq+0x13c>
 8003590:	eef8 7ae7 	vcvt.f32.s32	s15, s15
 8003594:	e7a7      	b.n	80034e6 <HAL_RCC_GetSysClockFreq+0x6e>
 8003596:	bf00      	nop
 8003598:	58024400 	.word	0x58024400
 800359c:	003d0900 	.word	0x003d0900
 80035a0:	01e84800 	.word	0x01e84800
 80035a4:	03d09000 	.word	0x03d09000
 80035a8:	4a742400 	.word	0x4a742400
 80035ac:	39000000 	.word	0x39000000
 80035b0:	4bf42400 	.word	0x4bf42400
 80035b4:	4c742400 	.word	0x4c742400

080035b8 <HAL_RCC_ClockConfig>:
 80035b8:	2800      	cmp	r0, #0
 80035ba:	f000 810e 	beq.w	80037da <HAL_RCC_ClockConfig+0x222>
 80035be:	4a8d      	ldr	r2, [pc, #564]	; (80037f4 <HAL_RCC_ClockConfig+0x23c>)
 80035c0:	6813      	ldr	r3, [r2, #0]
 80035c2:	f003 030f 	and.w	r3, r3, #15
 80035c6:	428b      	cmp	r3, r1
 80035c8:	e92d 41f0 	stmdb	sp!, {r4, r5, r6, r7, r8, lr}
 80035cc:	4604      	mov	r4, r0
 80035ce:	460d      	mov	r5, r1
 80035d0:	d20c      	bcs.n	80035ec <HAL_RCC_ClockConfig+0x34>
 80035d2:	6813      	ldr	r3, [r2, #0]
 80035d4:	f023 030f 	bic.w	r3, r3, #15
 80035d8:	430b      	orrs	r3, r1
 80035da:	6013      	str	r3, [r2, #0]
 80035dc:	6813      	ldr	r3, [r2, #0]
 80035de:	f003 030f 	and.w	r3, r3, #15
 80035e2:	428b      	cmp	r3, r1
 80035e4:	d002      	beq.n	80035ec <HAL_RCC_ClockConfig+0x34>
 80035e6:	2001      	movs	r0, #1
 80035e8:	e8bd 81f0 	ldmia.w	sp!, {r4, r5, r6, r7, r8, pc}
 80035ec:	6823      	ldr	r3, [r4, #0]
 80035ee:	075f      	lsls	r7, r3, #29
 80035f0:	d50b      	bpl.n	800360a <HAL_RCC_ClockConfig+0x52>
 80035f2:	4981      	ldr	r1, [pc, #516]	; (80037f8 <HAL_RCC_ClockConfig+0x240>)
 80035f4:	6920      	ldr	r0, [r4, #16]
 80035f6:	698a      	ldr	r2, [r1, #24]
 80035f8:	f002 0270 	and.w	r2, r2, #112	; 0x70
 80035fc:	4290      	cmp	r0, r2
 80035fe:	d904      	bls.n	800360a <HAL_RCC_ClockConfig+0x52>
 8003600:	698a      	ldr	r2, [r1, #24]
 8003602:	f022 0270 	bic.w	r2, r2, #112	; 0x70
 8003606:	4302      	orrs	r2, r0
 8003608:	618a      	str	r2, [r1, #24]
 800360a:	071e      	lsls	r6, r3, #28
 800360c:	d50b      	bpl.n	8003626 <HAL_RCC_ClockConfig+0x6e>
 800360e:	497a      	ldr	r1, [pc, #488]	; (80037f8 <HAL_RCC_ClockConfig+0x240>)
 8003610:	6960      	ldr	r0, [r4, #20]
 8003612:	69ca      	ldr	r2, [r1, #28]
 8003614:	f002 0270 	and.w	r2, r2, #112	; 0x70
 8003618:	4290      	cmp	r0, r2
 800361a:	d904      	bls.n	8003626 <HAL_RCC_ClockConfig+0x6e>
 800361c:	69ca      	ldr	r2, [r1, #28]
 800361e:	f022 0270 	bic.w	r2, r2, #112	; 0x70
 8003622:	4302      	orrs	r2, r0
 8003624:	61ca      	str	r2, [r1, #28]
 8003626:	06d8      	lsls	r0, r3, #27
 8003628:	d50b      	bpl.n	8003642 <HAL_RCC_ClockConfig+0x8a>
 800362a:	4973      	ldr	r1, [pc, #460]	; (80037f8 <HAL_RCC_ClockConfig+0x240>)
 800362c:	69a0      	ldr	r0, [r4, #24]
 800362e:	69ca      	ldr	r2, [r1, #28]
 8003630:	f402 62e0 	and.w	r2, r2, #1792	; 0x700
 8003634:	4290      	cmp	r0, r2
 8003636:	d904      	bls.n	8003642 <HAL_RCC_ClockConfig+0x8a>
 8003638:	69ca      	ldr	r2, [r1, #28]
 800363a:	f422 62e0 	bic.w	r2, r2, #1792	; 0x700
 800363e:	4302      	orrs	r2, r0
 8003640:	61ca      	str	r2, [r1, #28]
 8003642:	0699      	lsls	r1, r3, #26
 8003644:	d50b      	bpl.n	800365e <HAL_RCC_ClockConfig+0xa6>
 8003646:	496c      	ldr	r1, [pc, #432]	; (80037f8 <HAL_RCC_ClockConfig+0x240>)
 8003648:	69e0      	ldr	r0, [r4, #28]
 800364a:	6a0a      	ldr	r2, [r1, #32]
 800364c:	f002 0270 	and.w	r2, r2, #112	; 0x70
 8003650:	4290      	cmp	r0, r2
 8003652:	d904      	bls.n	800365e <HAL_RCC_ClockConfig+0xa6>
 8003654:	6a0a      	ldr	r2, [r1, #32]
 8003656:	f022 0270 	bic.w	r2, r2, #112	; 0x70
 800365a:	4302      	orrs	r2, r0
 800365c:	620a      	str	r2, [r1, #32]
 800365e:	079a      	lsls	r2, r3, #30
 8003660:	f140 80ad 	bpl.w	80037be <HAL_RCC_ClockConfig+0x206>
 8003664:	4864      	ldr	r0, [pc, #400]	; (80037f8 <HAL_RCC_ClockConfig+0x240>)
 8003666:	68e1      	ldr	r1, [r4, #12]
 8003668:	6982      	ldr	r2, [r0, #24]
 800366a:	f002 020f 	and.w	r2, r2, #15
 800366e:	4291      	cmp	r1, r2
 8003670:	d904      	bls.n	800367c <HAL_RCC_ClockConfig+0xc4>
 8003672:	6982      	ldr	r2, [r0, #24]
 8003674:	f022 020f 	bic.w	r2, r2, #15
 8003678:	430a      	orrs	r2, r1
 800367a:	6182      	str	r2, [r0, #24]
 800367c:	07d8      	lsls	r0, r3, #31
 800367e:	d531      	bpl.n	80036e4 <HAL_RCC_ClockConfig+0x12c>
 8003680:	4a5d      	ldr	r2, [pc, #372]	; (80037f8 <HAL_RCC_ClockConfig+0x240>)
 8003682:	68a1      	ldr	r1, [r4, #8]
 8003684:	6993      	ldr	r3, [r2, #24]
 8003686:	f423 6370 	bic.w	r3, r3, #3840	; 0xf00
 800368a:	430b      	orrs	r3, r1
 800368c:	6193      	str	r3, [r2, #24]
 800368e:	6861      	ldr	r1, [r4, #4]
 8003690:	6813      	ldr	r3, [r2, #0]
 8003692:	2902      	cmp	r1, #2
 8003694:	f000 80a3 	beq.w	80037de <HAL_RCC_ClockConfig+0x226>
 8003698:	2903      	cmp	r1, #3
 800369a:	f000 809a 	beq.w	80037d2 <HAL_RCC_ClockConfig+0x21a>
 800369e:	2901      	cmp	r1, #1
 80036a0:	f000 80a3 	beq.w	80037ea <HAL_RCC_ClockConfig+0x232>
 80036a4:	0758      	lsls	r0, r3, #29
 80036a6:	d59e      	bpl.n	80035e6 <HAL_RCC_ClockConfig+0x2e>
 80036a8:	4a53      	ldr	r2, [pc, #332]	; (80037f8 <HAL_RCC_ClockConfig+0x240>)
 80036aa:	f241 3888 	movw	r8, #5000	; 0x1388
 80036ae:	6913      	ldr	r3, [r2, #16]
 80036b0:	4617      	mov	r7, r2
 80036b2:	f023 0307 	bic.w	r3, r3, #7
 80036b6:	430b      	orrs	r3, r1
 80036b8:	6113      	str	r3, [r2, #16]
 80036ba:	f7fc ffc9 	bl	8000650 <HAL_GetTick>
 80036be:	4606      	mov	r6, r0
 80036c0:	e005      	b.n	80036ce <HAL_RCC_ClockConfig+0x116>
 80036c2:	f7fc ffc5 	bl	8000650 <HAL_GetTick>
 80036c6:	1b80      	subs	r0, r0, r6
 80036c8:	4540      	cmp	r0, r8
 80036ca:	f200 808c 	bhi.w	80037e6 <HAL_RCC_ClockConfig+0x22e>
 80036ce:	693b      	ldr	r3, [r7, #16]
 80036d0:	6862      	ldr	r2, [r4, #4]
 80036d2:	f003 0338 	and.w	r3, r3, #56	; 0x38
 80036d6:	ebb3 0fc2 	cmp.w	r3, r2, lsl #3
 80036da:	d1f2      	bne.n	80036c2 <HAL_RCC_ClockConfig+0x10a>
 80036dc:	6823      	ldr	r3, [r4, #0]
 80036de:	0799      	lsls	r1, r3, #30
 80036e0:	d506      	bpl.n	80036f0 <HAL_RCC_ClockConfig+0x138>
 80036e2:	68e1      	ldr	r1, [r4, #12]
 80036e4:	4844      	ldr	r0, [pc, #272]	; (80037f8 <HAL_RCC_ClockConfig+0x240>)
 80036e6:	6982      	ldr	r2, [r0, #24]
 80036e8:	f002 020f 	and.w	r2, r2, #15
 80036ec:	428a      	cmp	r2, r1
 80036ee:	d86a      	bhi.n	80037c6 <HAL_RCC_ClockConfig+0x20e>
 80036f0:	4940      	ldr	r1, [pc, #256]	; (80037f4 <HAL_RCC_ClockConfig+0x23c>)
 80036f2:	680a      	ldr	r2, [r1, #0]
 80036f4:	f002 020f 	and.w	r2, r2, #15
 80036f8:	42aa      	cmp	r2, r5
 80036fa:	d90a      	bls.n	8003712 <HAL_RCC_ClockConfig+0x15a>
 80036fc:	680a      	ldr	r2, [r1, #0]
 80036fe:	f022 020f 	bic.w	r2, r2, #15
 8003702:	432a      	orrs	r2, r5
 8003704:	600a      	str	r2, [r1, #0]
 8003706:	680a      	ldr	r2, [r1, #0]
 8003708:	f002 020f 	and.w	r2, r2, #15
 800370c:	42aa      	cmp	r2, r5
 800370e:	f47f af6a 	bne.w	80035e6 <HAL_RCC_ClockConfig+0x2e>
 8003712:	075a      	lsls	r2, r3, #29
 8003714:	d50b      	bpl.n	800372e <HAL_RCC_ClockConfig+0x176>
 8003716:	4938      	ldr	r1, [pc, #224]	; (80037f8 <HAL_RCC_ClockConfig+0x240>)
 8003718:	6920      	ldr	r0, [r4, #16]
 800371a:	698a      	ldr	r2, [r1, #24]
 800371c:	f002 0270 	and.w	r2, r2, #112	; 0x70
 8003720:	4290      	cmp	r0, r2
 8003722:	d204      	bcs.n	800372e <HAL_RCC_ClockConfig+0x176>
 8003724:	698a      	ldr	r2, [r1, #24]
 8003726:	f022 0270 	bic.w	r2, r2, #112	; 0x70
 800372a:	4302      	orrs	r2, r0
 800372c:	618a      	str	r2, [r1, #24]
 800372e:	071f      	lsls	r7, r3, #28
 8003730:	d50b      	bpl.n	800374a <HAL_RCC_ClockConfig+0x192>
 8003732:	4931      	ldr	r1, [pc, #196]	; (80037f8 <HAL_RCC_ClockConfig+0x240>)
 8003734:	6960      	ldr	r0, [r4, #20]
 8003736:	69ca      	ldr	r2, [r1, #28]
 8003738:	f002 0270 	and.w	r2, r2, #112	; 0x70
 800373c:	4290      	cmp	r0, r2
 800373e:	d204      	bcs.n	800374a <HAL_RCC_ClockConfig+0x192>
 8003740:	69ca      	ldr	r2, [r1, #28]
 8003742:	f022 0270 	bic.w	r2, r2, #112	; 0x70
 8003746:	4302      	orrs	r2, r0
 8003748:	61ca      	str	r2, [r1, #28]
 800374a:	06de      	lsls	r6, r3, #27
 800374c:	d50b      	bpl.n	8003766 <HAL_RCC_ClockConfig+0x1ae>
 800374e:	492a      	ldr	r1, [pc, #168]	; (80037f8 <HAL_RCC_ClockConfig+0x240>)
 8003750:	69a0      	ldr	r0, [r4, #24]
 8003752:	69ca      	ldr	r2, [r1, #28]
 8003754:	f402 62e0 	and.w	r2, r2, #1792	; 0x700
 8003758:	4290      	cmp	r0, r2
 800375a:	d204      	bcs.n	8003766 <HAL_RCC_ClockConfig+0x1ae>
 800375c:	69ca      	ldr	r2, [r1, #28]
 800375e:	f422 62e0 	bic.w	r2, r2, #1792	; 0x700
 8003762:	4302      	orrs	r2, r0
 8003764:	61ca      	str	r2, [r1, #28]
 8003766:	069d      	lsls	r5, r3, #26
 8003768:	d50b      	bpl.n	8003782 <HAL_RCC_ClockConfig+0x1ca>
 800376a:	4a23      	ldr	r2, [pc, #140]	; (80037f8 <HAL_RCC_ClockConfig+0x240>)
 800376c:	69e1      	ldr	r1, [r4, #28]
 800376e:	6a13      	ldr	r3, [r2, #32]
 8003770:	f003 0370 	and.w	r3, r3, #112	; 0x70
 8003774:	4299      	cmp	r1, r3
 8003776:	d204      	bcs.n	8003782 <HAL_RCC_ClockConfig+0x1ca>
 8003778:	6a13      	ldr	r3, [r2, #32]
 800377a:	f023 0370 	bic.w	r3, r3, #112	; 0x70
 800377e:	430b      	orrs	r3, r1
 8003780:	6213      	str	r3, [r2, #32]
 8003782:	f7ff fe79 	bl	8003478 <HAL_RCC_GetSysClockFreq>
 8003786:	4b1c      	ldr	r3, [pc, #112]	; (80037f8 <HAL_RCC_ClockConfig+0x240>)
 8003788:	4602      	mov	r2, r0
 800378a:	481c      	ldr	r0, [pc, #112]	; (80037fc <HAL_RCC_ClockConfig+0x244>)
 800378c:	6999      	ldr	r1, [r3, #24]
 800378e:	699b      	ldr	r3, [r3, #24]
 8003790:	f3c1 2103 	ubfx	r1, r1, #8, #4
 8003794:	4d1a      	ldr	r5, [pc, #104]	; (8003800 <HAL_RCC_ClockConfig+0x248>)
 8003796:	f003 030f 	and.w	r3, r3, #15
 800379a:	4c1a      	ldr	r4, [pc, #104]	; (8003804 <HAL_RCC_ClockConfig+0x24c>)
 800379c:	5c41      	ldrb	r1, [r0, r1]
 800379e:	5cc3      	ldrb	r3, [r0, r3]
 80037a0:	f001 011f 	and.w	r1, r1, #31
 80037a4:	6828      	ldr	r0, [r5, #0]
 80037a6:	f003 031f 	and.w	r3, r3, #31
 80037aa:	4d17      	ldr	r5, [pc, #92]	; (8003808 <HAL_RCC_ClockConfig+0x250>)
 80037ac:	40ca      	lsrs	r2, r1
 80037ae:	fa22 f303 	lsr.w	r3, r2, r3
 80037b2:	602a      	str	r2, [r5, #0]
 80037b4:	6023      	str	r3, [r4, #0]
 80037b6:	e8bd 41f0 	ldmia.w	sp!, {r4, r5, r6, r7, r8, lr}
 80037ba:	f007 bb9d 	b.w	800aef8 <HAL_InitTick>
 80037be:	07da      	lsls	r2, r3, #31
 80037c0:	f53f af5e 	bmi.w	8003680 <HAL_RCC_ClockConfig+0xc8>
 80037c4:	e794      	b.n	80036f0 <HAL_RCC_ClockConfig+0x138>
 80037c6:	6982      	ldr	r2, [r0, #24]
 80037c8:	f022 020f 	bic.w	r2, r2, #15
 80037cc:	4311      	orrs	r1, r2
 80037ce:	6181      	str	r1, [r0, #24]
 80037d0:	e78e      	b.n	80036f0 <HAL_RCC_ClockConfig+0x138>
 80037d2:	019f      	lsls	r7, r3, #6
 80037d4:	f53f af68 	bmi.w	80036a8 <HAL_RCC_ClockConfig+0xf0>
 80037d8:	e705      	b.n	80035e6 <HAL_RCC_ClockConfig+0x2e>
 80037da:	2001      	movs	r0, #1
 80037dc:	4770      	bx	lr
 80037de:	039b      	lsls	r3, r3, #14
 80037e0:	f53f af62 	bmi.w	80036a8 <HAL_RCC_ClockConfig+0xf0>
 80037e4:	e6ff      	b.n	80035e6 <HAL_RCC_ClockConfig+0x2e>
 80037e6:	2003      	movs	r0, #3
 80037e8:	e6fe      	b.n	80035e8 <HAL_RCC_ClockConfig+0x30>
 80037ea:	05de      	lsls	r6, r3, #23
 80037ec:	f53f af5c 	bmi.w	80036a8 <HAL_RCC_ClockConfig+0xf0>
 80037f0:	e6f9      	b.n	80035e6 <HAL_RCC_ClockConfig+0x2e>
 80037f2:	bf00      	nop
 80037f4:	52002000 	.word	0x52002000
 80037f8:	58024400 	.word	0x58024400
 80037fc:	0800ba60 	.word	0x0800ba60
 8003800:	24000004 	.word	0x24000004
 8003804:	24000010 	.word	0x24000010
 8003808:	2400000c 	.word	0x2400000c

0800380c <HAL_RCC_GetHCLKFreq>:
 800380c:	4a18      	ldr	r2, [pc, #96]	; (8003870 <HAL_RCC_GetHCLKFreq+0x64>)
 800380e:	b538      	push	{r3, r4, r5, lr}
 8003810:	6913      	ldr	r3, [r2, #16]
 8003812:	f003 0338 	and.w	r3, r3, #56	; 0x38
 8003816:	2b10      	cmp	r3, #16
 8003818:	d01a      	beq.n	8003850 <HAL_RCC_GetHCLKFreq+0x44>
 800381a:	2b18      	cmp	r3, #24
 800381c:	d023      	beq.n	8003866 <HAL_RCC_GetHCLKFreq+0x5a>
 800381e:	b1cb      	cbz	r3, 8003854 <HAL_RCC_GetHCLKFreq+0x48>
 8003820:	4814      	ldr	r0, [pc, #80]	; (8003874 <HAL_RCC_GetHCLKFreq+0x68>)
 8003822:	4b13      	ldr	r3, [pc, #76]	; (8003870 <HAL_RCC_GetHCLKFreq+0x64>)
 8003824:	4914      	ldr	r1, [pc, #80]	; (8003878 <HAL_RCC_GetHCLKFreq+0x6c>)
 8003826:	699a      	ldr	r2, [r3, #24]
 8003828:	699b      	ldr	r3, [r3, #24]
 800382a:	f3c2 2203 	ubfx	r2, r2, #8, #4
 800382e:	4c13      	ldr	r4, [pc, #76]	; (800387c <HAL_RCC_GetHCLKFreq+0x70>)
 8003830:	f003 030f 	and.w	r3, r3, #15
 8003834:	4d12      	ldr	r5, [pc, #72]	; (8003880 <HAL_RCC_GetHCLKFreq+0x74>)
 8003836:	5c8a      	ldrb	r2, [r1, r2]
 8003838:	5ccb      	ldrb	r3, [r1, r3]
 800383a:	f002 021f 	and.w	r2, r2, #31
 800383e:	f003 031f 	and.w	r3, r3, #31
 8003842:	fa20 f202 	lsr.w	r2, r0, r2
 8003846:	fa22 f003 	lsr.w	r0, r2, r3
 800384a:	602a      	str	r2, [r5, #0]
 800384c:	6020      	str	r0, [r4, #0]
 800384e:	bd38      	pop	{r3, r4, r5, pc}
 8003850:	480c      	ldr	r0, [pc, #48]	; (8003884 <HAL_RCC_GetHCLKFreq+0x78>)
 8003852:	e7e6      	b.n	8003822 <HAL_RCC_GetHCLKFreq+0x16>
 8003854:	6813      	ldr	r3, [r2, #0]
 8003856:	069b      	lsls	r3, r3, #26
 8003858:	d508      	bpl.n	800386c <HAL_RCC_GetHCLKFreq+0x60>
 800385a:	6812      	ldr	r2, [r2, #0]
 800385c:	480a      	ldr	r0, [pc, #40]	; (8003888 <HAL_RCC_GetHCLKFreq+0x7c>)
 800385e:	f3c2 02c1 	ubfx	r2, r2, #3, #2
 8003862:	40d0      	lsrs	r0, r2
 8003864:	e7dd      	b.n	8003822 <HAL_RCC_GetHCLKFreq+0x16>
 8003866:	f7ff fa2d 	bl	8002cc4 <HAL_RCC_GetSysClockFreq.part.0>
 800386a:	e7da      	b.n	8003822 <HAL_RCC_GetHCLKFreq+0x16>
 800386c:	4806      	ldr	r0, [pc, #24]	; (8003888 <HAL_RCC_GetHCLKFreq+0x7c>)
 800386e:	e7d8      	b.n	8003822 <HAL_RCC_GetHCLKFreq+0x16>
 8003870:	58024400 	.word	0x58024400
 8003874:	003d0900 	.word	0x003d0900
 8003878:	0800ba60 	.word	0x0800ba60
 800387c:	24000010 	.word	0x24000010
 8003880:	2400000c 	.word	0x2400000c
 8003884:	01e84800 	.word	0x01e84800
 8003888:	03d09000 	.word	0x03d09000

0800388c <HAL_RCC_GetPCLK1Freq>:
 800388c:	4a1c      	ldr	r2, [pc, #112]	; (8003900 <HAL_RCC_GetPCLK1Freq+0x74>)
 800388e:	b538      	push	{r3, r4, r5, lr}
 8003890:	6913      	ldr	r3, [r2, #16]
 8003892:	f003 0338 	and.w	r3, r3, #56	; 0x38
 8003896:	2b10      	cmp	r3, #16
 8003898:	d021      	beq.n	80038de <HAL_RCC_GetPCLK1Freq+0x52>
 800389a:	2b18      	cmp	r3, #24
 800389c:	d02a      	beq.n	80038f4 <HAL_RCC_GetPCLK1Freq+0x68>
 800389e:	b303      	cbz	r3, 80038e2 <HAL_RCC_GetPCLK1Freq+0x56>
 80038a0:	4818      	ldr	r0, [pc, #96]	; (8003904 <HAL_RCC_GetPCLK1Freq+0x78>)
 80038a2:	4a17      	ldr	r2, [pc, #92]	; (8003900 <HAL_RCC_GetPCLK1Freq+0x74>)
 80038a4:	4918      	ldr	r1, [pc, #96]	; (8003908 <HAL_RCC_GetPCLK1Freq+0x7c>)
 80038a6:	6994      	ldr	r4, [r2, #24]
 80038a8:	6993      	ldr	r3, [r2, #24]
 80038aa:	f3c4 2403 	ubfx	r4, r4, #8, #4
 80038ae:	4d17      	ldr	r5, [pc, #92]	; (800390c <HAL_RCC_GetPCLK1Freq+0x80>)
 80038b0:	f003 030f 	and.w	r3, r3, #15
 80038b4:	5d0c      	ldrb	r4, [r1, r4]
 80038b6:	5ccb      	ldrb	r3, [r1, r3]
 80038b8:	f004 041f 	and.w	r4, r4, #31
 80038bc:	f003 031f 	and.w	r3, r3, #31
 80038c0:	40e0      	lsrs	r0, r4
 80038c2:	4c13      	ldr	r4, [pc, #76]	; (8003910 <HAL_RCC_GetPCLK1Freq+0x84>)
 80038c4:	fa20 f303 	lsr.w	r3, r0, r3
 80038c8:	6028      	str	r0, [r5, #0]
 80038ca:	6023      	str	r3, [r4, #0]
 80038cc:	69d2      	ldr	r2, [r2, #28]
 80038ce:	f3c2 1202 	ubfx	r2, r2, #4, #3
 80038d2:	5c88      	ldrb	r0, [r1, r2]
 80038d4:	f000 001f 	and.w	r0, r0, #31
 80038d8:	fa23 f000 	lsr.w	r0, r3, r0
 80038dc:	bd38      	pop	{r3, r4, r5, pc}
 80038de:	480d      	ldr	r0, [pc, #52]	; (8003914 <HAL_RCC_GetPCLK1Freq+0x88>)
 80038e0:	e7df      	b.n	80038a2 <HAL_RCC_GetPCLK1Freq+0x16>
 80038e2:	6813      	ldr	r3, [r2, #0]
 80038e4:	069b      	lsls	r3, r3, #26
 80038e6:	d508      	bpl.n	80038fa <HAL_RCC_GetPCLK1Freq+0x6e>
 80038e8:	6813      	ldr	r3, [r2, #0]
 80038ea:	480b      	ldr	r0, [pc, #44]	; (8003918 <HAL_RCC_GetPCLK1Freq+0x8c>)
 80038ec:	f3c3 03c1 	ubfx	r3, r3, #3, #2
 80038f0:	40d8      	lsrs	r0, r3
 80038f2:	e7d6      	b.n	80038a2 <HAL_RCC_GetPCLK1Freq+0x16>
 80038f4:	f7ff f9e6 	bl	8002cc4 <HAL_RCC_GetSysClockFreq.part.0>
 80038f8:	e7d3      	b.n	80038a2 <HAL_RCC_GetPCLK1Freq+0x16>
 80038fa:	4807      	ldr	r0, [pc, #28]	; (8003918 <HAL_RCC_GetPCLK1Freq+0x8c>)
 80038fc:	e7d1      	b.n	80038a2 <HAL_RCC_GetPCLK1Freq+0x16>
 80038fe:	bf00      	nop
 8003900:	58024400 	.word	0x58024400
 8003904:	003d0900 	.word	0x003d0900
 8003908:	0800ba60 	.word	0x0800ba60
 800390c:	2400000c 	.word	0x2400000c
 8003910:	24000010 	.word	0x24000010
 8003914:	01e84800 	.word	0x01e84800
 8003918:	03d09000 	.word	0x03d09000

0800391c <HAL_RCC_GetPCLK2Freq>:
 800391c:	4a1c      	ldr	r2, [pc, #112]	; (8003990 <HAL_RCC_GetPCLK2Freq+0x74>)
 800391e:	b538      	push	{r3, r4, r5, lr}
 8003920:	6913      	ldr	r3, [r2, #16]
 8003922:	f003 0338 	and.w	r3, r3, #56	; 0x38
 8003926:	2b10      	cmp	r3, #16
 8003928:	d021      	beq.n	800396e <HAL_RCC_GetPCLK2Freq+0x52>
 800392a:	2b18      	cmp	r3, #24
 800392c:	d02a      	beq.n	8003984 <HAL_RCC_GetPCLK2Freq+0x68>
 800392e:	b303      	cbz	r3, 8003972 <HAL_RCC_GetPCLK2Freq+0x56>
 8003930:	4818      	ldr	r0, [pc, #96]	; (8003994 <HAL_RCC_GetPCLK2Freq+0x78>)
 8003932:	4a17      	ldr	r2, [pc, #92]	; (8003990 <HAL_RCC_GetPCLK2Freq+0x74>)
 8003934:	4918      	ldr	r1, [pc, #96]	; (8003998 <HAL_RCC_GetPCLK2Freq+0x7c>)
 8003936:	6994      	ldr	r4, [r2, #24]
 8003938:	6993      	ldr	r3, [r2, #24]
 800393a:	f3c4 2403 	ubfx	r4, r4, #8, #4
 800393e:	4d17      	ldr	r5, [pc, #92]	; (800399c <HAL_RCC_GetPCLK2Freq+0x80>)
 8003940:	f003 030f 	and.w	r3, r3, #15
 8003944:	5d0c      	ldrb	r4, [r1, r4]
 8003946:	5ccb      	ldrb	r3, [r1, r3]
 8003948:	f004 041f 	and.w	r4, r4, #31
 800394c:	f003 031f 	and.w	r3, r3, #31
 8003950:	40e0      	lsrs	r0, r4
 8003952:	4c13      	ldr	r4, [pc, #76]	; (80039a0 <HAL_RCC_GetPCLK2Freq+0x84>)
 8003954:	fa20 f303 	lsr.w	r3, r0, r3
 8003958:	6028      	str	r0, [r5, #0]
 800395a:	6023      	str	r3, [r4, #0]
 800395c:	69d2      	ldr	r2, [r2, #28]
 800395e:	f3c2 2202 	ubfx	r2, r2, #8, #3
 8003962:	5c88      	ldrb	r0, [r1, r2]
 8003964:	f000 001f 	and.w	r0, r0, #31
 8003968:	fa23 f000 	lsr.w	r0, r3, r0
 800396c:	bd38      	pop	{r3, r4, r5, pc}
 800396e:	480d      	ldr	r0, [pc, #52]	; (80039a4 <HAL_RCC_GetPCLK2Freq+0x88>)
 8003970:	e7df      	b.n	8003932 <HAL_RCC_GetPCLK2Freq+0x16>
 8003972:	6813      	ldr	r3, [r2, #0]
 8003974:	069b      	lsls	r3, r3, #26
 8003976:	d508      	bpl.n	800398a <HAL_RCC_GetPCLK2Freq+0x6e>
 8003978:	6813      	ldr	r3, [r2, #0]
 800397a:	480b      	ldr	r0, [pc, #44]	; (80039a8 <HAL_RCC_GetPCLK2Freq+0x8c>)
 800397c:	f3c3 03c1 	ubfx	r3, r3, #3, #2
 8003980:	40d8      	lsrs	r0, r3
 8003982:	e7d6      	b.n	8003932 <HAL_RCC_GetPCLK2Freq+0x16>
 8003984:	f7ff f99e 	bl	8002cc4 <HAL_RCC_GetSysClockFreq.part.0>
 8003988:	e7d3      	b.n	8003932 <HAL_RCC_GetPCLK2Freq+0x16>
 800398a:	4807      	ldr	r0, [pc, #28]	; (80039a8 <HAL_RCC_GetPCLK2Freq+0x8c>)
 800398c:	e7d1      	b.n	8003932 <HAL_RCC_GetPCLK2Freq+0x16>
 800398e:	bf00      	nop
 8003990:	58024400 	.word	0x58024400
 8003994:	003d0900 	.word	0x003d0900
 8003998:	0800ba60 	.word	0x0800ba60
 800399c:	2400000c 	.word	0x2400000c
 80039a0:	24000010 	.word	0x24000010
 80039a4:	01e84800 	.word	0x01e84800
 80039a8:	03d09000 	.word	0x03d09000

080039ac <HAL_RCC_GetClockConfig>:
 80039ac:	4b13      	ldr	r3, [pc, #76]	; (80039fc <HAL_RCC_GetClockConfig+0x50>)
 80039ae:	223f      	movs	r2, #63	; 0x3f
 80039b0:	6002      	str	r2, [r0, #0]
 80039b2:	691a      	ldr	r2, [r3, #16]
 80039b4:	f002 0207 	and.w	r2, r2, #7
 80039b8:	6042      	str	r2, [r0, #4]
 80039ba:	699a      	ldr	r2, [r3, #24]
 80039bc:	f402 6270 	and.w	r2, r2, #3840	; 0xf00
 80039c0:	6082      	str	r2, [r0, #8]
 80039c2:	699a      	ldr	r2, [r3, #24]
 80039c4:	f002 020f 	and.w	r2, r2, #15
 80039c8:	60c2      	str	r2, [r0, #12]
 80039ca:	699a      	ldr	r2, [r3, #24]
 80039cc:	f002 0270 	and.w	r2, r2, #112	; 0x70
 80039d0:	6102      	str	r2, [r0, #16]
 80039d2:	69da      	ldr	r2, [r3, #28]
 80039d4:	f002 0270 	and.w	r2, r2, #112	; 0x70
 80039d8:	6142      	str	r2, [r0, #20]
 80039da:	69da      	ldr	r2, [r3, #28]
 80039dc:	f402 62e0 	and.w	r2, r2, #1792	; 0x700
 80039e0:	6182      	str	r2, [r0, #24]
 80039e2:	6a1b      	ldr	r3, [r3, #32]
 80039e4:	b410      	push	{r4}
 80039e6:	f003 0370 	and.w	r3, r3, #112	; 0x70
 80039ea:	4c05      	ldr	r4, [pc, #20]	; (8003a00 <HAL_RCC_GetClockConfig+0x54>)
 80039ec:	61c3      	str	r3, [r0, #28]
 80039ee:	6823      	ldr	r3, [r4, #0]
 80039f0:	f85d 4b04 	ldr.w	r4, [sp], #4
 80039f4:	f003 030f 	and.w	r3, r3, #15
 80039f8:	600b      	str	r3, [r1, #0]
 80039fa:	4770      	bx	lr
 80039fc:	58024400 	.word	0x58024400
 8003a00:	52002000 	.word	0x52002000

08003a04 <RCCEx_PLL2_Config>:
 8003a04:	4a3b      	ldr	r2, [pc, #236]	; (8003af4 <RCCEx_PLL2_Config+0xf0>)
 8003a06:	b5f8      	push	{r3, r4, r5, r6, r7, lr}
 8003a08:	6a93      	ldr	r3, [r2, #40]	; 0x28
 8003a0a:	f003 0303 	and.w	r3, r3, #3
 8003a0e:	2b03      	cmp	r3, #3
 8003a10:	d069      	beq.n	8003ae6 <RCCEx_PLL2_Config+0xe2>
 8003a12:	6813      	ldr	r3, [r2, #0]
 8003a14:	4606      	mov	r6, r0
 8003a16:	460f      	mov	r7, r1
 8003a18:	4614      	mov	r4, r2
 8003a1a:	f023 6380 	bic.w	r3, r3, #67108864	; 0x4000000
 8003a1e:	6013      	str	r3, [r2, #0]
 8003a20:	f7fc fe16 	bl	8000650 <HAL_GetTick>
 8003a24:	4605      	mov	r5, r0
 8003a26:	e004      	b.n	8003a32 <RCCEx_PLL2_Config+0x2e>
 8003a28:	f7fc fe12 	bl	8000650 <HAL_GetTick>
 8003a2c:	1b43      	subs	r3, r0, r5
 8003a2e:	2b02      	cmp	r3, #2
 8003a30:	d857      	bhi.n	8003ae2 <RCCEx_PLL2_Config+0xde>
 8003a32:	6823      	ldr	r3, [r4, #0]
 8003a34:	011a      	lsls	r2, r3, #4
 8003a36:	d4f7      	bmi.n	8003a28 <RCCEx_PLL2_Config+0x24>
 8003a38:	6aa3      	ldr	r3, [r4, #40]	; 0x28
 8003a3a:	6832      	ldr	r2, [r6, #0]
 8003a3c:	f423 337c 	bic.w	r3, r3, #258048	; 0x3f000
 8003a40:	492d      	ldr	r1, [pc, #180]	; (8003af8 <RCCEx_PLL2_Config+0xf4>)
 8003a42:	ea43 3302 	orr.w	r3, r3, r2, lsl #12
 8003a46:	62a3      	str	r3, [r4, #40]	; 0x28
 8003a48:	6875      	ldr	r5, [r6, #4]
 8003a4a:	e9d6 3202 	ldrd	r3, r2, [r6, #8]
 8003a4e:	3d01      	subs	r5, #1
 8003a50:	1e50      	subs	r0, r2, #1
 8003a52:	3b01      	subs	r3, #1
 8003a54:	6932      	ldr	r2, [r6, #16]
 8003a56:	f3c5 0508 	ubfx	r5, r5, #0, #9
 8003a5a:	025b      	lsls	r3, r3, #9
 8003a5c:	0400      	lsls	r0, r0, #16
 8003a5e:	3a01      	subs	r2, #1
 8003a60:	b29b      	uxth	r3, r3
 8003a62:	f400 00fe 	and.w	r0, r0, #8323072	; 0x7f0000
 8003a66:	0612      	lsls	r2, r2, #24
 8003a68:	4303      	orrs	r3, r0
 8003a6a:	f002 42fe 	and.w	r2, r2, #2130706432	; 0x7f000000
 8003a6e:	432b      	orrs	r3, r5
 8003a70:	4313      	orrs	r3, r2
 8003a72:	63a3      	str	r3, [r4, #56]	; 0x38
 8003a74:	6ae3      	ldr	r3, [r4, #44]	; 0x2c
 8003a76:	6972      	ldr	r2, [r6, #20]
 8003a78:	f023 03c0 	bic.w	r3, r3, #192	; 0xc0
 8003a7c:	4313      	orrs	r3, r2
 8003a7e:	62e3      	str	r3, [r4, #44]	; 0x2c
 8003a80:	6ae3      	ldr	r3, [r4, #44]	; 0x2c
 8003a82:	69b2      	ldr	r2, [r6, #24]
 8003a84:	f023 0320 	bic.w	r3, r3, #32
 8003a88:	4313      	orrs	r3, r2
 8003a8a:	62e3      	str	r3, [r4, #44]	; 0x2c
 8003a8c:	6ae3      	ldr	r3, [r4, #44]	; 0x2c
 8003a8e:	f023 0310 	bic.w	r3, r3, #16
 8003a92:	62e3      	str	r3, [r4, #44]	; 0x2c
 8003a94:	6be2      	ldr	r2, [r4, #60]	; 0x3c
 8003a96:	69f3      	ldr	r3, [r6, #28]
 8003a98:	4011      	ands	r1, r2
 8003a9a:	ea41 01c3 	orr.w	r1, r1, r3, lsl #3
 8003a9e:	63e1      	str	r1, [r4, #60]	; 0x3c
 8003aa0:	6ae3      	ldr	r3, [r4, #44]	; 0x2c
 8003aa2:	f043 0310 	orr.w	r3, r3, #16
 8003aa6:	62e3      	str	r3, [r4, #44]	; 0x2c
 8003aa8:	6ae3      	ldr	r3, [r4, #44]	; 0x2c
 8003aaa:	b1f7      	cbz	r7, 8003aea <RCCEx_PLL2_Config+0xe6>
 8003aac:	2f01      	cmp	r7, #1
 8003aae:	bf0c      	ite	eq
 8003ab0:	f443 1380 	orreq.w	r3, r3, #1048576	; 0x100000
 8003ab4:	f443 1300 	orrne.w	r3, r3, #2097152	; 0x200000
 8003ab8:	62e3      	str	r3, [r4, #44]	; 0x2c
 8003aba:	4b0e      	ldr	r3, [pc, #56]	; (8003af4 <RCCEx_PLL2_Config+0xf0>)
 8003abc:	681a      	ldr	r2, [r3, #0]
 8003abe:	461d      	mov	r5, r3
 8003ac0:	f042 6280 	orr.w	r2, r2, #67108864	; 0x4000000
 8003ac4:	601a      	str	r2, [r3, #0]
 8003ac6:	f7fc fdc3 	bl	8000650 <HAL_GetTick>
 8003aca:	4604      	mov	r4, r0
 8003acc:	e004      	b.n	8003ad8 <RCCEx_PLL2_Config+0xd4>
 8003ace:	f7fc fdbf 	bl	8000650 <HAL_GetTick>
 8003ad2:	1b00      	subs	r0, r0, r4
 8003ad4:	2802      	cmp	r0, #2
 8003ad6:	d804      	bhi.n	8003ae2 <RCCEx_PLL2_Config+0xde>
 8003ad8:	682b      	ldr	r3, [r5, #0]
 8003ada:	011b      	lsls	r3, r3, #4
 8003adc:	d5f7      	bpl.n	8003ace <RCCEx_PLL2_Config+0xca>
 8003ade:	2000      	movs	r0, #0
 8003ae0:	bdf8      	pop	{r3, r4, r5, r6, r7, pc}
 8003ae2:	2003      	movs	r0, #3
 8003ae4:	bdf8      	pop	{r3, r4, r5, r6, r7, pc}
 8003ae6:	2001      	movs	r0, #1
 8003ae8:	bdf8      	pop	{r3, r4, r5, r6, r7, pc}
 8003aea:	f443 2300 	orr.w	r3, r3, #524288	; 0x80000
 8003aee:	62e3      	str	r3, [r4, #44]	; 0x2c
 8003af0:	e7e3      	b.n	8003aba <RCCEx_PLL2_Config+0xb6>
 8003af2:	bf00      	nop
 8003af4:	58024400 	.word	0x58024400
 8003af8:	ffff0007 	.word	0xffff0007

08003afc <RCCEx_PLL3_Config>:
 8003afc:	4a3b      	ldr	r2, [pc, #236]	; (8003bec <RCCEx_PLL3_Config+0xf0>)
 8003afe:	b5f8      	push	{r3, r4, r5, r6, r7, lr}
 8003b00:	6a93      	ldr	r3, [r2, #40]	; 0x28
 8003b02:	f003 0303 	and.w	r3, r3, #3
 8003b06:	2b03      	cmp	r3, #3
 8003b08:	d069      	beq.n	8003bde <RCCEx_PLL3_Config+0xe2>
 8003b0a:	6813      	ldr	r3, [r2, #0]
 8003b0c:	4606      	mov	r6, r0
 8003b0e:	460f      	mov	r7, r1
 8003b10:	4614      	mov	r4, r2
 8003b12:	f023 5380 	bic.w	r3, r3, #268435456	; 0x10000000
 8003b16:	6013      	str	r3, [r2, #0]
 8003b18:	f7fc fd9a 	bl	8000650 <HAL_GetTick>
 8003b1c:	4605      	mov	r5, r0
 8003b1e:	e004      	b.n	8003b2a <RCCEx_PLL3_Config+0x2e>
 8003b20:	f7fc fd96 	bl	8000650 <HAL_GetTick>
 8003b24:	1b43      	subs	r3, r0, r5
 8003b26:	2b02      	cmp	r3, #2
 8003b28:	d857      	bhi.n	8003bda <RCCEx_PLL3_Config+0xde>
 8003b2a:	6823      	ldr	r3, [r4, #0]
 8003b2c:	009a      	lsls	r2, r3, #2
 8003b2e:	d4f7      	bmi.n	8003b20 <RCCEx_PLL3_Config+0x24>
 8003b30:	6aa3      	ldr	r3, [r4, #40]	; 0x28
 8003b32:	6832      	ldr	r2, [r6, #0]
 8003b34:	f023 737c 	bic.w	r3, r3, #66060288	; 0x3f00000
 8003b38:	492d      	ldr	r1, [pc, #180]	; (8003bf0 <RCCEx_PLL3_Config+0xf4>)
 8003b3a:	ea43 5302 	orr.w	r3, r3, r2, lsl #20
 8003b3e:	62a3      	str	r3, [r4, #40]	; 0x28
 8003b40:	6875      	ldr	r5, [r6, #4]
 8003b42:	e9d6 3202 	ldrd	r3, r2, [r6, #8]
 8003b46:	3d01      	subs	r5, #1
 8003b48:	1e50      	subs	r0, r2, #1
 8003b4a:	3b01      	subs	r3, #1
 8003b4c:	6932      	ldr	r2, [r6, #16]
 8003b4e:	f3c5 0508 	ubfx	r5, r5, #0, #9
 8003b52:	025b      	lsls	r3, r3, #9
 8003b54:	0400      	lsls	r0, r0, #16
 8003b56:	3a01      	subs	r2, #1
 8003b58:	b29b      	uxth	r3, r3
 8003b5a:	f400 00fe 	and.w	r0, r0, #8323072	; 0x7f0000
 8003b5e:	0612      	lsls	r2, r2, #24
 8003b60:	4303      	orrs	r3, r0
 8003b62:	f002 42fe 	and.w	r2, r2, #2130706432	; 0x7f000000
 8003b66:	432b      	orrs	r3, r5
 8003b68:	4313      	orrs	r3, r2
 8003b6a:	6423      	str	r3, [r4, #64]	; 0x40
 8003b6c:	6ae3      	ldr	r3, [r4, #44]	; 0x2c
 8003b6e:	6972      	ldr	r2, [r6, #20]
 8003b70:	f423 6340 	bic.w	r3, r3, #3072	; 0xc00
 8003b74:	4313      	orrs	r3, r2
 8003b76:	62e3      	str	r3, [r4, #44]	; 0x2c
 8003b78:	6ae3      	ldr	r3, [r4, #44]	; 0x2c
 8003b7a:	69b2      	ldr	r2, [r6, #24]
 8003b7c:	f423 7300 	bic.w	r3, r3, #512	; 0x200
 8003b80:	4313      	orrs	r3, r2
 8003b82:	62e3      	str	r3, [r4, #44]	; 0x2c
 8003b84:	6ae3      	ldr	r3, [r4, #44]	; 0x2c
 8003b86:	f423 7380 	bic.w	r3, r3, #256	; 0x100
 8003b8a:	62e3      	str	r3, [r4, #44]	; 0x2c
 8003b8c:	6c62      	ldr	r2, [r4, #68]	; 0x44
 8003b8e:	69f3      	ldr	r3, [r6, #28]
 8003b90:	4011      	ands	r1, r2
 8003b92:	ea41 01c3 	orr.w	r1, r1, r3, lsl #3
 8003b96:	6461      	str	r1, [r4, #68]	; 0x44
 8003b98:	6ae3      	ldr	r3, [r4, #44]	; 0x2c
 8003b9a:	f443 7380 	orr.w	r3, r3, #256	; 0x100
 8003b9e:	62e3      	str	r3, [r4, #44]	; 0x2c
 8003ba0:	6ae3      	ldr	r3, [r4, #44]	; 0x2c
 8003ba2:	b1f7      	cbz	r7, 8003be2 <RCCEx_PLL3_Config+0xe6>
 8003ba4:	2f01      	cmp	r7, #1
 8003ba6:	bf0c      	ite	eq
 8003ba8:	f443 0300 	orreq.w	r3, r3, #8388608	; 0x800000
 8003bac:	f043 7380 	orrne.w	r3, r3, #16777216	; 0x1000000
 8003bb0:	62e3      	str	r3, [r4, #44]	; 0x2c
 8003bb2:	4b0e      	ldr	r3, [pc, #56]	; (8003bec <RCCEx_PLL3_Config+0xf0>)
 8003bb4:	681a      	ldr	r2, [r3, #0]
 8003bb6:	461d      	mov	r5, r3
 8003bb8:	f042 5280 	orr.w	r2, r2, #268435456	; 0x10000000
 8003bbc:	601a      	str	r2, [r3, #0]
 8003bbe:	f7fc fd47 	bl	8000650 <HAL_GetTick>
 8003bc2:	4604      	mov	r4, r0
 8003bc4:	e004      	b.n	8003bd0 <RCCEx_PLL3_Config+0xd4>
 8003bc6:	f7fc fd43 	bl	8000650 <HAL_GetTick>
 8003bca:	1b00      	subs	r0, r0, r4
 8003bcc:	2802      	cmp	r0, #2
 8003bce:	d804      	bhi.n	8003bda <RCCEx_PLL3_Config+0xde>
 8003bd0:	682b      	ldr	r3, [r5, #0]
 8003bd2:	009b      	lsls	r3, r3, #2
 8003bd4:	d5f7      	bpl.n	8003bc6 <RCCEx_PLL3_Config+0xca>
 8003bd6:	2000      	movs	r0, #0
 8003bd8:	bdf8      	pop	{r3, r4, r5, r6, r7, pc}
 8003bda:	2003      	movs	r0, #3
 8003bdc:	bdf8      	pop	{r3, r4, r5, r6, r7, pc}
 8003bde:	2001      	movs	r0, #1
 8003be0:	bdf8      	pop	{r3, r4, r5, r6, r7, pc}
 8003be2:	f443 0380 	orr.w	r3, r3, #4194304	; 0x400000
 8003be6:	62e3      	str	r3, [r4, #44]	; 0x2c
 8003be8:	e7e3      	b.n	8003bb2 <RCCEx_PLL3_Config+0xb6>
 8003bea:	bf00      	nop
 8003bec:	58024400 	.word	0x58024400
 8003bf0:	ffff0007 	.word	0xffff0007

08003bf4 <HAL_RCCEx_PeriphCLKConfig>:
 8003bf4:	e92d 43f8 	stmdb	sp!, {r3, r4, r5, r6, r7, r8, r9, lr}
 8003bf8:	6803      	ldr	r3, [r0, #0]
 8003bfa:	4604      	mov	r4, r0
 8003bfc:	f013 6600 	ands.w	r6, r3, #134217728	; 0x8000000
 8003c00:	d01c      	beq.n	8003c3c <HAL_RCCEx_PeriphCLKConfig+0x48>
 8003c02:	6e42      	ldr	r2, [r0, #100]	; 0x64
 8003c04:	f5b2 1f00 	cmp.w	r2, #2097152	; 0x200000
 8003c08:	f000 84ba 	beq.w	8004580 <HAL_RCCEx_PeriphCLKConfig+0x98c>
 8003c0c:	d823      	bhi.n	8003c56 <HAL_RCCEx_PeriphCLKConfig+0x62>
 8003c0e:	2a00      	cmp	r2, #0
 8003c10:	f000 83dc 	beq.w	80043cc <HAL_RCCEx_PeriphCLKConfig+0x7d8>
 8003c14:	f5b2 1f80 	cmp.w	r2, #1048576	; 0x100000
 8003c18:	d120      	bne.n	8003c5c <HAL_RCCEx_PeriphCLKConfig+0x68>
 8003c1a:	2102      	movs	r1, #2
 8003c1c:	3004      	adds	r0, #4
 8003c1e:	f7ff fef1 	bl	8003a04 <RCCEx_PLL2_Config>
 8003c22:	4606      	mov	r6, r0
 8003c24:	2e00      	cmp	r6, #0
 8003c26:	f040 849f 	bne.w	8004568 <HAL_RCCEx_PeriphCLKConfig+0x974>
 8003c2a:	6e62      	ldr	r2, [r4, #100]	; 0x64
 8003c2c:	6823      	ldr	r3, [r4, #0]
 8003c2e:	48ab      	ldr	r0, [pc, #684]	; (8003edc <HAL_RCCEx_PeriphCLKConfig+0x2e8>)
 8003c30:	2600      	movs	r6, #0
 8003c32:	6d01      	ldr	r1, [r0, #80]	; 0x50
 8003c34:	f421 1140 	bic.w	r1, r1, #3145728	; 0x300000
 8003c38:	430a      	orrs	r2, r1
 8003c3a:	6502      	str	r2, [r0, #80]	; 0x50
 8003c3c:	05dd      	lsls	r5, r3, #23
 8003c3e:	d511      	bpl.n	8003c64 <HAL_RCCEx_PeriphCLKConfig+0x70>
 8003c40:	6d62      	ldr	r2, [r4, #84]	; 0x54
 8003c42:	2a04      	cmp	r2, #4
 8003c44:	f200 851c 	bhi.w	8004680 <HAL_RCCEx_PeriphCLKConfig+0xa8c>
 8003c48:	e8df f012 	tbh	[pc, r2, lsl #1]
 8003c4c:	0476046f 	.word	0x0476046f
 8003c50:	02d40486 	.word	0x02d40486
 8003c54:	02d4      	.short	0x02d4
 8003c56:	f5b2 1f40 	cmp.w	r2, #3145728	; 0x300000
 8003c5a:	d0e8      	beq.n	8003c2e <HAL_RCCEx_PeriphCLKConfig+0x3a>
 8003c5c:	05dd      	lsls	r5, r3, #23
 8003c5e:	f04f 0601 	mov.w	r6, #1
 8003c62:	d4ed      	bmi.n	8003c40 <HAL_RCCEx_PeriphCLKConfig+0x4c>
 8003c64:	4635      	mov	r5, r6
 8003c66:	0598      	lsls	r0, r3, #22
 8003c68:	d51b      	bpl.n	8003ca2 <HAL_RCCEx_PeriphCLKConfig+0xae>
 8003c6a:	6da2      	ldr	r2, [r4, #88]	; 0x58
 8003c6c:	2a80      	cmp	r2, #128	; 0x80
 8003c6e:	f000 8453 	beq.w	8004518 <HAL_RCCEx_PeriphCLKConfig+0x924>
 8003c72:	f200 80ec 	bhi.w	8003e4e <HAL_RCCEx_PeriphCLKConfig+0x25a>
 8003c76:	2a00      	cmp	r2, #0
 8003c78:	f000 83a2 	beq.w	80043c0 <HAL_RCCEx_PeriphCLKConfig+0x7cc>
 8003c7c:	2a40      	cmp	r2, #64	; 0x40
 8003c7e:	f040 80ed 	bne.w	8003e5c <HAL_RCCEx_PeriphCLKConfig+0x268>
 8003c82:	2100      	movs	r1, #0
 8003c84:	1d20      	adds	r0, r4, #4
 8003c86:	f7ff febd 	bl	8003a04 <RCCEx_PLL2_Config>
 8003c8a:	6823      	ldr	r3, [r4, #0]
 8003c8c:	4605      	mov	r5, r0
 8003c8e:	2d00      	cmp	r5, #0
 8003c90:	f040 8386 	bne.w	80043a0 <HAL_RCCEx_PeriphCLKConfig+0x7ac>
 8003c94:	4991      	ldr	r1, [pc, #580]	; (8003edc <HAL_RCCEx_PeriphCLKConfig+0x2e8>)
 8003c96:	6da0      	ldr	r0, [r4, #88]	; 0x58
 8003c98:	6d0a      	ldr	r2, [r1, #80]	; 0x50
 8003c9a:	f422 72e0 	bic.w	r2, r2, #448	; 0x1c0
 8003c9e:	4302      	orrs	r2, r0
 8003ca0:	650a      	str	r2, [r1, #80]	; 0x50
 8003ca2:	0559      	lsls	r1, r3, #21
 8003ca4:	d51f      	bpl.n	8003ce6 <HAL_RCCEx_PeriphCLKConfig+0xf2>
 8003ca6:	f8d4 20a4 	ldr.w	r2, [r4, #164]	; 0xa4
 8003caa:	f5b2 0f80 	cmp.w	r2, #4194304	; 0x400000
 8003cae:	f000 844a 	beq.w	8004546 <HAL_RCCEx_PeriphCLKConfig+0x952>
 8003cb2:	f200 80d6 	bhi.w	8003e62 <HAL_RCCEx_PeriphCLKConfig+0x26e>
 8003cb6:	2a00      	cmp	r2, #0
 8003cb8:	f000 837c 	beq.w	80043b4 <HAL_RCCEx_PeriphCLKConfig+0x7c0>
 8003cbc:	f5b2 1f00 	cmp.w	r2, #2097152	; 0x200000
 8003cc0:	f040 80d7 	bne.w	8003e72 <HAL_RCCEx_PeriphCLKConfig+0x27e>
 8003cc4:	2100      	movs	r1, #0
 8003cc6:	1d20      	adds	r0, r4, #4
 8003cc8:	f7ff fe9c 	bl	8003a04 <RCCEx_PLL2_Config>
 8003ccc:	6823      	ldr	r3, [r4, #0]
 8003cce:	4605      	mov	r5, r0
 8003cd0:	2d00      	cmp	r5, #0
 8003cd2:	f040 8367 	bne.w	80043a4 <HAL_RCCEx_PeriphCLKConfig+0x7b0>
 8003cd6:	4981      	ldr	r1, [pc, #516]	; (8003edc <HAL_RCCEx_PeriphCLKConfig+0x2e8>)
 8003cd8:	f8d4 00a4 	ldr.w	r0, [r4, #164]	; 0xa4
 8003cdc:	6d8a      	ldr	r2, [r1, #88]	; 0x58
 8003cde:	f422 0260 	bic.w	r2, r2, #14680064	; 0xe00000
 8003ce2:	4302      	orrs	r2, r0
 8003ce4:	658a      	str	r2, [r1, #88]	; 0x58
 8003ce6:	051a      	lsls	r2, r3, #20
 8003ce8:	d51f      	bpl.n	8003d2a <HAL_RCCEx_PeriphCLKConfig+0x136>
 8003cea:	f8d4 20a8 	ldr.w	r2, [r4, #168]	; 0xa8
 8003cee:	f1b2 7f00 	cmp.w	r2, #33554432	; 0x2000000
 8003cf2:	f000 843c 	beq.w	800456e <HAL_RCCEx_PeriphCLKConfig+0x97a>
 8003cf6:	f200 80bf 	bhi.w	8003e78 <HAL_RCCEx_PeriphCLKConfig+0x284>
 8003cfa:	2a00      	cmp	r2, #0
 8003cfc:	f000 836c 	beq.w	80043d8 <HAL_RCCEx_PeriphCLKConfig+0x7e4>
 8003d00:	f1b2 7f80 	cmp.w	r2, #16777216	; 0x1000000
 8003d04:	f040 80c0 	bne.w	8003e88 <HAL_RCCEx_PeriphCLKConfig+0x294>
 8003d08:	2100      	movs	r1, #0
 8003d0a:	1d20      	adds	r0, r4, #4
 8003d0c:	f7ff fe7a 	bl	8003a04 <RCCEx_PLL2_Config>
 8003d10:	6823      	ldr	r3, [r4, #0]
 8003d12:	4605      	mov	r5, r0
 8003d14:	2d00      	cmp	r5, #0
 8003d16:	f040 833f 	bne.w	8004398 <HAL_RCCEx_PeriphCLKConfig+0x7a4>
 8003d1a:	4970      	ldr	r1, [pc, #448]	; (8003edc <HAL_RCCEx_PeriphCLKConfig+0x2e8>)
 8003d1c:	f8d4 00a8 	ldr.w	r0, [r4, #168]	; 0xa8
 8003d20:	6d8a      	ldr	r2, [r1, #88]	; 0x58
 8003d22:	f022 62e0 	bic.w	r2, r2, #117440512	; 0x7000000
 8003d26:	4302      	orrs	r2, r0
 8003d28:	658a      	str	r2, [r1, #88]	; 0x58
 8003d2a:	019f      	lsls	r7, r3, #6
 8003d2c:	d518      	bpl.n	8003d60 <HAL_RCCEx_PeriphCLKConfig+0x16c>
 8003d2e:	6ca2      	ldr	r2, [r4, #72]	; 0x48
 8003d30:	2a20      	cmp	r2, #32
 8003d32:	f000 8392 	beq.w	800445a <HAL_RCCEx_PeriphCLKConfig+0x866>
 8003d36:	f200 80aa 	bhi.w	8003e8e <HAL_RCCEx_PeriphCLKConfig+0x29a>
 8003d3a:	b13a      	cbz	r2, 8003d4c <HAL_RCCEx_PeriphCLKConfig+0x158>
 8003d3c:	2a10      	cmp	r2, #16
 8003d3e:	f040 80a9 	bne.w	8003e94 <HAL_RCCEx_PeriphCLKConfig+0x2a0>
 8003d42:	4966      	ldr	r1, [pc, #408]	; (8003edc <HAL_RCCEx_PeriphCLKConfig+0x2e8>)
 8003d44:	6aca      	ldr	r2, [r1, #44]	; 0x2c
 8003d46:	f442 3200 	orr.w	r2, r2, #131072	; 0x20000
 8003d4a:	62ca      	str	r2, [r1, #44]	; 0x2c
 8003d4c:	2d00      	cmp	r5, #0
 8003d4e:	f040 8366 	bne.w	800441e <HAL_RCCEx_PeriphCLKConfig+0x82a>
 8003d52:	4962      	ldr	r1, [pc, #392]	; (8003edc <HAL_RCCEx_PeriphCLKConfig+0x2e8>)
 8003d54:	6ca0      	ldr	r0, [r4, #72]	; 0x48
 8003d56:	6cca      	ldr	r2, [r1, #76]	; 0x4c
 8003d58:	f022 0230 	bic.w	r2, r2, #48	; 0x30
 8003d5c:	4302      	orrs	r2, r0
 8003d5e:	64ca      	str	r2, [r1, #76]	; 0x4c
 8003d60:	04d8      	lsls	r0, r3, #19
 8003d62:	d51d      	bpl.n	8003da0 <HAL_RCCEx_PeriphCLKConfig+0x1ac>
 8003d64:	6de2      	ldr	r2, [r4, #92]	; 0x5c
 8003d66:	f5b2 5f00 	cmp.w	r2, #8192	; 0x2000
 8003d6a:	f000 83cd 	beq.w	8004508 <HAL_RCCEx_PeriphCLKConfig+0x914>
 8003d6e:	f200 8094 	bhi.w	8003e9a <HAL_RCCEx_PeriphCLKConfig+0x2a6>
 8003d72:	2a00      	cmp	r2, #0
 8003d74:	f000 8318 	beq.w	80043a8 <HAL_RCCEx_PeriphCLKConfig+0x7b4>
 8003d78:	f5b2 5f80 	cmp.w	r2, #4096	; 0x1000
 8003d7c:	f040 8095 	bne.w	8003eaa <HAL_RCCEx_PeriphCLKConfig+0x2b6>
 8003d80:	2100      	movs	r1, #0
 8003d82:	1d20      	adds	r0, r4, #4
 8003d84:	f7ff fe3e 	bl	8003a04 <RCCEx_PLL2_Config>
 8003d88:	6823      	ldr	r3, [r4, #0]
 8003d8a:	4605      	mov	r5, r0
 8003d8c:	2d00      	cmp	r5, #0
 8003d8e:	f040 8305 	bne.w	800439c <HAL_RCCEx_PeriphCLKConfig+0x7a8>
 8003d92:	4952      	ldr	r1, [pc, #328]	; (8003edc <HAL_RCCEx_PeriphCLKConfig+0x2e8>)
 8003d94:	6de0      	ldr	r0, [r4, #92]	; 0x5c
 8003d96:	6d0a      	ldr	r2, [r1, #80]	; 0x50
 8003d98:	f422 42e0 	bic.w	r2, r2, #28672	; 0x7000
 8003d9c:	4302      	orrs	r2, r0
 8003d9e:	650a      	str	r2, [r1, #80]	; 0x50
 8003da0:	0499      	lsls	r1, r3, #18
 8003da2:	d51a      	bpl.n	8003dda <HAL_RCCEx_PeriphCLKConfig+0x1e6>
 8003da4:	6e22      	ldr	r2, [r4, #96]	; 0x60
 8003da6:	f5b2 3f00 	cmp.w	r2, #131072	; 0x20000
 8003daa:	f000 8398 	beq.w	80044de <HAL_RCCEx_PeriphCLKConfig+0x8ea>
 8003dae:	d87f      	bhi.n	8003eb0 <HAL_RCCEx_PeriphCLKConfig+0x2bc>
 8003db0:	b14a      	cbz	r2, 8003dc6 <HAL_RCCEx_PeriphCLKConfig+0x1d2>
 8003db2:	f5b2 3f80 	cmp.w	r2, #65536	; 0x10000
 8003db6:	f040 8083 	bne.w	8003ec0 <HAL_RCCEx_PeriphCLKConfig+0x2cc>
 8003dba:	2101      	movs	r1, #1
 8003dbc:	1d20      	adds	r0, r4, #4
 8003dbe:	f7ff fe21 	bl	8003a04 <RCCEx_PLL2_Config>
 8003dc2:	6823      	ldr	r3, [r4, #0]
 8003dc4:	4605      	mov	r5, r0
 8003dc6:	2d00      	cmp	r5, #0
 8003dc8:	f040 832b 	bne.w	8004422 <HAL_RCCEx_PeriphCLKConfig+0x82e>
 8003dcc:	4943      	ldr	r1, [pc, #268]	; (8003edc <HAL_RCCEx_PeriphCLKConfig+0x2e8>)
 8003dce:	6e20      	ldr	r0, [r4, #96]	; 0x60
 8003dd0:	6d0a      	ldr	r2, [r1, #80]	; 0x50
 8003dd2:	f422 22e0 	bic.w	r2, r2, #458752	; 0x70000
 8003dd6:	4302      	orrs	r2, r0
 8003dd8:	650a      	str	r2, [r1, #80]	; 0x50
 8003dda:	045a      	lsls	r2, r3, #17
 8003ddc:	d51b      	bpl.n	8003e16 <HAL_RCCEx_PeriphCLKConfig+0x222>
 8003dde:	f8d4 20ac 	ldr.w	r2, [r4, #172]	; 0xac
 8003de2:	f1b2 5f00 	cmp.w	r2, #536870912	; 0x20000000
 8003de6:	f000 834a 	beq.w	800447e <HAL_RCCEx_PeriphCLKConfig+0x88a>
 8003dea:	d86c      	bhi.n	8003ec6 <HAL_RCCEx_PeriphCLKConfig+0x2d2>
 8003dec:	b142      	cbz	r2, 8003e00 <HAL_RCCEx_PeriphCLKConfig+0x20c>
 8003dee:	f1b2 5f80 	cmp.w	r2, #268435456	; 0x10000000
 8003df2:	d170      	bne.n	8003ed6 <HAL_RCCEx_PeriphCLKConfig+0x2e2>
 8003df4:	2101      	movs	r1, #1
 8003df6:	1d20      	adds	r0, r4, #4
 8003df8:	f7ff fe04 	bl	8003a04 <RCCEx_PLL2_Config>
 8003dfc:	6823      	ldr	r3, [r4, #0]
 8003dfe:	4605      	mov	r5, r0
 8003e00:	2d00      	cmp	r5, #0
 8003e02:	f040 8302 	bne.w	800440a <HAL_RCCEx_PeriphCLKConfig+0x816>
 8003e06:	4935      	ldr	r1, [pc, #212]	; (8003edc <HAL_RCCEx_PeriphCLKConfig+0x2e8>)
 8003e08:	f8d4 00ac 	ldr.w	r0, [r4, #172]	; 0xac
 8003e0c:	6d8a      	ldr	r2, [r1, #88]	; 0x58
 8003e0e:	f022 42e0 	bic.w	r2, r2, #1879048192	; 0x70000000
 8003e12:	4302      	orrs	r2, r0
 8003e14:	658a      	str	r2, [r1, #88]	; 0x58
 8003e16:	041f      	lsls	r7, r3, #16
 8003e18:	d50d      	bpl.n	8003e36 <HAL_RCCEx_PeriphCLKConfig+0x242>
 8003e1a:	6ee2      	ldr	r2, [r4, #108]	; 0x6c
 8003e1c:	f1b2 5f80 	cmp.w	r2, #268435456	; 0x10000000
 8003e20:	f000 834b 	beq.w	80044ba <HAL_RCCEx_PeriphCLKConfig+0x8c6>
 8003e24:	f1b2 5f00 	cmp.w	r2, #536870912	; 0x20000000
 8003e28:	f000 81f0 	beq.w	800420c <HAL_RCCEx_PeriphCLKConfig+0x618>
 8003e2c:	2a00      	cmp	r2, #0
 8003e2e:	f000 81f3 	beq.w	8004218 <HAL_RCCEx_PeriphCLKConfig+0x624>
 8003e32:	2601      	movs	r6, #1
 8003e34:	4635      	mov	r5, r6
 8003e36:	01d8      	lsls	r0, r3, #7
 8003e38:	d55c      	bpl.n	8003ef4 <HAL_RCCEx_PeriphCLKConfig+0x300>
 8003e3a:	6c62      	ldr	r2, [r4, #68]	; 0x44
 8003e3c:	2a03      	cmp	r2, #3
 8003e3e:	f200 8425 	bhi.w	800468c <HAL_RCCEx_PeriphCLKConfig+0xa98>
 8003e42:	e8df f012 	tbh	[pc, r2, lsl #1]
 8003e46:	0053      	.short	0x0053
 8003e48:	004d0313 	.word	0x004d0313
 8003e4c:	0053      	.short	0x0053
 8003e4e:	2ac0      	cmp	r2, #192	; 0xc0
 8003e50:	f43f af1d 	beq.w	8003c8e <HAL_RCCEx_PeriphCLKConfig+0x9a>
 8003e54:	f5b2 7f80 	cmp.w	r2, #256	; 0x100
 8003e58:	f43f af19 	beq.w	8003c8e <HAL_RCCEx_PeriphCLKConfig+0x9a>
 8003e5c:	2601      	movs	r6, #1
 8003e5e:	4635      	mov	r5, r6
 8003e60:	e71f      	b.n	8003ca2 <HAL_RCCEx_PeriphCLKConfig+0xae>
 8003e62:	f5b2 0fc0 	cmp.w	r2, #6291456	; 0x600000
 8003e66:	f43f af33 	beq.w	8003cd0 <HAL_RCCEx_PeriphCLKConfig+0xdc>
 8003e6a:	f5b2 0f00 	cmp.w	r2, #8388608	; 0x800000
 8003e6e:	f43f af2f 	beq.w	8003cd0 <HAL_RCCEx_PeriphCLKConfig+0xdc>
 8003e72:	2601      	movs	r6, #1
 8003e74:	4635      	mov	r5, r6
 8003e76:	e736      	b.n	8003ce6 <HAL_RCCEx_PeriphCLKConfig+0xf2>
 8003e78:	f1b2 7f40 	cmp.w	r2, #50331648	; 0x3000000
 8003e7c:	f43f af4a 	beq.w	8003d14 <HAL_RCCEx_PeriphCLKConfig+0x120>
 8003e80:	f1b2 6f80 	cmp.w	r2, #67108864	; 0x4000000
 8003e84:	f43f af46 	beq.w	8003d14 <HAL_RCCEx_PeriphCLKConfig+0x120>
 8003e88:	2601      	movs	r6, #1
 8003e8a:	4635      	mov	r5, r6
 8003e8c:	e74d      	b.n	8003d2a <HAL_RCCEx_PeriphCLKConfig+0x136>
 8003e8e:	2a30      	cmp	r2, #48	; 0x30
 8003e90:	f43f af5c 	beq.w	8003d4c <HAL_RCCEx_PeriphCLKConfig+0x158>
 8003e94:	2601      	movs	r6, #1
 8003e96:	4635      	mov	r5, r6
 8003e98:	e762      	b.n	8003d60 <HAL_RCCEx_PeriphCLKConfig+0x16c>
 8003e9a:	f5b2 5f40 	cmp.w	r2, #12288	; 0x3000
 8003e9e:	f43f af75 	beq.w	8003d8c <HAL_RCCEx_PeriphCLKConfig+0x198>
 8003ea2:	f5b2 4f80 	cmp.w	r2, #16384	; 0x4000
 8003ea6:	f43f af71 	beq.w	8003d8c <HAL_RCCEx_PeriphCLKConfig+0x198>
 8003eaa:	2601      	movs	r6, #1
 8003eac:	4635      	mov	r5, r6
 8003eae:	e777      	b.n	8003da0 <HAL_RCCEx_PeriphCLKConfig+0x1ac>
 8003eb0:	f422 3180 	bic.w	r1, r2, #65536	; 0x10000
 8003eb4:	f5b1 2f80 	cmp.w	r1, #262144	; 0x40000
 8003eb8:	d085      	beq.n	8003dc6 <HAL_RCCEx_PeriphCLKConfig+0x1d2>
 8003eba:	f5b2 3f40 	cmp.w	r2, #196608	; 0x30000
 8003ebe:	d082      	beq.n	8003dc6 <HAL_RCCEx_PeriphCLKConfig+0x1d2>
 8003ec0:	2601      	movs	r6, #1
 8003ec2:	4635      	mov	r5, r6
 8003ec4:	e789      	b.n	8003dda <HAL_RCCEx_PeriphCLKConfig+0x1e6>
 8003ec6:	f022 5180 	bic.w	r1, r2, #268435456	; 0x10000000
 8003eca:	f1b1 4f80 	cmp.w	r1, #1073741824	; 0x40000000
 8003ece:	d097      	beq.n	8003e00 <HAL_RCCEx_PeriphCLKConfig+0x20c>
 8003ed0:	f1b2 5f40 	cmp.w	r2, #805306368	; 0x30000000
 8003ed4:	d094      	beq.n	8003e00 <HAL_RCCEx_PeriphCLKConfig+0x20c>
 8003ed6:	2601      	movs	r6, #1
 8003ed8:	4635      	mov	r5, r6
 8003eda:	e79c      	b.n	8003e16 <HAL_RCCEx_PeriphCLKConfig+0x222>
 8003edc:	58024400 	.word	0x58024400
 8003ee0:	2102      	movs	r1, #2
 8003ee2:	1d20      	adds	r0, r4, #4
 8003ee4:	f7ff fd8e 	bl	8003a04 <RCCEx_PLL2_Config>
 8003ee8:	6823      	ldr	r3, [r4, #0]
 8003eea:	4605      	mov	r5, r0
 8003eec:	2d00      	cmp	r5, #0
 8003eee:	f000 828e 	beq.w	800440e <HAL_RCCEx_PeriphCLKConfig+0x81a>
 8003ef2:	462e      	mov	r6, r5
 8003ef4:	0259      	lsls	r1, r3, #9
 8003ef6:	f100 8208 	bmi.w	800430a <HAL_RCCEx_PeriphCLKConfig+0x716>
 8003efa:	07df      	lsls	r7, r3, #31
 8003efc:	d539      	bpl.n	8003f72 <HAL_RCCEx_PeriphCLKConfig+0x37e>
 8003efe:	6fa2      	ldr	r2, [r4, #120]	; 0x78
 8003f00:	2a28      	cmp	r2, #40	; 0x28
 8003f02:	f200 8174 	bhi.w	80041ee <HAL_RCCEx_PeriphCLKConfig+0x5fa>
 8003f06:	e8df f012 	tbh	[pc, r2, lsl #1]
 8003f0a:	0030      	.short	0x0030
 8003f0c:	01720172 	.word	0x01720172
 8003f10:	01720172 	.word	0x01720172
 8003f14:	01720172 	.word	0x01720172
 8003f18:	03580172 	.word	0x03580172
 8003f1c:	01720172 	.word	0x01720172
 8003f20:	01720172 	.word	0x01720172
 8003f24:	01720172 	.word	0x01720172
 8003f28:	00290172 	.word	0x00290172
 8003f2c:	01720172 	.word	0x01720172
 8003f30:	01720172 	.word	0x01720172
 8003f34:	01720172 	.word	0x01720172
 8003f38:	00300172 	.word	0x00300172
 8003f3c:	01720172 	.word	0x01720172
 8003f40:	01720172 	.word	0x01720172
 8003f44:	01720172 	.word	0x01720172
 8003f48:	00300172 	.word	0x00300172
 8003f4c:	01720172 	.word	0x01720172
 8003f50:	01720172 	.word	0x01720172
 8003f54:	01720172 	.word	0x01720172
 8003f58:	00300172 	.word	0x00300172
 8003f5c:	2101      	movs	r1, #1
 8003f5e:	f104 0024 	add.w	r0, r4, #36	; 0x24
 8003f62:	f7ff fdcb 	bl	8003afc <RCCEx_PLL3_Config>
 8003f66:	6823      	ldr	r3, [r4, #0]
 8003f68:	4605      	mov	r5, r0
 8003f6a:	2d00      	cmp	r5, #0
 8003f6c:	f000 826b 	beq.w	8004446 <HAL_RCCEx_PeriphCLKConfig+0x852>
 8003f70:	462e      	mov	r6, r5
 8003f72:	0798      	lsls	r0, r3, #30
 8003f74:	d516      	bpl.n	8003fa4 <HAL_RCCEx_PeriphCLKConfig+0x3b0>
 8003f76:	6f62      	ldr	r2, [r4, #116]	; 0x74
 8003f78:	2a05      	cmp	r2, #5
 8003f7a:	f200 8384 	bhi.w	8004686 <HAL_RCCEx_PeriphCLKConfig+0xa92>
 8003f7e:	e8df f012 	tbh	[pc, r2, lsl #1]
 8003f82:	000d      	.short	0x000d
 8003f84:	00060308 	.word	0x00060308
 8003f88:	000d000d 	.word	0x000d000d
 8003f8c:	000d      	.short	0x000d
 8003f8e:	2101      	movs	r1, #1
 8003f90:	f104 0024 	add.w	r0, r4, #36	; 0x24
 8003f94:	f7ff fdb2 	bl	8003afc <RCCEx_PLL3_Config>
 8003f98:	6823      	ldr	r3, [r4, #0]
 8003f9a:	4605      	mov	r5, r0
 8003f9c:	2d00      	cmp	r5, #0
 8003f9e:	f000 822c 	beq.w	80043fa <HAL_RCCEx_PeriphCLKConfig+0x806>
 8003fa2:	462e      	mov	r6, r5
 8003fa4:	0759      	lsls	r1, r3, #29
 8003fa6:	d517      	bpl.n	8003fd8 <HAL_RCCEx_PeriphCLKConfig+0x3e4>
 8003fa8:	f8d4 2090 	ldr.w	r2, [r4, #144]	; 0x90
 8003fac:	2a05      	cmp	r2, #5
 8003fae:	f200 8370 	bhi.w	8004692 <HAL_RCCEx_PeriphCLKConfig+0xa9e>
 8003fb2:	e8df f012 	tbh	[pc, r2, lsl #1]
 8003fb6:	000d      	.short	0x000d
 8003fb8:	000602f8 	.word	0x000602f8
 8003fbc:	000d000d 	.word	0x000d000d
 8003fc0:	000d      	.short	0x000d
 8003fc2:	2101      	movs	r1, #1
 8003fc4:	f104 0024 	add.w	r0, r4, #36	; 0x24
 8003fc8:	f7ff fd98 	bl	8003afc <RCCEx_PLL3_Config>
 8003fcc:	6823      	ldr	r3, [r4, #0]
 8003fce:	4605      	mov	r5, r0
 8003fd0:	2d00      	cmp	r5, #0
 8003fd2:	f000 8209 	beq.w	80043e8 <HAL_RCCEx_PeriphCLKConfig+0x7f4>
 8003fd6:	462e      	mov	r6, r5
 8003fd8:	069a      	lsls	r2, r3, #26
 8003fda:	d51d      	bpl.n	8004018 <HAL_RCCEx_PeriphCLKConfig+0x424>
 8003fdc:	f8d4 208c 	ldr.w	r2, [r4, #140]	; 0x8c
 8003fe0:	f1b2 5f00 	cmp.w	r2, #536870912	; 0x20000000
 8003fe4:	f000 8271 	beq.w	80044ca <HAL_RCCEx_PeriphCLKConfig+0x8d6>
 8003fe8:	f200 8121 	bhi.w	800422e <HAL_RCCEx_PeriphCLKConfig+0x63a>
 8003fec:	b14a      	cbz	r2, 8004002 <HAL_RCCEx_PeriphCLKConfig+0x40e>
 8003fee:	f1b2 5f80 	cmp.w	r2, #268435456	; 0x10000000
 8003ff2:	f040 8126 	bne.w	8004242 <HAL_RCCEx_PeriphCLKConfig+0x64e>
 8003ff6:	2100      	movs	r1, #0
 8003ff8:	1d20      	adds	r0, r4, #4
 8003ffa:	f7ff fd03 	bl	8003a04 <RCCEx_PLL2_Config>
 8003ffe:	6823      	ldr	r3, [r4, #0]
 8004000:	4605      	mov	r5, r0
 8004002:	2d00      	cmp	r5, #0
 8004004:	f040 8213 	bne.w	800442e <HAL_RCCEx_PeriphCLKConfig+0x83a>
 8004008:	49b9      	ldr	r1, [pc, #740]	; (80042f0 <HAL_RCCEx_PeriphCLKConfig+0x6fc>)
 800400a:	f8d4 008c 	ldr.w	r0, [r4, #140]	; 0x8c
 800400e:	6d4a      	ldr	r2, [r1, #84]	; 0x54
 8004010:	f022 42e0 	bic.w	r2, r2, #1879048192	; 0x70000000
 8004014:	4302      	orrs	r2, r0
 8004016:	654a      	str	r2, [r1, #84]	; 0x54
 8004018:	065f      	lsls	r7, r3, #25
 800401a:	d51d      	bpl.n	8004058 <HAL_RCCEx_PeriphCLKConfig+0x464>
 800401c:	f8d4 2098 	ldr.w	r2, [r4, #152]	; 0x98
 8004020:	f5b2 6f00 	cmp.w	r2, #2048	; 0x800
 8004024:	f000 823f 	beq.w	80044a6 <HAL_RCCEx_PeriphCLKConfig+0x8b2>
 8004028:	f200 8129 	bhi.w	800427e <HAL_RCCEx_PeriphCLKConfig+0x68a>
 800402c:	b14a      	cbz	r2, 8004042 <HAL_RCCEx_PeriphCLKConfig+0x44e>
 800402e:	f5b2 6f80 	cmp.w	r2, #1024	; 0x400
 8004032:	f040 812e 	bne.w	8004292 <HAL_RCCEx_PeriphCLKConfig+0x69e>
 8004036:	2100      	movs	r1, #0
 8004038:	1d20      	adds	r0, r4, #4
 800403a:	f7ff fce3 	bl	8003a04 <RCCEx_PLL2_Config>
 800403e:	6823      	ldr	r3, [r4, #0]
 8004040:	4605      	mov	r5, r0
 8004042:	2d00      	cmp	r5, #0
 8004044:	f040 81ef 	bne.w	8004426 <HAL_RCCEx_PeriphCLKConfig+0x832>
 8004048:	49a9      	ldr	r1, [pc, #676]	; (80042f0 <HAL_RCCEx_PeriphCLKConfig+0x6fc>)
 800404a:	f8d4 0098 	ldr.w	r0, [r4, #152]	; 0x98
 800404e:	6d8a      	ldr	r2, [r1, #88]	; 0x58
 8004050:	f422 52e0 	bic.w	r2, r2, #7168	; 0x1c00
 8004054:	4302      	orrs	r2, r0
 8004056:	658a      	str	r2, [r1, #88]	; 0x58
 8004058:	0618      	lsls	r0, r3, #24
 800405a:	d51d      	bpl.n	8004098 <HAL_RCCEx_PeriphCLKConfig+0x4a4>
 800405c:	f8d4 209c 	ldr.w	r2, [r4, #156]	; 0x9c
 8004060:	f5b2 4f80 	cmp.w	r2, #16384	; 0x4000
 8004064:	f000 8215 	beq.w	8004492 <HAL_RCCEx_PeriphCLKConfig+0x89e>
 8004068:	f200 80fc 	bhi.w	8004264 <HAL_RCCEx_PeriphCLKConfig+0x670>
 800406c:	b14a      	cbz	r2, 8004082 <HAL_RCCEx_PeriphCLKConfig+0x48e>
 800406e:	f5b2 5f00 	cmp.w	r2, #8192	; 0x2000
 8004072:	f040 8101 	bne.w	8004278 <HAL_RCCEx_PeriphCLKConfig+0x684>
 8004076:	2100      	movs	r1, #0
 8004078:	1d20      	adds	r0, r4, #4
 800407a:	f7ff fcc3 	bl	8003a04 <RCCEx_PLL2_Config>
 800407e:	6823      	ldr	r3, [r4, #0]
 8004080:	4605      	mov	r5, r0
 8004082:	2d00      	cmp	r5, #0
 8004084:	f040 81d1 	bne.w	800442a <HAL_RCCEx_PeriphCLKConfig+0x836>
 8004088:	4999      	ldr	r1, [pc, #612]	; (80042f0 <HAL_RCCEx_PeriphCLKConfig+0x6fc>)
 800408a:	f8d4 009c 	ldr.w	r0, [r4, #156]	; 0x9c
 800408e:	6d8a      	ldr	r2, [r1, #88]	; 0x58
 8004090:	f422 4260 	bic.w	r2, r2, #57344	; 0xe000
 8004094:	4302      	orrs	r2, r0
 8004096:	658a      	str	r2, [r1, #88]	; 0x58
 8004098:	0719      	lsls	r1, r3, #28
 800409a:	d50b      	bpl.n	80040b4 <HAL_RCCEx_PeriphCLKConfig+0x4c0>
 800409c:	f8d4 1080 	ldr.w	r1, [r4, #128]	; 0x80
 80040a0:	f5b1 5f80 	cmp.w	r1, #4096	; 0x1000
 80040a4:	f000 8225 	beq.w	80044f2 <HAL_RCCEx_PeriphCLKConfig+0x8fe>
 80040a8:	4891      	ldr	r0, [pc, #580]	; (80042f0 <HAL_RCCEx_PeriphCLKConfig+0x6fc>)
 80040aa:	6d42      	ldr	r2, [r0, #84]	; 0x54
 80040ac:	f422 5240 	bic.w	r2, r2, #12288	; 0x3000
 80040b0:	430a      	orrs	r2, r1
 80040b2:	6542      	str	r2, [r0, #84]	; 0x54
 80040b4:	06da      	lsls	r2, r3, #27
 80040b6:	d50b      	bpl.n	80040d0 <HAL_RCCEx_PeriphCLKConfig+0x4dc>
 80040b8:	f8d4 1094 	ldr.w	r1, [r4, #148]	; 0x94
 80040bc:	f5b1 7f80 	cmp.w	r1, #256	; 0x100
 80040c0:	f000 82b2 	beq.w	8004628 <HAL_RCCEx_PeriphCLKConfig+0xa34>
 80040c4:	488a      	ldr	r0, [pc, #552]	; (80042f0 <HAL_RCCEx_PeriphCLKConfig+0x6fc>)
 80040c6:	6d82      	ldr	r2, [r0, #88]	; 0x58
 80040c8:	f422 7240 	bic.w	r2, r2, #768	; 0x300
 80040cc:	430a      	orrs	r2, r1
 80040ce:	6582      	str	r2, [r0, #88]	; 0x58
 80040d0:	031f      	lsls	r7, r3, #12
 80040d2:	d50e      	bpl.n	80040f2 <HAL_RCCEx_PeriphCLKConfig+0x4fe>
 80040d4:	f8d4 10a0 	ldr.w	r1, [r4, #160]	; 0xa0
 80040d8:	f5b1 3f80 	cmp.w	r1, #65536	; 0x10000
 80040dc:	f000 80f2 	beq.w	80042c4 <HAL_RCCEx_PeriphCLKConfig+0x6d0>
 80040e0:	f5b1 3f00 	cmp.w	r1, #131072	; 0x20000
 80040e4:	f000 80f5 	beq.w	80042d2 <HAL_RCCEx_PeriphCLKConfig+0x6de>
 80040e8:	2900      	cmp	r1, #0
 80040ea:	f000 828b 	beq.w	8004604 <HAL_RCCEx_PeriphCLKConfig+0xa10>
 80040ee:	2601      	movs	r6, #1
 80040f0:	4635      	mov	r5, r6
 80040f2:	0358      	lsls	r0, r3, #13
 80040f4:	d50f      	bpl.n	8004116 <HAL_RCCEx_PeriphCLKConfig+0x522>
 80040f6:	f8d4 2084 	ldr.w	r2, [r4, #132]	; 0x84
 80040fa:	f5b2 1f00 	cmp.w	r2, #2097152	; 0x200000
 80040fe:	f000 80cb 	beq.w	8004298 <HAL_RCCEx_PeriphCLKConfig+0x6a4>
 8004102:	f5b2 1f40 	cmp.w	r2, #3145728	; 0x300000
 8004106:	f000 80ce 	beq.w	80042a6 <HAL_RCCEx_PeriphCLKConfig+0x6b2>
 800410a:	f5b2 1f80 	cmp.w	r2, #1048576	; 0x100000
 800410e:	f000 8282 	beq.w	8004616 <HAL_RCCEx_PeriphCLKConfig+0xa22>
 8004112:	2601      	movs	r6, #1
 8004114:	4635      	mov	r5, r6
 8004116:	03d9      	lsls	r1, r3, #15
 8004118:	d517      	bpl.n	800414a <HAL_RCCEx_PeriphCLKConfig+0x556>
 800411a:	6ce2      	ldr	r2, [r4, #76]	; 0x4c
 800411c:	2a00      	cmp	r2, #0
 800411e:	f000 825f 	beq.w	80045e0 <HAL_RCCEx_PeriphCLKConfig+0x9ec>
 8004122:	f5b2 3f80 	cmp.w	r2, #65536	; 0x10000
 8004126:	f040 8132 	bne.w	800438e <HAL_RCCEx_PeriphCLKConfig+0x79a>
 800412a:	2102      	movs	r1, #2
 800412c:	1d20      	adds	r0, r4, #4
 800412e:	f7ff fc69 	bl	8003a04 <RCCEx_PLL2_Config>
 8004132:	4605      	mov	r5, r0
 8004134:	6823      	ldr	r3, [r4, #0]
 8004136:	2d00      	cmp	r5, #0
 8004138:	f040 818d 	bne.w	8004456 <HAL_RCCEx_PeriphCLKConfig+0x862>
 800413c:	496c      	ldr	r1, [pc, #432]	; (80042f0 <HAL_RCCEx_PeriphCLKConfig+0x6fc>)
 800413e:	6ce0      	ldr	r0, [r4, #76]	; 0x4c
 8004140:	6cca      	ldr	r2, [r1, #76]	; 0x4c
 8004142:	f422 3280 	bic.w	r2, r2, #65536	; 0x10000
 8004146:	4302      	orrs	r2, r0
 8004148:	64ca      	str	r2, [r1, #76]	; 0x4c
 800414a:	009a      	lsls	r2, r3, #2
 800414c:	f100 80d2 	bmi.w	80042f4 <HAL_RCCEx_PeriphCLKConfig+0x700>
 8004150:	039f      	lsls	r7, r3, #14
 8004152:	d43f      	bmi.n	80041d4 <HAL_RCCEx_PeriphCLKConfig+0x5e0>
 8004154:	1e30      	subs	r0, r6, #0
 8004156:	bf18      	it	ne
 8004158:	2001      	movne	r0, #1
 800415a:	02de      	lsls	r6, r3, #11
 800415c:	d506      	bpl.n	800416c <HAL_RCCEx_PeriphCLKConfig+0x578>
 800415e:	4964      	ldr	r1, [pc, #400]	; (80042f0 <HAL_RCCEx_PeriphCLKConfig+0x6fc>)
 8004160:	6f25      	ldr	r5, [r4, #112]	; 0x70
 8004162:	6d0a      	ldr	r2, [r1, #80]	; 0x50
 8004164:	f022 4200 	bic.w	r2, r2, #2147483648	; 0x80000000
 8004168:	432a      	orrs	r2, r5
 800416a:	650a      	str	r2, [r1, #80]	; 0x50
 800416c:	00dd      	lsls	r5, r3, #3
 800416e:	d507      	bpl.n	8004180 <HAL_RCCEx_PeriphCLKConfig+0x58c>
 8004170:	495f      	ldr	r1, [pc, #380]	; (80042f0 <HAL_RCCEx_PeriphCLKConfig+0x6fc>)
 8004172:	f8d4 50b4 	ldr.w	r5, [r4, #180]	; 0xb4
 8004176:	690a      	ldr	r2, [r1, #16]
 8004178:	f422 4280 	bic.w	r2, r2, #16384	; 0x4000
 800417c:	432a      	orrs	r2, r5
 800417e:	610a      	str	r2, [r1, #16]
 8004180:	0299      	lsls	r1, r3, #10
 8004182:	d506      	bpl.n	8004192 <HAL_RCCEx_PeriphCLKConfig+0x59e>
 8004184:	495a      	ldr	r1, [pc, #360]	; (80042f0 <HAL_RCCEx_PeriphCLKConfig+0x6fc>)
 8004186:	6ea5      	ldr	r5, [r4, #104]	; 0x68
 8004188:	6d0a      	ldr	r2, [r1, #80]	; 0x50
 800418a:	f022 7280 	bic.w	r2, r2, #16777216	; 0x1000000
 800418e:	432a      	orrs	r2, r5
 8004190:	650a      	str	r2, [r1, #80]	; 0x50
 8004192:	005a      	lsls	r2, r3, #1
 8004194:	d509      	bpl.n	80041aa <HAL_RCCEx_PeriphCLKConfig+0x5b6>
 8004196:	4a56      	ldr	r2, [pc, #344]	; (80042f0 <HAL_RCCEx_PeriphCLKConfig+0x6fc>)
 8004198:	6911      	ldr	r1, [r2, #16]
 800419a:	f421 4100 	bic.w	r1, r1, #32768	; 0x8000
 800419e:	6111      	str	r1, [r2, #16]
 80041a0:	6911      	ldr	r1, [r2, #16]
 80041a2:	f8d4 50b8 	ldr.w	r5, [r4, #184]	; 0xb8
 80041a6:	4329      	orrs	r1, r5
 80041a8:	6111      	str	r1, [r2, #16]
 80041aa:	2b00      	cmp	r3, #0
 80041ac:	da06      	bge.n	80041bc <HAL_RCCEx_PeriphCLKConfig+0x5c8>
 80041ae:	4950      	ldr	r1, [pc, #320]	; (80042f0 <HAL_RCCEx_PeriphCLKConfig+0x6fc>)
 80041b0:	6d25      	ldr	r5, [r4, #80]	; 0x50
 80041b2:	6cca      	ldr	r2, [r1, #76]	; 0x4c
 80041b4:	f022 5240 	bic.w	r2, r2, #805306368	; 0x30000000
 80041b8:	432a      	orrs	r2, r5
 80041ba:	64ca      	str	r2, [r1, #76]	; 0x4c
 80041bc:	021b      	lsls	r3, r3, #8
 80041be:	d507      	bpl.n	80041d0 <HAL_RCCEx_PeriphCLKConfig+0x5dc>
 80041c0:	4a4b      	ldr	r2, [pc, #300]	; (80042f0 <HAL_RCCEx_PeriphCLKConfig+0x6fc>)
 80041c2:	f8d4 1088 	ldr.w	r1, [r4, #136]	; 0x88
 80041c6:	6d53      	ldr	r3, [r2, #84]	; 0x54
 80041c8:	f423 0340 	bic.w	r3, r3, #12582912	; 0xc00000
 80041cc:	430b      	orrs	r3, r1
 80041ce:	6553      	str	r3, [r2, #84]	; 0x54
 80041d0:	e8bd 83f8 	ldmia.w	sp!, {r3, r4, r5, r6, r7, r8, r9, pc}
 80041d4:	6fe2      	ldr	r2, [r4, #124]	; 0x7c
 80041d6:	f5b2 7f80 	cmp.w	r2, #256	; 0x100
 80041da:	f000 820a 	beq.w	80045f2 <HAL_RCCEx_PeriphCLKConfig+0x9fe>
 80041de:	d933      	bls.n	8004248 <HAL_RCCEx_PeriphCLKConfig+0x654>
 80041e0:	f422 7180 	bic.w	r1, r2, #256	; 0x100
 80041e4:	f5b1 7f00 	cmp.w	r1, #512	; 0x200
 80041e8:	d030      	beq.n	800424c <HAL_RCCEx_PeriphCLKConfig+0x658>
 80041ea:	2001      	movs	r0, #1
 80041ec:	e7b5      	b.n	800415a <HAL_RCCEx_PeriphCLKConfig+0x566>
 80041ee:	2601      	movs	r6, #1
 80041f0:	4635      	mov	r5, r6
 80041f2:	e6be      	b.n	8003f72 <HAL_RCCEx_PeriphCLKConfig+0x37e>
 80041f4:	4635      	mov	r5, r6
 80041f6:	2d00      	cmp	r5, #0
 80041f8:	f040 80cc 	bne.w	8004394 <HAL_RCCEx_PeriphCLKConfig+0x7a0>
 80041fc:	493c      	ldr	r1, [pc, #240]	; (80042f0 <HAL_RCCEx_PeriphCLKConfig+0x6fc>)
 80041fe:	6d60      	ldr	r0, [r4, #84]	; 0x54
 8004200:	6d0a      	ldr	r2, [r1, #80]	; 0x50
 8004202:	f022 0207 	bic.w	r2, r2, #7
 8004206:	4302      	orrs	r2, r0
 8004208:	650a      	str	r2, [r1, #80]	; 0x50
 800420a:	e52c      	b.n	8003c66 <HAL_RCCEx_PeriphCLKConfig+0x72>
 800420c:	2101      	movs	r1, #1
 800420e:	1d20      	adds	r0, r4, #4
 8004210:	f7ff fbf8 	bl	8003a04 <RCCEx_PLL2_Config>
 8004214:	6823      	ldr	r3, [r4, #0]
 8004216:	4605      	mov	r5, r0
 8004218:	2d00      	cmp	r5, #0
 800421a:	f040 80e3 	bne.w	80043e4 <HAL_RCCEx_PeriphCLKConfig+0x7f0>
 800421e:	4934      	ldr	r1, [pc, #208]	; (80042f0 <HAL_RCCEx_PeriphCLKConfig+0x6fc>)
 8004220:	6ee0      	ldr	r0, [r4, #108]	; 0x6c
 8004222:	6d0a      	ldr	r2, [r1, #80]	; 0x50
 8004224:	f022 5240 	bic.w	r2, r2, #805306368	; 0x30000000
 8004228:	4302      	orrs	r2, r0
 800422a:	650a      	str	r2, [r1, #80]	; 0x50
 800422c:	e603      	b.n	8003e36 <HAL_RCCEx_PeriphCLKConfig+0x242>
 800422e:	f022 5180 	bic.w	r1, r2, #268435456	; 0x10000000
 8004232:	f1b1 4f80 	cmp.w	r1, #1073741824	; 0x40000000
 8004236:	f43f aee4 	beq.w	8004002 <HAL_RCCEx_PeriphCLKConfig+0x40e>
 800423a:	f1b2 5f40 	cmp.w	r2, #805306368	; 0x30000000
 800423e:	f43f aee0 	beq.w	8004002 <HAL_RCCEx_PeriphCLKConfig+0x40e>
 8004242:	2601      	movs	r6, #1
 8004244:	4635      	mov	r5, r6
 8004246:	e6e7      	b.n	8004018 <HAL_RCCEx_PeriphCLKConfig+0x424>
 8004248:	2a00      	cmp	r2, #0
 800424a:	d1ce      	bne.n	80041ea <HAL_RCCEx_PeriphCLKConfig+0x5f6>
 800424c:	2d00      	cmp	r5, #0
 800424e:	d1cc      	bne.n	80041ea <HAL_RCCEx_PeriphCLKConfig+0x5f6>
 8004250:	4d27      	ldr	r5, [pc, #156]	; (80042f0 <HAL_RCCEx_PeriphCLKConfig+0x6fc>)
 8004252:	1e30      	subs	r0, r6, #0
 8004254:	6d69      	ldr	r1, [r5, #84]	; 0x54
 8004256:	bf18      	it	ne
 8004258:	2001      	movne	r0, #1
 800425a:	f421 7140 	bic.w	r1, r1, #768	; 0x300
 800425e:	430a      	orrs	r2, r1
 8004260:	656a      	str	r2, [r5, #84]	; 0x54
 8004262:	e77a      	b.n	800415a <HAL_RCCEx_PeriphCLKConfig+0x566>
 8004264:	f422 5100 	bic.w	r1, r2, #8192	; 0x2000
 8004268:	f5b1 4f00 	cmp.w	r1, #32768	; 0x8000
 800426c:	f43f af09 	beq.w	8004082 <HAL_RCCEx_PeriphCLKConfig+0x48e>
 8004270:	f5b2 4fc0 	cmp.w	r2, #24576	; 0x6000
 8004274:	f43f af05 	beq.w	8004082 <HAL_RCCEx_PeriphCLKConfig+0x48e>
 8004278:	2601      	movs	r6, #1
 800427a:	4635      	mov	r5, r6
 800427c:	e70c      	b.n	8004098 <HAL_RCCEx_PeriphCLKConfig+0x4a4>
 800427e:	f422 6180 	bic.w	r1, r2, #1024	; 0x400
 8004282:	f5b1 5f80 	cmp.w	r1, #4096	; 0x1000
 8004286:	f43f aedc 	beq.w	8004042 <HAL_RCCEx_PeriphCLKConfig+0x44e>
 800428a:	f5b2 6f40 	cmp.w	r2, #3072	; 0xc00
 800428e:	f43f aed8 	beq.w	8004042 <HAL_RCCEx_PeriphCLKConfig+0x44e>
 8004292:	2601      	movs	r6, #1
 8004294:	4635      	mov	r5, r6
 8004296:	e6df      	b.n	8004058 <HAL_RCCEx_PeriphCLKConfig+0x464>
 8004298:	2101      	movs	r1, #1
 800429a:	f104 0024 	add.w	r0, r4, #36	; 0x24
 800429e:	f7ff fc2d 	bl	8003afc <RCCEx_PLL3_Config>
 80042a2:	6823      	ldr	r3, [r4, #0]
 80042a4:	4605      	mov	r5, r0
 80042a6:	2d00      	cmp	r5, #0
 80042a8:	f040 80c8 	bne.w	800443c <HAL_RCCEx_PeriphCLKConfig+0x848>
 80042ac:	4910      	ldr	r1, [pc, #64]	; (80042f0 <HAL_RCCEx_PeriphCLKConfig+0x6fc>)
 80042ae:	f8d4 0084 	ldr.w	r0, [r4, #132]	; 0x84
 80042b2:	6d4a      	ldr	r2, [r1, #84]	; 0x54
 80042b4:	f422 1240 	bic.w	r2, r2, #3145728	; 0x300000
 80042b8:	4302      	orrs	r2, r0
 80042ba:	654a      	str	r2, [r1, #84]	; 0x54
 80042bc:	03d9      	lsls	r1, r3, #15
 80042be:	f57f af44 	bpl.w	800414a <HAL_RCCEx_PeriphCLKConfig+0x556>
 80042c2:	e72a      	b.n	800411a <HAL_RCCEx_PeriphCLKConfig+0x526>
 80042c4:	2102      	movs	r1, #2
 80042c6:	f104 0024 	add.w	r0, r4, #36	; 0x24
 80042ca:	f7ff fc17 	bl	8003afc <RCCEx_PLL3_Config>
 80042ce:	6823      	ldr	r3, [r4, #0]
 80042d0:	4605      	mov	r5, r0
 80042d2:	2d00      	cmp	r5, #0
 80042d4:	f040 80ad 	bne.w	8004432 <HAL_RCCEx_PeriphCLKConfig+0x83e>
 80042d8:	4905      	ldr	r1, [pc, #20]	; (80042f0 <HAL_RCCEx_PeriphCLKConfig+0x6fc>)
 80042da:	f8d4 00a0 	ldr.w	r0, [r4, #160]	; 0xa0
 80042de:	6d8a      	ldr	r2, [r1, #88]	; 0x58
 80042e0:	f422 3240 	bic.w	r2, r2, #196608	; 0x30000
 80042e4:	4302      	orrs	r2, r0
 80042e6:	0358      	lsls	r0, r3, #13
 80042e8:	658a      	str	r2, [r1, #88]	; 0x58
 80042ea:	f57f af14 	bpl.w	8004116 <HAL_RCCEx_PeriphCLKConfig+0x522>
 80042ee:	e702      	b.n	80040f6 <HAL_RCCEx_PeriphCLKConfig+0x502>
 80042f0:	58024400 	.word	0x58024400
 80042f4:	2102      	movs	r1, #2
 80042f6:	f104 0024 	add.w	r0, r4, #36	; 0x24
 80042fa:	f7ff fbff 	bl	8003afc <RCCEx_PLL3_Config>
 80042fe:	6823      	ldr	r3, [r4, #0]
 8004300:	2800      	cmp	r0, #0
 8004302:	f43f af25 	beq.w	8004150 <HAL_RCCEx_PeriphCLKConfig+0x55c>
 8004306:	2601      	movs	r6, #1
 8004308:	e722      	b.n	8004150 <HAL_RCCEx_PeriphCLKConfig+0x55c>
 800430a:	4bb3      	ldr	r3, [pc, #716]	; (80045d8 <HAL_RCCEx_PeriphCLKConfig+0x9e4>)
 800430c:	681a      	ldr	r2, [r3, #0]
 800430e:	4698      	mov	r8, r3
 8004310:	f442 7280 	orr.w	r2, r2, #256	; 0x100
 8004314:	601a      	str	r2, [r3, #0]
 8004316:	f7fc f99b 	bl	8000650 <HAL_GetTick>
 800431a:	4607      	mov	r7, r0
 800431c:	e005      	b.n	800432a <HAL_RCCEx_PeriphCLKConfig+0x736>
 800431e:	f7fc f997 	bl	8000650 <HAL_GetTick>
 8004322:	1bc0      	subs	r0, r0, r7
 8004324:	2864      	cmp	r0, #100	; 0x64
 8004326:	f200 8152 	bhi.w	80045ce <HAL_RCCEx_PeriphCLKConfig+0x9da>
 800432a:	f8d8 3000 	ldr.w	r3, [r8]
 800432e:	05da      	lsls	r2, r3, #23
 8004330:	d5f5      	bpl.n	800431e <HAL_RCCEx_PeriphCLKConfig+0x72a>
 8004332:	2d00      	cmp	r5, #0
 8004334:	f040 81a1 	bne.w	800467a <HAL_RCCEx_PeriphCLKConfig+0xa86>
 8004338:	4aa8      	ldr	r2, [pc, #672]	; (80045dc <HAL_RCCEx_PeriphCLKConfig+0x9e8>)
 800433a:	f8d4 30b0 	ldr.w	r3, [r4, #176]	; 0xb0
 800433e:	6f11      	ldr	r1, [r2, #112]	; 0x70
 8004340:	4059      	eors	r1, r3
 8004342:	f411 7f40 	tst.w	r1, #768	; 0x300
 8004346:	d00b      	beq.n	8004360 <HAL_RCCEx_PeriphCLKConfig+0x76c>
 8004348:	6f11      	ldr	r1, [r2, #112]	; 0x70
 800434a:	6f10      	ldr	r0, [r2, #112]	; 0x70
 800434c:	f421 7140 	bic.w	r1, r1, #768	; 0x300
 8004350:	f440 3080 	orr.w	r0, r0, #65536	; 0x10000
 8004354:	6710      	str	r0, [r2, #112]	; 0x70
 8004356:	6f10      	ldr	r0, [r2, #112]	; 0x70
 8004358:	f420 3080 	bic.w	r0, r0, #65536	; 0x10000
 800435c:	6710      	str	r0, [r2, #112]	; 0x70
 800435e:	6711      	str	r1, [r2, #112]	; 0x70
 8004360:	f5b3 7f80 	cmp.w	r3, #256	; 0x100
 8004364:	f000 816b 	beq.w	800463e <HAL_RCCEx_PeriphCLKConfig+0xa4a>
 8004368:	f403 7240 	and.w	r2, r3, #768	; 0x300
 800436c:	f5b2 7f40 	cmp.w	r2, #768	; 0x300
 8004370:	f000 8179 	beq.w	8004666 <HAL_RCCEx_PeriphCLKConfig+0xa72>
 8004374:	4999      	ldr	r1, [pc, #612]	; (80045dc <HAL_RCCEx_PeriphCLKConfig+0x9e8>)
 8004376:	690a      	ldr	r2, [r1, #16]
 8004378:	f422 527c 	bic.w	r2, r2, #16128	; 0x3f00
 800437c:	610a      	str	r2, [r1, #16]
 800437e:	4a97      	ldr	r2, [pc, #604]	; (80045dc <HAL_RCCEx_PeriphCLKConfig+0x9e8>)
 8004380:	f3c3 030b 	ubfx	r3, r3, #0, #12
 8004384:	6f11      	ldr	r1, [r2, #112]	; 0x70
 8004386:	430b      	orrs	r3, r1
 8004388:	6713      	str	r3, [r2, #112]	; 0x70
 800438a:	6823      	ldr	r3, [r4, #0]
 800438c:	e5b5      	b.n	8003efa <HAL_RCCEx_PeriphCLKConfig+0x306>
 800438e:	2601      	movs	r6, #1
 8004390:	4635      	mov	r5, r6
 8004392:	e6da      	b.n	800414a <HAL_RCCEx_PeriphCLKConfig+0x556>
 8004394:	462e      	mov	r6, r5
 8004396:	e466      	b.n	8003c66 <HAL_RCCEx_PeriphCLKConfig+0x72>
 8004398:	462e      	mov	r6, r5
 800439a:	e4c6      	b.n	8003d2a <HAL_RCCEx_PeriphCLKConfig+0x136>
 800439c:	462e      	mov	r6, r5
 800439e:	e4ff      	b.n	8003da0 <HAL_RCCEx_PeriphCLKConfig+0x1ac>
 80043a0:	462e      	mov	r6, r5
 80043a2:	e47e      	b.n	8003ca2 <HAL_RCCEx_PeriphCLKConfig+0xae>
 80043a4:	462e      	mov	r6, r5
 80043a6:	e49e      	b.n	8003ce6 <HAL_RCCEx_PeriphCLKConfig+0xf2>
 80043a8:	498c      	ldr	r1, [pc, #560]	; (80045dc <HAL_RCCEx_PeriphCLKConfig+0x9e8>)
 80043aa:	6aca      	ldr	r2, [r1, #44]	; 0x2c
 80043ac:	f442 3200 	orr.w	r2, r2, #131072	; 0x20000
 80043b0:	62ca      	str	r2, [r1, #44]	; 0x2c
 80043b2:	e4eb      	b.n	8003d8c <HAL_RCCEx_PeriphCLKConfig+0x198>
 80043b4:	4989      	ldr	r1, [pc, #548]	; (80045dc <HAL_RCCEx_PeriphCLKConfig+0x9e8>)
 80043b6:	6aca      	ldr	r2, [r1, #44]	; 0x2c
 80043b8:	f442 3200 	orr.w	r2, r2, #131072	; 0x20000
 80043bc:	62ca      	str	r2, [r1, #44]	; 0x2c
 80043be:	e487      	b.n	8003cd0 <HAL_RCCEx_PeriphCLKConfig+0xdc>
 80043c0:	4986      	ldr	r1, [pc, #536]	; (80045dc <HAL_RCCEx_PeriphCLKConfig+0x9e8>)
 80043c2:	6aca      	ldr	r2, [r1, #44]	; 0x2c
 80043c4:	f442 3200 	orr.w	r2, r2, #131072	; 0x20000
 80043c8:	62ca      	str	r2, [r1, #44]	; 0x2c
 80043ca:	e460      	b.n	8003c8e <HAL_RCCEx_PeriphCLKConfig+0x9a>
 80043cc:	4883      	ldr	r0, [pc, #524]	; (80045dc <HAL_RCCEx_PeriphCLKConfig+0x9e8>)
 80043ce:	6ac1      	ldr	r1, [r0, #44]	; 0x2c
 80043d0:	f441 3100 	orr.w	r1, r1, #131072	; 0x20000
 80043d4:	62c1      	str	r1, [r0, #44]	; 0x2c
 80043d6:	e42a      	b.n	8003c2e <HAL_RCCEx_PeriphCLKConfig+0x3a>
 80043d8:	4980      	ldr	r1, [pc, #512]	; (80045dc <HAL_RCCEx_PeriphCLKConfig+0x9e8>)
 80043da:	6aca      	ldr	r2, [r1, #44]	; 0x2c
 80043dc:	f442 3200 	orr.w	r2, r2, #131072	; 0x20000
 80043e0:	62ca      	str	r2, [r1, #44]	; 0x2c
 80043e2:	e497      	b.n	8003d14 <HAL_RCCEx_PeriphCLKConfig+0x120>
 80043e4:	462e      	mov	r6, r5
 80043e6:	e526      	b.n	8003e36 <HAL_RCCEx_PeriphCLKConfig+0x242>
 80043e8:	497c      	ldr	r1, [pc, #496]	; (80045dc <HAL_RCCEx_PeriphCLKConfig+0x9e8>)
 80043ea:	f8d4 0090 	ldr.w	r0, [r4, #144]	; 0x90
 80043ee:	6d8a      	ldr	r2, [r1, #88]	; 0x58
 80043f0:	f022 0207 	bic.w	r2, r2, #7
 80043f4:	4302      	orrs	r2, r0
 80043f6:	658a      	str	r2, [r1, #88]	; 0x58
 80043f8:	e5ee      	b.n	8003fd8 <HAL_RCCEx_PeriphCLKConfig+0x3e4>
 80043fa:	4978      	ldr	r1, [pc, #480]	; (80045dc <HAL_RCCEx_PeriphCLKConfig+0x9e8>)
 80043fc:	6f60      	ldr	r0, [r4, #116]	; 0x74
 80043fe:	6d4a      	ldr	r2, [r1, #84]	; 0x54
 8004400:	f022 0207 	bic.w	r2, r2, #7
 8004404:	4302      	orrs	r2, r0
 8004406:	654a      	str	r2, [r1, #84]	; 0x54
 8004408:	e5cc      	b.n	8003fa4 <HAL_RCCEx_PeriphCLKConfig+0x3b0>
 800440a:	462e      	mov	r6, r5
 800440c:	e503      	b.n	8003e16 <HAL_RCCEx_PeriphCLKConfig+0x222>
 800440e:	4973      	ldr	r1, [pc, #460]	; (80045dc <HAL_RCCEx_PeriphCLKConfig+0x9e8>)
 8004410:	6c60      	ldr	r0, [r4, #68]	; 0x44
 8004412:	6cca      	ldr	r2, [r1, #76]	; 0x4c
 8004414:	f022 0203 	bic.w	r2, r2, #3
 8004418:	4302      	orrs	r2, r0
 800441a:	64ca      	str	r2, [r1, #76]	; 0x4c
 800441c:	e56a      	b.n	8003ef4 <HAL_RCCEx_PeriphCLKConfig+0x300>
 800441e:	462e      	mov	r6, r5
 8004420:	e49e      	b.n	8003d60 <HAL_RCCEx_PeriphCLKConfig+0x16c>
 8004422:	462e      	mov	r6, r5
 8004424:	e4d9      	b.n	8003dda <HAL_RCCEx_PeriphCLKConfig+0x1e6>
 8004426:	462e      	mov	r6, r5
 8004428:	e616      	b.n	8004058 <HAL_RCCEx_PeriphCLKConfig+0x464>
 800442a:	462e      	mov	r6, r5
 800442c:	e634      	b.n	8004098 <HAL_RCCEx_PeriphCLKConfig+0x4a4>
 800442e:	462e      	mov	r6, r5
 8004430:	e5f2      	b.n	8004018 <HAL_RCCEx_PeriphCLKConfig+0x424>
 8004432:	0358      	lsls	r0, r3, #13
 8004434:	462e      	mov	r6, r5
 8004436:	f57f ae6e 	bpl.w	8004116 <HAL_RCCEx_PeriphCLKConfig+0x522>
 800443a:	e65c      	b.n	80040f6 <HAL_RCCEx_PeriphCLKConfig+0x502>
 800443c:	03d9      	lsls	r1, r3, #15
 800443e:	462e      	mov	r6, r5
 8004440:	f57f ae83 	bpl.w	800414a <HAL_RCCEx_PeriphCLKConfig+0x556>
 8004444:	e669      	b.n	800411a <HAL_RCCEx_PeriphCLKConfig+0x526>
 8004446:	4965      	ldr	r1, [pc, #404]	; (80045dc <HAL_RCCEx_PeriphCLKConfig+0x9e8>)
 8004448:	6fa0      	ldr	r0, [r4, #120]	; 0x78
 800444a:	6d4a      	ldr	r2, [r1, #84]	; 0x54
 800444c:	f022 0238 	bic.w	r2, r2, #56	; 0x38
 8004450:	4302      	orrs	r2, r0
 8004452:	654a      	str	r2, [r1, #84]	; 0x54
 8004454:	e58d      	b.n	8003f72 <HAL_RCCEx_PeriphCLKConfig+0x37e>
 8004456:	462e      	mov	r6, r5
 8004458:	e677      	b.n	800414a <HAL_RCCEx_PeriphCLKConfig+0x556>
 800445a:	2102      	movs	r1, #2
 800445c:	1d20      	adds	r0, r4, #4
 800445e:	f7ff fad1 	bl	8003a04 <RCCEx_PLL2_Config>
 8004462:	4605      	mov	r5, r0
 8004464:	6823      	ldr	r3, [r4, #0]
 8004466:	2d00      	cmp	r5, #0
 8004468:	d1d9      	bne.n	800441e <HAL_RCCEx_PeriphCLKConfig+0x82a>
 800446a:	e472      	b.n	8003d52 <HAL_RCCEx_PeriphCLKConfig+0x15e>
 800446c:	495b      	ldr	r1, [pc, #364]	; (80045dc <HAL_RCCEx_PeriphCLKConfig+0x9e8>)
 800446e:	6aca      	ldr	r2, [r1, #44]	; 0x2c
 8004470:	f442 3200 	orr.w	r2, r2, #131072	; 0x20000
 8004474:	62ca      	str	r2, [r1, #44]	; 0x2c
 8004476:	2d00      	cmp	r5, #0
 8004478:	f47f ad3b 	bne.w	8003ef2 <HAL_RCCEx_PeriphCLKConfig+0x2fe>
 800447c:	e7c7      	b.n	800440e <HAL_RCCEx_PeriphCLKConfig+0x81a>
 800447e:	2101      	movs	r1, #1
 8004480:	f104 0024 	add.w	r0, r4, #36	; 0x24
 8004484:	f7ff fb3a 	bl	8003afc <RCCEx_PLL3_Config>
 8004488:	4605      	mov	r5, r0
 800448a:	6823      	ldr	r3, [r4, #0]
 800448c:	2d00      	cmp	r5, #0
 800448e:	d1bc      	bne.n	800440a <HAL_RCCEx_PeriphCLKConfig+0x816>
 8004490:	e4b9      	b.n	8003e06 <HAL_RCCEx_PeriphCLKConfig+0x212>
 8004492:	2102      	movs	r1, #2
 8004494:	f104 0024 	add.w	r0, r4, #36	; 0x24
 8004498:	f7ff fb30 	bl	8003afc <RCCEx_PLL3_Config>
 800449c:	4605      	mov	r5, r0
 800449e:	6823      	ldr	r3, [r4, #0]
 80044a0:	2d00      	cmp	r5, #0
 80044a2:	d1c2      	bne.n	800442a <HAL_RCCEx_PeriphCLKConfig+0x836>
 80044a4:	e5f0      	b.n	8004088 <HAL_RCCEx_PeriphCLKConfig+0x494>
 80044a6:	2102      	movs	r1, #2
 80044a8:	f104 0024 	add.w	r0, r4, #36	; 0x24
 80044ac:	f7ff fb26 	bl	8003afc <RCCEx_PLL3_Config>
 80044b0:	4605      	mov	r5, r0
 80044b2:	6823      	ldr	r3, [r4, #0]
 80044b4:	2d00      	cmp	r5, #0
 80044b6:	d1b6      	bne.n	8004426 <HAL_RCCEx_PeriphCLKConfig+0x832>
 80044b8:	e5c6      	b.n	8004048 <HAL_RCCEx_PeriphCLKConfig+0x454>
 80044ba:	4948      	ldr	r1, [pc, #288]	; (80045dc <HAL_RCCEx_PeriphCLKConfig+0x9e8>)
 80044bc:	6aca      	ldr	r2, [r1, #44]	; 0x2c
 80044be:	f442 3200 	orr.w	r2, r2, #131072	; 0x20000
 80044c2:	62ca      	str	r2, [r1, #44]	; 0x2c
 80044c4:	2d00      	cmp	r5, #0
 80044c6:	d18d      	bne.n	80043e4 <HAL_RCCEx_PeriphCLKConfig+0x7f0>
 80044c8:	e6a9      	b.n	800421e <HAL_RCCEx_PeriphCLKConfig+0x62a>
 80044ca:	2102      	movs	r1, #2
 80044cc:	f104 0024 	add.w	r0, r4, #36	; 0x24
 80044d0:	f7ff fb14 	bl	8003afc <RCCEx_PLL3_Config>
 80044d4:	4605      	mov	r5, r0
 80044d6:	6823      	ldr	r3, [r4, #0]
 80044d8:	2d00      	cmp	r5, #0
 80044da:	d1a8      	bne.n	800442e <HAL_RCCEx_PeriphCLKConfig+0x83a>
 80044dc:	e594      	b.n	8004008 <HAL_RCCEx_PeriphCLKConfig+0x414>
 80044de:	2101      	movs	r1, #1
 80044e0:	f104 0024 	add.w	r0, r4, #36	; 0x24
 80044e4:	f7ff fb0a 	bl	8003afc <RCCEx_PLL3_Config>
 80044e8:	4605      	mov	r5, r0
 80044ea:	6823      	ldr	r3, [r4, #0]
 80044ec:	2d00      	cmp	r5, #0
 80044ee:	d198      	bne.n	8004422 <HAL_RCCEx_PeriphCLKConfig+0x82e>
 80044f0:	e46c      	b.n	8003dcc <HAL_RCCEx_PeriphCLKConfig+0x1d8>
 80044f2:	2102      	movs	r1, #2
 80044f4:	f104 0024 	add.w	r0, r4, #36	; 0x24
 80044f8:	f7ff fb00 	bl	8003afc <RCCEx_PLL3_Config>
 80044fc:	f8d4 1080 	ldr.w	r1, [r4, #128]	; 0x80
 8004500:	b100      	cbz	r0, 8004504 <HAL_RCCEx_PeriphCLKConfig+0x910>
 8004502:	2601      	movs	r6, #1
 8004504:	6823      	ldr	r3, [r4, #0]
 8004506:	e5cf      	b.n	80040a8 <HAL_RCCEx_PeriphCLKConfig+0x4b4>
 8004508:	2100      	movs	r1, #0
 800450a:	f104 0024 	add.w	r0, r4, #36	; 0x24
 800450e:	f7ff faf5 	bl	8003afc <RCCEx_PLL3_Config>
 8004512:	6823      	ldr	r3, [r4, #0]
 8004514:	4605      	mov	r5, r0
 8004516:	e439      	b.n	8003d8c <HAL_RCCEx_PeriphCLKConfig+0x198>
 8004518:	2100      	movs	r1, #0
 800451a:	f104 0024 	add.w	r0, r4, #36	; 0x24
 800451e:	f7ff faed 	bl	8003afc <RCCEx_PLL3_Config>
 8004522:	6823      	ldr	r3, [r4, #0]
 8004524:	4605      	mov	r5, r0
 8004526:	f7ff bbb2 	b.w	8003c8e <HAL_RCCEx_PeriphCLKConfig+0x9a>
 800452a:	492c      	ldr	r1, [pc, #176]	; (80045dc <HAL_RCCEx_PeriphCLKConfig+0x9e8>)
 800452c:	4635      	mov	r5, r6
 800452e:	6aca      	ldr	r2, [r1, #44]	; 0x2c
 8004530:	f442 3200 	orr.w	r2, r2, #131072	; 0x20000
 8004534:	62ca      	str	r2, [r1, #44]	; 0x2c
 8004536:	e65e      	b.n	80041f6 <HAL_RCCEx_PeriphCLKConfig+0x602>
 8004538:	2100      	movs	r1, #0
 800453a:	1d20      	adds	r0, r4, #4
 800453c:	f7ff fa62 	bl	8003a04 <RCCEx_PLL2_Config>
 8004540:	6823      	ldr	r3, [r4, #0]
 8004542:	4605      	mov	r5, r0
 8004544:	e657      	b.n	80041f6 <HAL_RCCEx_PeriphCLKConfig+0x602>
 8004546:	2100      	movs	r1, #0
 8004548:	f104 0024 	add.w	r0, r4, #36	; 0x24
 800454c:	f7ff fad6 	bl	8003afc <RCCEx_PLL3_Config>
 8004550:	6823      	ldr	r3, [r4, #0]
 8004552:	4605      	mov	r5, r0
 8004554:	f7ff bbbc 	b.w	8003cd0 <HAL_RCCEx_PeriphCLKConfig+0xdc>
 8004558:	2100      	movs	r1, #0
 800455a:	f104 0024 	add.w	r0, r4, #36	; 0x24
 800455e:	f7ff facd 	bl	8003afc <RCCEx_PLL3_Config>
 8004562:	6823      	ldr	r3, [r4, #0]
 8004564:	4605      	mov	r5, r0
 8004566:	e646      	b.n	80041f6 <HAL_RCCEx_PeriphCLKConfig+0x602>
 8004568:	6823      	ldr	r3, [r4, #0]
 800456a:	f7ff bb67 	b.w	8003c3c <HAL_RCCEx_PeriphCLKConfig+0x48>
 800456e:	2100      	movs	r1, #0
 8004570:	f104 0024 	add.w	r0, r4, #36	; 0x24
 8004574:	f7ff fac2 	bl	8003afc <RCCEx_PLL3_Config>
 8004578:	6823      	ldr	r3, [r4, #0]
 800457a:	4605      	mov	r5, r0
 800457c:	f7ff bbca 	b.w	8003d14 <HAL_RCCEx_PeriphCLKConfig+0x120>
 8004580:	2102      	movs	r1, #2
 8004582:	3024      	adds	r0, #36	; 0x24
 8004584:	f7ff faba 	bl	8003afc <RCCEx_PLL3_Config>
 8004588:	4606      	mov	r6, r0
 800458a:	2e00      	cmp	r6, #0
 800458c:	f43f ab4d 	beq.w	8003c2a <HAL_RCCEx_PeriphCLKConfig+0x36>
 8004590:	e7ea      	b.n	8004568 <HAL_RCCEx_PeriphCLKConfig+0x974>
 8004592:	2101      	movs	r1, #1
 8004594:	1d20      	adds	r0, r4, #4
 8004596:	f7ff fa35 	bl	8003a04 <RCCEx_PLL2_Config>
 800459a:	4605      	mov	r5, r0
 800459c:	6823      	ldr	r3, [r4, #0]
 800459e:	2d00      	cmp	r5, #0
 80045a0:	f47f acff 	bne.w	8003fa2 <HAL_RCCEx_PeriphCLKConfig+0x3ae>
 80045a4:	e729      	b.n	80043fa <HAL_RCCEx_PeriphCLKConfig+0x806>
 80045a6:	2101      	movs	r1, #1
 80045a8:	1d20      	adds	r0, r4, #4
 80045aa:	f7ff fa2b 	bl	8003a04 <RCCEx_PLL2_Config>
 80045ae:	4605      	mov	r5, r0
 80045b0:	6823      	ldr	r3, [r4, #0]
 80045b2:	2d00      	cmp	r5, #0
 80045b4:	f47f ad0f 	bne.w	8003fd6 <HAL_RCCEx_PeriphCLKConfig+0x3e2>
 80045b8:	e716      	b.n	80043e8 <HAL_RCCEx_PeriphCLKConfig+0x7f4>
 80045ba:	2101      	movs	r1, #1
 80045bc:	1d20      	adds	r0, r4, #4
 80045be:	f7ff fa21 	bl	8003a04 <RCCEx_PLL2_Config>
 80045c2:	4605      	mov	r5, r0
 80045c4:	6823      	ldr	r3, [r4, #0]
 80045c6:	2d00      	cmp	r5, #0
 80045c8:	f47f acd2 	bne.w	8003f70 <HAL_RCCEx_PeriphCLKConfig+0x37c>
 80045cc:	e73b      	b.n	8004446 <HAL_RCCEx_PeriphCLKConfig+0x852>
 80045ce:	2603      	movs	r6, #3
 80045d0:	6823      	ldr	r3, [r4, #0]
 80045d2:	4635      	mov	r5, r6
 80045d4:	e491      	b.n	8003efa <HAL_RCCEx_PeriphCLKConfig+0x306>
 80045d6:	bf00      	nop
 80045d8:	58024800 	.word	0x58024800
 80045dc:	58024400 	.word	0x58024400
 80045e0:	492d      	ldr	r1, [pc, #180]	; (8004698 <HAL_RCCEx_PeriphCLKConfig+0xaa4>)
 80045e2:	6aca      	ldr	r2, [r1, #44]	; 0x2c
 80045e4:	f442 3200 	orr.w	r2, r2, #131072	; 0x20000
 80045e8:	62ca      	str	r2, [r1, #44]	; 0x2c
 80045ea:	2d00      	cmp	r5, #0
 80045ec:	f47f af33 	bne.w	8004456 <HAL_RCCEx_PeriphCLKConfig+0x862>
 80045f0:	e5a4      	b.n	800413c <HAL_RCCEx_PeriphCLKConfig+0x548>
 80045f2:	4829      	ldr	r0, [pc, #164]	; (8004698 <HAL_RCCEx_PeriphCLKConfig+0xaa4>)
 80045f4:	6ac1      	ldr	r1, [r0, #44]	; 0x2c
 80045f6:	f441 3100 	orr.w	r1, r1, #131072	; 0x20000
 80045fa:	62c1      	str	r1, [r0, #44]	; 0x2c
 80045fc:	2d00      	cmp	r5, #0
 80045fe:	f47f adf4 	bne.w	80041ea <HAL_RCCEx_PeriphCLKConfig+0x5f6>
 8004602:	e625      	b.n	8004250 <HAL_RCCEx_PeriphCLKConfig+0x65c>
 8004604:	1d20      	adds	r0, r4, #4
 8004606:	f7ff f9fd 	bl	8003a04 <RCCEx_PLL2_Config>
 800460a:	4605      	mov	r5, r0
 800460c:	6823      	ldr	r3, [r4, #0]
 800460e:	2d00      	cmp	r5, #0
 8004610:	f47f af0f 	bne.w	8004432 <HAL_RCCEx_PeriphCLKConfig+0x83e>
 8004614:	e660      	b.n	80042d8 <HAL_RCCEx_PeriphCLKConfig+0x6e4>
 8004616:	4920      	ldr	r1, [pc, #128]	; (8004698 <HAL_RCCEx_PeriphCLKConfig+0xaa4>)
 8004618:	6aca      	ldr	r2, [r1, #44]	; 0x2c
 800461a:	f442 3200 	orr.w	r2, r2, #131072	; 0x20000
 800461e:	62ca      	str	r2, [r1, #44]	; 0x2c
 8004620:	2d00      	cmp	r5, #0
 8004622:	f47f af0b 	bne.w	800443c <HAL_RCCEx_PeriphCLKConfig+0x848>
 8004626:	e641      	b.n	80042ac <HAL_RCCEx_PeriphCLKConfig+0x6b8>
 8004628:	2102      	movs	r1, #2
 800462a:	f104 0024 	add.w	r0, r4, #36	; 0x24
 800462e:	f7ff fa65 	bl	8003afc <RCCEx_PLL3_Config>
 8004632:	f8d4 1094 	ldr.w	r1, [r4, #148]	; 0x94
 8004636:	b100      	cbz	r0, 800463a <HAL_RCCEx_PeriphCLKConfig+0xa46>
 8004638:	2601      	movs	r6, #1
 800463a:	6823      	ldr	r3, [r4, #0]
 800463c:	e542      	b.n	80040c4 <HAL_RCCEx_PeriphCLKConfig+0x4d0>
 800463e:	f7fc f807 	bl	8000650 <HAL_GetTick>
 8004642:	f8df 8054 	ldr.w	r8, [pc, #84]	; 8004698 <HAL_RCCEx_PeriphCLKConfig+0xaa4>
 8004646:	f241 3988 	movw	r9, #5000	; 0x1388
 800464a:	4607      	mov	r7, r0
 800464c:	e004      	b.n	8004658 <HAL_RCCEx_PeriphCLKConfig+0xa64>
 800464e:	f7fb ffff 	bl	8000650 <HAL_GetTick>
 8004652:	1bc0      	subs	r0, r0, r7
 8004654:	4548      	cmp	r0, r9
 8004656:	d8ba      	bhi.n	80045ce <HAL_RCCEx_PeriphCLKConfig+0x9da>
 8004658:	f8d8 3070 	ldr.w	r3, [r8, #112]	; 0x70
 800465c:	079b      	lsls	r3, r3, #30
 800465e:	d5f6      	bpl.n	800464e <HAL_RCCEx_PeriphCLKConfig+0xa5a>
 8004660:	f8d4 30b0 	ldr.w	r3, [r4, #176]	; 0xb0
 8004664:	e680      	b.n	8004368 <HAL_RCCEx_PeriphCLKConfig+0x774>
 8004666:	480c      	ldr	r0, [pc, #48]	; (8004698 <HAL_RCCEx_PeriphCLKConfig+0xaa4>)
 8004668:	4a0c      	ldr	r2, [pc, #48]	; (800469c <HAL_RCCEx_PeriphCLKConfig+0xaa8>)
 800466a:	6901      	ldr	r1, [r0, #16]
 800466c:	ea02 1213 	and.w	r2, r2, r3, lsr #4
 8004670:	f421 517c 	bic.w	r1, r1, #16128	; 0x3f00
 8004674:	430a      	orrs	r2, r1
 8004676:	6102      	str	r2, [r0, #16]
 8004678:	e681      	b.n	800437e <HAL_RCCEx_PeriphCLKConfig+0x78a>
 800467a:	6823      	ldr	r3, [r4, #0]
 800467c:	462e      	mov	r6, r5
 800467e:	e43c      	b.n	8003efa <HAL_RCCEx_PeriphCLKConfig+0x306>
 8004680:	2601      	movs	r6, #1
 8004682:	f7ff baef 	b.w	8003c64 <HAL_RCCEx_PeriphCLKConfig+0x70>
 8004686:	2601      	movs	r6, #1
 8004688:	4635      	mov	r5, r6
 800468a:	e48b      	b.n	8003fa4 <HAL_RCCEx_PeriphCLKConfig+0x3b0>
 800468c:	2601      	movs	r6, #1
 800468e:	4635      	mov	r5, r6
 8004690:	e430      	b.n	8003ef4 <HAL_RCCEx_PeriphCLKConfig+0x300>
 8004692:	2601      	movs	r6, #1
 8004694:	4635      	mov	r5, r6
 8004696:	e49f      	b.n	8003fd8 <HAL_RCCEx_PeriphCLKConfig+0x3e4>
 8004698:	58024400 	.word	0x58024400
 800469c:	00ffffcf 	.word	0x00ffffcf

080046a0 <HAL_RCCEx_GetD3PCLK1Freq>:
 80046a0:	b508      	push	{r3, lr}
 80046a2:	f7ff f8b3 	bl	800380c <HAL_RCC_GetHCLKFreq>
 80046a6:	4b05      	ldr	r3, [pc, #20]	; (80046bc <HAL_RCCEx_GetD3PCLK1Freq+0x1c>)
 80046a8:	4a05      	ldr	r2, [pc, #20]	; (80046c0 <HAL_RCCEx_GetD3PCLK1Freq+0x20>)
 80046aa:	6a1b      	ldr	r3, [r3, #32]
 80046ac:	f3c3 1302 	ubfx	r3, r3, #4, #3
 80046b0:	5cd3      	ldrb	r3, [r2, r3]
 80046b2:	f003 031f 	and.w	r3, r3, #31
 80046b6:	40d8      	lsrs	r0, r3
 80046b8:	bd08      	pop	{r3, pc}
 80046ba:	bf00      	nop
 80046bc:	58024400 	.word	0x58024400
 80046c0:	0800ba60 	.word	0x0800ba60

080046c4 <HAL_RCCEx_GetPLL2ClockFreq>:
 80046c4:	4b58      	ldr	r3, [pc, #352]	; (8004828 <HAL_RCCEx_GetPLL2ClockFreq+0x164>)
 80046c6:	b470      	push	{r4, r5, r6}
 80046c8:	6a99      	ldr	r1, [r3, #40]	; 0x28
 80046ca:	6a9d      	ldr	r5, [r3, #40]	; 0x28
 80046cc:	6adc      	ldr	r4, [r3, #44]	; 0x2c
 80046ce:	f415 3f7c 	tst.w	r5, #258048	; 0x3f000
 80046d2:	f3c5 3205 	ubfx	r2, r5, #12, #6
 80046d6:	6bde      	ldr	r6, [r3, #60]	; 0x3c
 80046d8:	d05c      	beq.n	8004794 <HAL_RCCEx_GetPLL2ClockFreq+0xd0>
 80046da:	f3c6 06cc 	ubfx	r6, r6, #3, #13
 80046de:	f3c4 1400 	ubfx	r4, r4, #4, #1
 80046e2:	f001 0103 	and.w	r1, r1, #3
 80046e6:	fb04 f406 	mul.w	r4, r4, r6
 80046ea:	2901      	cmp	r1, #1
 80046ec:	ee07 4a90 	vmov	s15, r4
 80046f0:	eeb8 7ae7 	vcvt.f32.s32	s14, s15
 80046f4:	d003      	beq.n	80046fe <HAL_RCCEx_GetPLL2ClockFreq+0x3a>
 80046f6:	2902      	cmp	r1, #2
 80046f8:	d075      	beq.n	80047e6 <HAL_RCCEx_GetPLL2ClockFreq+0x122>
 80046fa:	2900      	cmp	r1, #0
 80046fc:	d04f      	beq.n	800479e <HAL_RCCEx_GetPLL2ClockFreq+0xda>
 80046fe:	ee07 2a90 	vmov	s15, r2
 8004702:	eddf 6a4a 	vldr	s13, [pc, #296]	; 800482c <HAL_RCCEx_GetPLL2ClockFreq+0x168>
 8004706:	eef8 7ae7 	vcvt.f32.s32	s15, s15
 800470a:	6b9b      	ldr	r3, [r3, #56]	; 0x38
 800470c:	ee86 6aa7 	vdiv.f32	s12, s13, s15
 8004710:	ed9f 5a47 	vldr	s10, [pc, #284]	; 8004830 <HAL_RCCEx_GetPLL2ClockFreq+0x16c>
 8004714:	f3c3 0308 	ubfx	r3, r3, #0, #9
 8004718:	ee06 3a90 	vmov	s13, r3
 800471c:	eef7 5a00 	vmov.f32	s11, #112	; 0x3f800000  1.0
 8004720:	eef8 6ae6 	vcvt.f32.s32	s13, s13
 8004724:	eee7 6a05 	vfma.f32	s13, s14, s10
 8004728:	ee76 6aa5 	vadd.f32	s13, s13, s11
 800472c:	ee66 6a26 	vmul.f32	s13, s12, s13
 8004730:	4a3d      	ldr	r2, [pc, #244]	; (8004828 <HAL_RCCEx_GetPLL2ClockFreq+0x164>)
 8004732:	eeb7 6a00 	vmov.f32	s12, #112	; 0x3f800000  1.0
 8004736:	6b93      	ldr	r3, [r2, #56]	; 0x38
 8004738:	f3c3 2346 	ubfx	r3, r3, #9, #7
 800473c:	ee07 3a10 	vmov	s14, r3
 8004740:	eeb8 7ac7 	vcvt.f32.s32	s14, s14
 8004744:	bc70      	pop	{r4, r5, r6}
 8004746:	ee37 7a06 	vadd.f32	s14, s14, s12
 800474a:	eec6 7a87 	vdiv.f32	s15, s13, s14
 800474e:	eefc 7ae7 	vcvt.u32.f32	s15, s15
 8004752:	edc0 7a00 	vstr	s15, [r0]
 8004756:	6b93      	ldr	r3, [r2, #56]	; 0x38
 8004758:	f3c3 4306 	ubfx	r3, r3, #16, #7
 800475c:	ee07 3a10 	vmov	s14, r3
 8004760:	eeb8 7ac7 	vcvt.f32.s32	s14, s14
 8004764:	ee37 7a06 	vadd.f32	s14, s14, s12
 8004768:	eec6 7a87 	vdiv.f32	s15, s13, s14
 800476c:	eefc 7ae7 	vcvt.u32.f32	s15, s15
 8004770:	edc0 7a01 	vstr	s15, [r0, #4]
 8004774:	6b93      	ldr	r3, [r2, #56]	; 0x38
 8004776:	f3c3 6306 	ubfx	r3, r3, #24, #7
 800477a:	ee07 3a90 	vmov	s15, r3
 800477e:	eef8 7ae7 	vcvt.f32.s32	s15, s15
 8004782:	ee77 7a86 	vadd.f32	s15, s15, s12
 8004786:	ee86 7aa7 	vdiv.f32	s14, s13, s15
 800478a:	eebc 7ac7 	vcvt.u32.f32	s14, s14
 800478e:	ed80 7a02 	vstr	s14, [r0, #8]
 8004792:	4770      	bx	lr
 8004794:	bc70      	pop	{r4, r5, r6}
 8004796:	e9c0 2200 	strd	r2, r2, [r0]
 800479a:	6082      	str	r2, [r0, #8]
 800479c:	4770      	bx	lr
 800479e:	6819      	ldr	r1, [r3, #0]
 80047a0:	0689      	lsls	r1, r1, #26
 80047a2:	d527      	bpl.n	80047f4 <HAL_RCCEx_GetPLL2ClockFreq+0x130>
 80047a4:	6819      	ldr	r1, [r3, #0]
 80047a6:	ee07 2a90 	vmov	s15, r2
 80047aa:	4a22      	ldr	r2, [pc, #136]	; (8004834 <HAL_RCCEx_GetPLL2ClockFreq+0x170>)
 80047ac:	eeb7 5a00 	vmov.f32	s10, #112	; 0x3f800000  1.0
 80047b0:	f3c1 01c1 	ubfx	r1, r1, #3, #2
 80047b4:	eef8 7ae7 	vcvt.f32.s32	s15, s15
 80047b8:	6b9b      	ldr	r3, [r3, #56]	; 0x38
 80047ba:	40ca      	lsrs	r2, r1
 80047bc:	eddf 4a1c 	vldr	s9, [pc, #112]	; 8004830 <HAL_RCCEx_GetPLL2ClockFreq+0x16c>
 80047c0:	f3c3 0308 	ubfx	r3, r3, #0, #9
 80047c4:	ee06 2a10 	vmov	s12, r2
 80047c8:	ee06 3a90 	vmov	s13, r3
 80047cc:	eeb8 6ac6 	vcvt.f32.s32	s12, s12
 80047d0:	eef8 6ae6 	vcvt.f32.s32	s13, s13
 80047d4:	eec6 5a27 	vdiv.f32	s11, s12, s15
 80047d8:	eee7 6a24 	vfma.f32	s13, s14, s9
 80047dc:	ee76 6a85 	vadd.f32	s13, s13, s10
 80047e0:	ee66 6aa5 	vmul.f32	s13, s13, s11
 80047e4:	e7a4      	b.n	8004730 <HAL_RCCEx_GetPLL2ClockFreq+0x6c>
 80047e6:	ee07 2a90 	vmov	s15, r2
 80047ea:	eddf 6a13 	vldr	s13, [pc, #76]	; 8004838 <HAL_RCCEx_GetPLL2ClockFreq+0x174>
 80047ee:	eef8 7ae7 	vcvt.f32.s32	s15, s15
 80047f2:	e78a      	b.n	800470a <HAL_RCCEx_GetPLL2ClockFreq+0x46>
 80047f4:	ee07 2a90 	vmov	s15, r2
 80047f8:	ed9f 5a10 	vldr	s10, [pc, #64]	; 800483c <HAL_RCCEx_GetPLL2ClockFreq+0x178>
 80047fc:	6b9b      	ldr	r3, [r3, #56]	; 0x38
 80047fe:	eeb7 6a00 	vmov.f32	s12, #112	; 0x3f800000  1.0
 8004802:	eef8 7ae7 	vcvt.f32.s32	s15, s15
 8004806:	eddf 5a0a 	vldr	s11, [pc, #40]	; 8004830 <HAL_RCCEx_GetPLL2ClockFreq+0x16c>
 800480a:	f3c3 0308 	ubfx	r3, r3, #0, #9
 800480e:	eec5 6a27 	vdiv.f32	s13, s10, s15
 8004812:	ee07 3a90 	vmov	s15, r3
 8004816:	eef8 7ae7 	vcvt.f32.s32	s15, s15
 800481a:	eee7 7a25 	vfma.f32	s15, s14, s11
 800481e:	ee77 7a86 	vadd.f32	s15, s15, s12
 8004822:	ee66 6aa7 	vmul.f32	s13, s13, s15
 8004826:	e783      	b.n	8004730 <HAL_RCCEx_GetPLL2ClockFreq+0x6c>
 8004828:	58024400 	.word	0x58024400
 800482c:	4a742400 	.word	0x4a742400
 8004830:	39000000 	.word	0x39000000
 8004834:	03d09000 	.word	0x03d09000
 8004838:	4bf42400 	.word	0x4bf42400
 800483c:	4c742400 	.word	0x4c742400

08004840 <HAL_RCCEx_GetPLL3ClockFreq>:
 8004840:	4b58      	ldr	r3, [pc, #352]	; (80049a4 <HAL_RCCEx_GetPLL3ClockFreq+0x164>)
 8004842:	b470      	push	{r4, r5, r6}
 8004844:	6a99      	ldr	r1, [r3, #40]	; 0x28
 8004846:	6a9d      	ldr	r5, [r3, #40]	; 0x28
 8004848:	6adc      	ldr	r4, [r3, #44]	; 0x2c
 800484a:	f015 7f7c 	tst.w	r5, #66060288	; 0x3f00000
 800484e:	f3c5 5205 	ubfx	r2, r5, #20, #6
 8004852:	6c5e      	ldr	r6, [r3, #68]	; 0x44
 8004854:	d05c      	beq.n	8004910 <HAL_RCCEx_GetPLL3ClockFreq+0xd0>
 8004856:	f3c6 06cc 	ubfx	r6, r6, #3, #13
 800485a:	f3c4 2400 	ubfx	r4, r4, #8, #1
 800485e:	f001 0103 	and.w	r1, r1, #3
 8004862:	fb04 f406 	mul.w	r4, r4, r6
 8004866:	2901      	cmp	r1, #1
 8004868:	ee07 4a90 	vmov	s15, r4
 800486c:	eeb8 7ae7 	vcvt.f32.s32	s14, s15
 8004870:	d003      	beq.n	800487a <HAL_RCCEx_GetPLL3ClockFreq+0x3a>
 8004872:	2902      	cmp	r1, #2
 8004874:	d075      	beq.n	8004962 <HAL_RCCEx_GetPLL3ClockFreq+0x122>
 8004876:	2900      	cmp	r1, #0
 8004878:	d04f      	beq.n	800491a <HAL_RCCEx_GetPLL3ClockFreq+0xda>
 800487a:	ee07 2a90 	vmov	s15, r2
 800487e:	eddf 6a4a 	vldr	s13, [pc, #296]	; 80049a8 <HAL_RCCEx_GetPLL3ClockFreq+0x168>
 8004882:	eef8 7ae7 	vcvt.f32.s32	s15, s15
 8004886:	6c1b      	ldr	r3, [r3, #64]	; 0x40
 8004888:	ee86 6aa7 	vdiv.f32	s12, s13, s15
 800488c:	ed9f 5a47 	vldr	s10, [pc, #284]	; 80049ac <HAL_RCCEx_GetPLL3ClockFreq+0x16c>
 8004890:	f3c3 0308 	ubfx	r3, r3, #0, #9
 8004894:	ee06 3a90 	vmov	s13, r3
 8004898:	eef7 5a00 	vmov.f32	s11, #112	; 0x3f800000  1.0
 800489c:	eef8 6ae6 	vcvt.f32.s32	s13, s13
 80048a0:	eee7 6a05 	vfma.f32	s13, s14, s10
 80048a4:	ee76 6aa5 	vadd.f32	s13, s13, s11
 80048a8:	ee66 6a26 	vmul.f32	s13, s12, s13
 80048ac:	4a3d      	ldr	r2, [pc, #244]	; (80049a4 <HAL_RCCEx_GetPLL3ClockFreq+0x164>)
 80048ae:	eeb7 6a00 	vmov.f32	s12, #112	; 0x3f800000  1.0
 80048b2:	6c13      	ldr	r3, [r2, #64]	; 0x40
 80048b4:	f3c3 2346 	ubfx	r3, r3, #9, #7
 80048b8:	ee07 3a10 	vmov	s14, r3
 80048bc:	eeb8 7ac7 	vcvt.f32.s32	s14, s14
 80048c0:	bc70      	pop	{r4, r5, r6}
 80048c2:	ee37 7a06 	vadd.f32	s14, s14, s12
 80048c6:	eec6 7a87 	vdiv.f32	s15, s13, s14
 80048ca:	eefc 7ae7 	vcvt.u32.f32	s15, s15
 80048ce:	edc0 7a00 	vstr	s15, [r0]
 80048d2:	6c13      	ldr	r3, [r2, #64]	; 0x40
 80048d4:	f3c3 4306 	ubfx	r3, r3, #16, #7
 80048d8:	ee07 3a10 	vmov	s14, r3
 80048dc:	eeb8 7ac7 	vcvt.f32.s32	s14, s14
 80048e0:	ee37 7a06 	vadd.f32	s14, s14, s12
 80048e4:	eec6 7a87 	vdiv.f32	s15, s13, s14
 80048e8:	eefc 7ae7 	vcvt.u32.f32	s15, s15
 80048ec:	edc0 7a01 	vstr	s15, [r0, #4]
 80048f0:	6c13      	ldr	r3, [r2, #64]	; 0x40
 80048f2:	f3c3 6306 	ubfx	r3, r3, #24, #7
 80048f6:	ee07 3a90 	vmov	s15, r3
 80048fa:	eef8 7ae7 	vcvt.f32.s32	s15, s15
 80048fe:	ee77 7a86 	vadd.f32	s15, s15, s12
 8004902:	ee86 7aa7 	vdiv.f32	s14, s13, s15
 8004906:	eebc 7ac7 	vcvt.u32.f32	s14, s14
 800490a:	ed80 7a02 	vstr	s14, [r0, #8]
 800490e:	4770      	bx	lr
 8004910:	bc70      	pop	{r4, r5, r6}
 8004912:	e9c0 2200 	strd	r2, r2, [r0]
 8004916:	6082      	str	r2, [r0, #8]
 8004918:	4770      	bx	lr
 800491a:	6819      	ldr	r1, [r3, #0]
 800491c:	0689      	lsls	r1, r1, #26
 800491e:	d527      	bpl.n	8004970 <HAL_RCCEx_GetPLL3ClockFreq+0x130>
 8004920:	6819      	ldr	r1, [r3, #0]
 8004922:	ee07 2a90 	vmov	s15, r2
 8004926:	4a22      	ldr	r2, [pc, #136]	; (80049b0 <HAL_RCCEx_GetPLL3ClockFreq+0x170>)
 8004928:	eeb7 5a00 	vmov.f32	s10, #112	; 0x3f800000  1.0
 800492c:	f3c1 01c1 	ubfx	r1, r1, #3, #2
 8004930:	eef8 7ae7 	vcvt.f32.s32	s15, s15
 8004934:	6c1b      	ldr	r3, [r3, #64]	; 0x40
 8004936:	40ca      	lsrs	r2, r1
 8004938:	eddf 4a1c 	vldr	s9, [pc, #112]	; 80049ac <HAL_RCCEx_GetPLL3ClockFreq+0x16c>
 800493c:	f3c3 0308 	ubfx	r3, r3, #0, #9
 8004940:	ee06 2a10 	vmov	s12, r2
 8004944:	ee06 3a90 	vmov	s13, r3
 8004948:	eeb8 6ac6 	vcvt.f32.s32	s12, s12
 800494c:	eef8 6ae6 	vcvt.f32.s32	s13, s13
 8004950:	eec6 5a27 	vdiv.f32	s11, s12, s15
 8004954:	eee7 6a24 	vfma.f32	s13, s14, s9
 8004958:	ee76 6a85 	vadd.f32	s13, s13, s10
 800495c:	ee66 6aa5 	vmul.f32	s13, s13, s11
 8004960:	e7a4      	b.n	80048ac <HAL_RCCEx_GetPLL3ClockFreq+0x6c>
 8004962:	ee07 2a90 	vmov	s15, r2
 8004966:	eddf 6a13 	vldr	s13, [pc, #76]	; 80049b4 <HAL_RCCEx_GetPLL3ClockFreq+0x174>
 800496a:	eef8 7ae7 	vcvt.f32.s32	s15, s15
 800496e:	e78a      	b.n	8004886 <HAL_RCCEx_GetPLL3ClockFreq+0x46>
 8004970:	ee07 2a90 	vmov	s15, r2
 8004974:	ed9f 5a10 	vldr	s10, [pc, #64]	; 80049b8 <HAL_RCCEx_GetPLL3ClockFreq+0x178>
 8004978:	6c1b      	ldr	r3, [r3, #64]	; 0x40
 800497a:	eeb7 6a00 	vmov.f32	s12, #112	; 0x3f800000  1.0
 800497e:	eef8 7ae7 	vcvt.f32.s32	s15, s15
 8004982:	eddf 5a0a 	vldr	s11, [pc, #40]	; 80049ac <HAL_RCCEx_GetPLL3ClockFreq+0x16c>
 8004986:	f3c3 0308 	ubfx	r3, r3, #0, #9
 800498a:	eec5 6a27 	vdiv.f32	s13, s10, s15
 800498e:	ee07 3a90 	vmov	s15, r3
 8004992:	eef8 7ae7 	vcvt.f32.s32	s15, s15
 8004996:	eee7 7a25 	vfma.f32	s15, s14, s11
 800499a:	ee77 7a86 	vadd.f32	s15, s15, s12
 800499e:	ee66 6aa7 	vmul.f32	s13, s13, s15
 80049a2:	e783      	b.n	80048ac <HAL_RCCEx_GetPLL3ClockFreq+0x6c>
 80049a4:	58024400 	.word	0x58024400
 80049a8:	4a742400 	.word	0x4a742400
 80049ac:	39000000 	.word	0x39000000
 80049b0:	03d09000 	.word	0x03d09000
 80049b4:	4bf42400 	.word	0x4bf42400
 80049b8:	4c742400 	.word	0x4c742400

080049bc <HAL_RCCEx_GetPLL1ClockFreq>:
 80049bc:	4b5c      	ldr	r3, [pc, #368]	; (8004b30 <HAL_RCCEx_GetPLL1ClockFreq+0x174>)
 80049be:	b470      	push	{r4, r5, r6}
 80049c0:	6a99      	ldr	r1, [r3, #40]	; 0x28
 80049c2:	6a9d      	ldr	r5, [r3, #40]	; 0x28
 80049c4:	6adc      	ldr	r4, [r3, #44]	; 0x2c
 80049c6:	f415 7f7c 	tst.w	r5, #1008	; 0x3f0
 80049ca:	f3c5 1205 	ubfx	r2, r5, #4, #6
 80049ce:	6b5e      	ldr	r6, [r3, #52]	; 0x34
 80049d0:	d05c      	beq.n	8004a8c <HAL_RCCEx_GetPLL1ClockFreq+0xd0>
 80049d2:	f3c6 06cc 	ubfx	r6, r6, #3, #13
 80049d6:	f004 0401 	and.w	r4, r4, #1
 80049da:	f001 0103 	and.w	r1, r1, #3
 80049de:	fb04 f406 	mul.w	r4, r4, r6
 80049e2:	2901      	cmp	r1, #1
 80049e4:	ee07 4a90 	vmov	s15, r4
 80049e8:	eeb8 7ae7 	vcvt.f32.s32	s14, s15
 80049ec:	d07e      	beq.n	8004aec <HAL_RCCEx_GetPLL1ClockFreq+0x130>
 80049ee:	2902      	cmp	r1, #2
 80049f0:	d075      	beq.n	8004ade <HAL_RCCEx_GetPLL1ClockFreq+0x122>
 80049f2:	2900      	cmp	r1, #0
 80049f4:	d04f      	beq.n	8004a96 <HAL_RCCEx_GetPLL1ClockFreq+0xda>
 80049f6:	ee07 2a90 	vmov	s15, r2
 80049fa:	eddf 6a4e 	vldr	s13, [pc, #312]	; 8004b34 <HAL_RCCEx_GetPLL1ClockFreq+0x178>
 80049fe:	eef8 7ae7 	vcvt.f32.s32	s15, s15
 8004a02:	6b1b      	ldr	r3, [r3, #48]	; 0x30
 8004a04:	ee86 6aa7 	vdiv.f32	s12, s13, s15
 8004a08:	ed9f 5a4b 	vldr	s10, [pc, #300]	; 8004b38 <HAL_RCCEx_GetPLL1ClockFreq+0x17c>
 8004a0c:	f3c3 0308 	ubfx	r3, r3, #0, #9
 8004a10:	ee06 3a90 	vmov	s13, r3
 8004a14:	eef7 5a00 	vmov.f32	s11, #112	; 0x3f800000  1.0
 8004a18:	eef8 6ae6 	vcvt.f32.s32	s13, s13
 8004a1c:	eee7 6a05 	vfma.f32	s13, s14, s10
 8004a20:	ee76 6aa5 	vadd.f32	s13, s13, s11
 8004a24:	ee66 6a26 	vmul.f32	s13, s12, s13
 8004a28:	4a41      	ldr	r2, [pc, #260]	; (8004b30 <HAL_RCCEx_GetPLL1ClockFreq+0x174>)
 8004a2a:	eeb7 6a00 	vmov.f32	s12, #112	; 0x3f800000  1.0
 8004a2e:	6b13      	ldr	r3, [r2, #48]	; 0x30
 8004a30:	f3c3 2346 	ubfx	r3, r3, #9, #7
 8004a34:	ee07 3a10 	vmov	s14, r3
 8004a38:	eeb8 7ac7 	vcvt.f32.s32	s14, s14
 8004a3c:	bc70      	pop	{r4, r5, r6}
 8004a3e:	ee37 7a06 	vadd.f32	s14, s14, s12
 8004a42:	eec6 7a87 	vdiv.f32	s15, s13, s14
 8004a46:	eefc 7ae7 	vcvt.u32.f32	s15, s15
 8004a4a:	edc0 7a00 	vstr	s15, [r0]
 8004a4e:	6b13      	ldr	r3, [r2, #48]	; 0x30
 8004a50:	f3c3 4306 	ubfx	r3, r3, #16, #7
 8004a54:	ee07 3a10 	vmov	s14, r3
 8004a58:	eeb8 7ac7 	vcvt.f32.s32	s14, s14
 8004a5c:	ee37 7a06 	vadd.f32	s14, s14, s12
 8004a60:	eec6 7a87 	vdiv.f32	s15, s13, s14
 8004a64:	eefc 7ae7 	vcvt.u32.f32	s15, s15
 8004a68:	edc0 7a01 	vstr	s15, [r0, #4]
 8004a6c:	6b13      	ldr	r3, [r2, #48]	; 0x30
 8004a6e:	f3c3 6306 	ubfx	r3, r3, #24, #7
 8004a72:	ee07 3a90 	vmov	s15, r3
 8004a76:	eef8 7ae7 	vcvt.f32.s32	s15, s15
 8004a7a:	ee77 7a86 	vadd.f32	s15, s15, s12
 8004a7e:	ee86 7aa7 	vdiv.f32	s14, s13, s15
 8004a82:	eebc 7ac7 	vcvt.u32.f32	s14, s14
 8004a86:	ed80 7a02 	vstr	s14, [r0, #8]
 8004a8a:	4770      	bx	lr
 8004a8c:	bc70      	pop	{r4, r5, r6}
 8004a8e:	e9c0 2200 	strd	r2, r2, [r0]
 8004a92:	6082      	str	r2, [r0, #8]
 8004a94:	4770      	bx	lr
 8004a96:	6819      	ldr	r1, [r3, #0]
 8004a98:	0689      	lsls	r1, r1, #26
 8004a9a:	d52e      	bpl.n	8004afa <HAL_RCCEx_GetPLL1ClockFreq+0x13e>
 8004a9c:	6819      	ldr	r1, [r3, #0]
 8004a9e:	ee07 2a90 	vmov	s15, r2
 8004aa2:	4a26      	ldr	r2, [pc, #152]	; (8004b3c <HAL_RCCEx_GetPLL1ClockFreq+0x180>)
 8004aa4:	eeb7 5a00 	vmov.f32	s10, #112	; 0x3f800000  1.0
 8004aa8:	f3c1 01c1 	ubfx	r1, r1, #3, #2
 8004aac:	eef8 7ae7 	vcvt.f32.s32	s15, s15
 8004ab0:	6b1b      	ldr	r3, [r3, #48]	; 0x30
 8004ab2:	40ca      	lsrs	r2, r1
 8004ab4:	eddf 4a20 	vldr	s9, [pc, #128]	; 8004b38 <HAL_RCCEx_GetPLL1ClockFreq+0x17c>
 8004ab8:	f3c3 0308 	ubfx	r3, r3, #0, #9
 8004abc:	ee06 2a10 	vmov	s12, r2
 8004ac0:	ee06 3a90 	vmov	s13, r3
 8004ac4:	eeb8 6ac6 	vcvt.f32.s32	s12, s12
 8004ac8:	eef8 6ae6 	vcvt.f32.s32	s13, s13
 8004acc:	eec6 5a27 	vdiv.f32	s11, s12, s15
 8004ad0:	eee7 6a24 	vfma.f32	s13, s14, s9
 8004ad4:	ee76 6a85 	vadd.f32	s13, s13, s10
 8004ad8:	ee66 6aa5 	vmul.f32	s13, s13, s11
 8004adc:	e7a4      	b.n	8004a28 <HAL_RCCEx_GetPLL1ClockFreq+0x6c>
 8004ade:	ee07 2a90 	vmov	s15, r2
 8004ae2:	eddf 6a17 	vldr	s13, [pc, #92]	; 8004b40 <HAL_RCCEx_GetPLL1ClockFreq+0x184>
 8004ae6:	eef8 7ae7 	vcvt.f32.s32	s15, s15
 8004aea:	e78a      	b.n	8004a02 <HAL_RCCEx_GetPLL1ClockFreq+0x46>
 8004aec:	ee07 2a90 	vmov	s15, r2
 8004af0:	eddf 6a14 	vldr	s13, [pc, #80]	; 8004b44 <HAL_RCCEx_GetPLL1ClockFreq+0x188>
 8004af4:	eef8 7ae7 	vcvt.f32.s32	s15, s15
 8004af8:	e783      	b.n	8004a02 <HAL_RCCEx_GetPLL1ClockFreq+0x46>
 8004afa:	ee07 2a90 	vmov	s15, r2
 8004afe:	ed9f 5a0d 	vldr	s10, [pc, #52]	; 8004b34 <HAL_RCCEx_GetPLL1ClockFreq+0x178>
 8004b02:	6b1b      	ldr	r3, [r3, #48]	; 0x30
 8004b04:	eeb7 6a00 	vmov.f32	s12, #112	; 0x3f800000  1.0
 8004b08:	eef8 7ae7 	vcvt.f32.s32	s15, s15
 8004b0c:	eddf 5a0a 	vldr	s11, [pc, #40]	; 8004b38 <HAL_RCCEx_GetPLL1ClockFreq+0x17c>
 8004b10:	f3c3 0308 	ubfx	r3, r3, #0, #9
 8004b14:	eec5 6a27 	vdiv.f32	s13, s10, s15
 8004b18:	ee07 3a90 	vmov	s15, r3
 8004b1c:	eef8 7ae7 	vcvt.f32.s32	s15, s15
 8004b20:	eee7 7a25 	vfma.f32	s15, s14, s11
 8004b24:	ee77 7a86 	vadd.f32	s15, s15, s12
 8004b28:	ee66 6aa7 	vmul.f32	s13, s13, s15
 8004b2c:	e77c      	b.n	8004a28 <HAL_RCCEx_GetPLL1ClockFreq+0x6c>
 8004b2e:	bf00      	nop
 8004b30:	58024400 	.word	0x58024400
 8004b34:	4c742400 	.word	0x4c742400
 8004b38:	39000000 	.word	0x39000000
 8004b3c:	03d09000 	.word	0x03d09000
 8004b40:	4bf42400 	.word	0x4bf42400
 8004b44:	4a742400 	.word	0x4a742400

08004b48 <HAL_RCCEx_GetPeriphCLKFreq>:
 8004b48:	f5b0 7f80 	cmp.w	r0, #256	; 0x100
 8004b4c:	b500      	push	{lr}
 8004b4e:	b085      	sub	sp, #20
 8004b50:	d077      	beq.n	8004c42 <HAL_RCCEx_GetPeriphCLKFreq+0xfa>
 8004b52:	f5b0 7f00 	cmp.w	r0, #512	; 0x200
 8004b56:	d02e      	beq.n	8004bb6 <HAL_RCCEx_GetPeriphCLKFreq+0x6e>
 8004b58:	f5b0 6f80 	cmp.w	r0, #1024	; 0x400
 8004b5c:	f000 80cf 	beq.w	8004cfe <HAL_RCCEx_GetPeriphCLKFreq+0x1b6>
 8004b60:	f5b0 6f00 	cmp.w	r0, #2048	; 0x800
 8004b64:	f000 8080 	beq.w	8004c68 <HAL_RCCEx_GetPeriphCLKFreq+0x120>
 8004b68:	f5b0 5f80 	cmp.w	r0, #4096	; 0x1000
 8004b6c:	d05a      	beq.n	8004c24 <HAL_RCCEx_GetPeriphCLKFreq+0xdc>
 8004b6e:	f5b0 2f00 	cmp.w	r0, #524288	; 0x80000
 8004b72:	f000 8105 	beq.w	8004d80 <HAL_RCCEx_GetPeriphCLKFreq+0x238>
 8004b76:	f5b0 3f80 	cmp.w	r0, #65536	; 0x10000
 8004b7a:	f000 8110 	beq.w	8004d9e <HAL_RCCEx_GetPeriphCLKFreq+0x256>
 8004b7e:	f5b0 4f80 	cmp.w	r0, #16384	; 0x4000
 8004b82:	f000 80e2 	beq.w	8004d4a <HAL_RCCEx_GetPeriphCLKFreq+0x202>
 8004b86:	f5b0 4f00 	cmp.w	r0, #32768	; 0x8000
 8004b8a:	d13a      	bne.n	8004c02 <HAL_RCCEx_GetPeriphCLKFreq+0xba>
 8004b8c:	4ba9      	ldr	r3, [pc, #676]	; (8004e34 <HAL_RCCEx_GetPeriphCLKFreq+0x2ec>)
 8004b8e:	6d1b      	ldr	r3, [r3, #80]	; 0x50
 8004b90:	f003 5340 	and.w	r3, r3, #805306368	; 0x30000000
 8004b94:	f1b3 5f80 	cmp.w	r3, #268435456	; 0x10000000
 8004b98:	f000 808e 	beq.w	8004cb8 <HAL_RCCEx_GetPeriphCLKFreq+0x170>
 8004b9c:	f1b3 5f00 	cmp.w	r3, #536870912	; 0x20000000
 8004ba0:	f000 812e 	beq.w	8004e00 <HAL_RCCEx_GetPeriphCLKFreq+0x2b8>
 8004ba4:	bb6b      	cbnz	r3, 8004c02 <HAL_RCCEx_GetPeriphCLKFreq+0xba>
 8004ba6:	4aa3      	ldr	r2, [pc, #652]	; (8004e34 <HAL_RCCEx_GetPeriphCLKFreq+0x2ec>)
 8004ba8:	4ba3      	ldr	r3, [pc, #652]	; (8004e38 <HAL_RCCEx_GetPeriphCLKFreq+0x2f0>)
 8004baa:	6810      	ldr	r0, [r2, #0]
 8004bac:	f410 3000 	ands.w	r0, r0, #131072	; 0x20000
 8004bb0:	bf18      	it	ne
 8004bb2:	4618      	movne	r0, r3
 8004bb4:	e042      	b.n	8004c3c <HAL_RCCEx_GetPeriphCLKFreq+0xf4>
 8004bb6:	4a9f      	ldr	r2, [pc, #636]	; (8004e34 <HAL_RCCEx_GetPeriphCLKFreq+0x2ec>)
 8004bb8:	6d13      	ldr	r3, [r2, #80]	; 0x50
 8004bba:	f403 73e0 	and.w	r3, r3, #448	; 0x1c0
 8004bbe:	2b80      	cmp	r3, #128	; 0x80
 8004bc0:	f000 8098 	beq.w	8004cf4 <HAL_RCCEx_GetPeriphCLKFreq+0x1ac>
 8004bc4:	d921      	bls.n	8004c0a <HAL_RCCEx_GetPeriphCLKFreq+0xc2>
 8004bc6:	2bc0      	cmp	r3, #192	; 0xc0
 8004bc8:	d037      	beq.n	8004c3a <HAL_RCCEx_GetPeriphCLKFreq+0xf2>
 8004bca:	f5b3 7f80 	cmp.w	r3, #256	; 0x100
 8004bce:	d118      	bne.n	8004c02 <HAL_RCCEx_GetPeriphCLKFreq+0xba>
 8004bd0:	6cd3      	ldr	r3, [r2, #76]	; 0x4c
 8004bd2:	6811      	ldr	r1, [r2, #0]
 8004bd4:	f003 5340 	and.w	r3, r3, #805306368	; 0x30000000
 8004bd8:	0749      	lsls	r1, r1, #29
 8004bda:	d502      	bpl.n	8004be2 <HAL_RCCEx_GetPeriphCLKFreq+0x9a>
 8004bdc:	2b00      	cmp	r3, #0
 8004bde:	f000 80ae 	beq.w	8004d3e <HAL_RCCEx_GetPeriphCLKFreq+0x1f6>
 8004be2:	4a94      	ldr	r2, [pc, #592]	; (8004e34 <HAL_RCCEx_GetPeriphCLKFreq+0x2ec>)
 8004be4:	6812      	ldr	r2, [r2, #0]
 8004be6:	05d0      	lsls	r0, r2, #23
 8004be8:	d503      	bpl.n	8004bf2 <HAL_RCCEx_GetPeriphCLKFreq+0xaa>
 8004bea:	f1b3 5f80 	cmp.w	r3, #268435456	; 0x10000000
 8004bee:	f000 80fb 	beq.w	8004de8 <HAL_RCCEx_GetPeriphCLKFreq+0x2a0>
 8004bf2:	4a90      	ldr	r2, [pc, #576]	; (8004e34 <HAL_RCCEx_GetPeriphCLKFreq+0x2ec>)
 8004bf4:	6812      	ldr	r2, [r2, #0]
 8004bf6:	0391      	lsls	r1, r2, #14
 8004bf8:	d503      	bpl.n	8004c02 <HAL_RCCEx_GetPeriphCLKFreq+0xba>
 8004bfa:	f1b3 5f00 	cmp.w	r3, #536870912	; 0x20000000
 8004bfe:	f000 80bd 	beq.w	8004d7c <HAL_RCCEx_GetPeriphCLKFreq+0x234>
 8004c02:	2000      	movs	r0, #0
 8004c04:	b005      	add	sp, #20
 8004c06:	f85d fb04 	ldr.w	pc, [sp], #4
 8004c0a:	2b00      	cmp	r3, #0
 8004c0c:	d04b      	beq.n	8004ca6 <HAL_RCCEx_GetPeriphCLKFreq+0x15e>
 8004c0e:	2b40      	cmp	r3, #64	; 0x40
 8004c10:	d1f7      	bne.n	8004c02 <HAL_RCCEx_GetPeriphCLKFreq+0xba>
 8004c12:	6810      	ldr	r0, [r2, #0]
 8004c14:	f010 6000 	ands.w	r0, r0, #134217728	; 0x8000000
 8004c18:	d010      	beq.n	8004c3c <HAL_RCCEx_GetPeriphCLKFreq+0xf4>
 8004c1a:	a801      	add	r0, sp, #4
 8004c1c:	f7ff fd52 	bl	80046c4 <HAL_RCCEx_GetPLL2ClockFreq>
 8004c20:	9801      	ldr	r0, [sp, #4]
 8004c22:	e00b      	b.n	8004c3c <HAL_RCCEx_GetPeriphCLKFreq+0xf4>
 8004c24:	4a83      	ldr	r2, [pc, #524]	; (8004e34 <HAL_RCCEx_GetPeriphCLKFreq+0x2ec>)
 8004c26:	6d13      	ldr	r3, [r2, #80]	; 0x50
 8004c28:	f403 43e0 	and.w	r3, r3, #28672	; 0x7000
 8004c2c:	f5b3 5f00 	cmp.w	r3, #8192	; 0x2000
 8004c30:	d060      	beq.n	8004cf4 <HAL_RCCEx_GetPeriphCLKFreq+0x1ac>
 8004c32:	d936      	bls.n	8004ca2 <HAL_RCCEx_GetPeriphCLKFreq+0x15a>
 8004c34:	f5b3 5f40 	cmp.w	r3, #12288	; 0x3000
 8004c38:	d178      	bne.n	8004d2c <HAL_RCCEx_GetPeriphCLKFreq+0x1e4>
 8004c3a:	4880      	ldr	r0, [pc, #512]	; (8004e3c <HAL_RCCEx_GetPeriphCLKFreq+0x2f4>)
 8004c3c:	b005      	add	sp, #20
 8004c3e:	f85d fb04 	ldr.w	pc, [sp], #4
 8004c42:	4b7c      	ldr	r3, [pc, #496]	; (8004e34 <HAL_RCCEx_GetPeriphCLKFreq+0x2ec>)
 8004c44:	6d1b      	ldr	r3, [r3, #80]	; 0x50
 8004c46:	f003 0307 	and.w	r3, r3, #7
 8004c4a:	2b04      	cmp	r3, #4
 8004c4c:	d8d9      	bhi.n	8004c02 <HAL_RCCEx_GetPeriphCLKFreq+0xba>
 8004c4e:	a201      	add	r2, pc, #4	; (adr r2, 8004c54 <HAL_RCCEx_GetPeriphCLKFreq+0x10c>)
 8004c50:	f852 f023 	ldr.w	pc, [r2, r3, lsl #2]
 8004c54:	08004cb9 	.word	0x08004cb9
 8004c58:	08004cdd 	.word	0x08004cdd
 8004c5c:	08004cc9 	.word	0x08004cc9
 8004c60:	08004c3b 	.word	0x08004c3b
 8004c64:	08004cc5 	.word	0x08004cc5
 8004c68:	4a72      	ldr	r2, [pc, #456]	; (8004e34 <HAL_RCCEx_GetPeriphCLKFreq+0x2ec>)
 8004c6a:	6d93      	ldr	r3, [r2, #88]	; 0x58
 8004c6c:	f003 63e0 	and.w	r3, r3, #117440512	; 0x7000000
 8004c70:	f1b3 7f00 	cmp.w	r3, #33554432	; 0x2000000
 8004c74:	d03e      	beq.n	8004cf4 <HAL_RCCEx_GetPeriphCLKFreq+0x1ac>
 8004c76:	d937      	bls.n	8004ce8 <HAL_RCCEx_GetPeriphCLKFreq+0x1a0>
 8004c78:	f1b3 7f40 	cmp.w	r3, #50331648	; 0x3000000
 8004c7c:	d0dd      	beq.n	8004c3a <HAL_RCCEx_GetPeriphCLKFreq+0xf2>
 8004c7e:	f1b3 6f80 	cmp.w	r3, #67108864	; 0x4000000
 8004c82:	d1be      	bne.n	8004c02 <HAL_RCCEx_GetPeriphCLKFreq+0xba>
 8004c84:	6cd3      	ldr	r3, [r2, #76]	; 0x4c
 8004c86:	6812      	ldr	r2, [r2, #0]
 8004c88:	f003 5340 	and.w	r3, r3, #805306368	; 0x30000000
 8004c8c:	0752      	lsls	r2, r2, #29
 8004c8e:	d5a8      	bpl.n	8004be2 <HAL_RCCEx_GetPeriphCLKFreq+0x9a>
 8004c90:	2b00      	cmp	r3, #0
 8004c92:	d1a6      	bne.n	8004be2 <HAL_RCCEx_GetPeriphCLKFreq+0x9a>
 8004c94:	4b67      	ldr	r3, [pc, #412]	; (8004e34 <HAL_RCCEx_GetPeriphCLKFreq+0x2ec>)
 8004c96:	486a      	ldr	r0, [pc, #424]	; (8004e40 <HAL_RCCEx_GetPeriphCLKFreq+0x2f8>)
 8004c98:	681b      	ldr	r3, [r3, #0]
 8004c9a:	f3c3 03c1 	ubfx	r3, r3, #3, #2
 8004c9e:	40d8      	lsrs	r0, r3
 8004ca0:	e7cc      	b.n	8004c3c <HAL_RCCEx_GetPeriphCLKFreq+0xf4>
 8004ca2:	2b00      	cmp	r3, #0
 8004ca4:	d146      	bne.n	8004d34 <HAL_RCCEx_GetPeriphCLKFreq+0x1ec>
 8004ca6:	6810      	ldr	r0, [r2, #0]
 8004ca8:	f010 7000 	ands.w	r0, r0, #33554432	; 0x2000000
 8004cac:	d0c6      	beq.n	8004c3c <HAL_RCCEx_GetPeriphCLKFreq+0xf4>
 8004cae:	a801      	add	r0, sp, #4
 8004cb0:	f7ff fe84 	bl	80049bc <HAL_RCCEx_GetPLL1ClockFreq>
 8004cb4:	9802      	ldr	r0, [sp, #8]
 8004cb6:	e7c1      	b.n	8004c3c <HAL_RCCEx_GetPeriphCLKFreq+0xf4>
 8004cb8:	4b5e      	ldr	r3, [pc, #376]	; (8004e34 <HAL_RCCEx_GetPeriphCLKFreq+0x2ec>)
 8004cba:	6818      	ldr	r0, [r3, #0]
 8004cbc:	f010 7000 	ands.w	r0, r0, #33554432	; 0x2000000
 8004cc0:	d0bc      	beq.n	8004c3c <HAL_RCCEx_GetPeriphCLKFreq+0xf4>
 8004cc2:	e7f4      	b.n	8004cae <HAL_RCCEx_GetPeriphCLKFreq+0x166>
 8004cc4:	4a5b      	ldr	r2, [pc, #364]	; (8004e34 <HAL_RCCEx_GetPeriphCLKFreq+0x2ec>)
 8004cc6:	e783      	b.n	8004bd0 <HAL_RCCEx_GetPeriphCLKFreq+0x88>
 8004cc8:	4b5a      	ldr	r3, [pc, #360]	; (8004e34 <HAL_RCCEx_GetPeriphCLKFreq+0x2ec>)
 8004cca:	6818      	ldr	r0, [r3, #0]
 8004ccc:	f010 5000 	ands.w	r0, r0, #536870912	; 0x20000000
 8004cd0:	d0b4      	beq.n	8004c3c <HAL_RCCEx_GetPeriphCLKFreq+0xf4>
 8004cd2:	a801      	add	r0, sp, #4
 8004cd4:	f7ff fdb4 	bl	8004840 <HAL_RCCEx_GetPLL3ClockFreq>
 8004cd8:	9801      	ldr	r0, [sp, #4]
 8004cda:	e7af      	b.n	8004c3c <HAL_RCCEx_GetPeriphCLKFreq+0xf4>
 8004cdc:	4b55      	ldr	r3, [pc, #340]	; (8004e34 <HAL_RCCEx_GetPeriphCLKFreq+0x2ec>)
 8004cde:	6818      	ldr	r0, [r3, #0]
 8004ce0:	f010 6000 	ands.w	r0, r0, #134217728	; 0x8000000
 8004ce4:	d0aa      	beq.n	8004c3c <HAL_RCCEx_GetPeriphCLKFreq+0xf4>
 8004ce6:	e798      	b.n	8004c1a <HAL_RCCEx_GetPeriphCLKFreq+0xd2>
 8004ce8:	2b00      	cmp	r3, #0
 8004cea:	d0dc      	beq.n	8004ca6 <HAL_RCCEx_GetPeriphCLKFreq+0x15e>
 8004cec:	f1b3 7f80 	cmp.w	r3, #16777216	; 0x1000000
 8004cf0:	d08f      	beq.n	8004c12 <HAL_RCCEx_GetPeriphCLKFreq+0xca>
 8004cf2:	e786      	b.n	8004c02 <HAL_RCCEx_GetPeriphCLKFreq+0xba>
 8004cf4:	6810      	ldr	r0, [r2, #0]
 8004cf6:	f010 5000 	ands.w	r0, r0, #536870912	; 0x20000000
 8004cfa:	d09f      	beq.n	8004c3c <HAL_RCCEx_GetPeriphCLKFreq+0xf4>
 8004cfc:	e7e9      	b.n	8004cd2 <HAL_RCCEx_GetPeriphCLKFreq+0x18a>
 8004cfe:	4a4d      	ldr	r2, [pc, #308]	; (8004e34 <HAL_RCCEx_GetPeriphCLKFreq+0x2ec>)
 8004d00:	6d93      	ldr	r3, [r2, #88]	; 0x58
 8004d02:	f403 0360 	and.w	r3, r3, #14680064	; 0xe00000
 8004d06:	f5b3 0f80 	cmp.w	r3, #4194304	; 0x400000
 8004d0a:	d0f3      	beq.n	8004cf4 <HAL_RCCEx_GetPeriphCLKFreq+0x1ac>
 8004d0c:	d806      	bhi.n	8004d1c <HAL_RCCEx_GetPeriphCLKFreq+0x1d4>
 8004d0e:	2b00      	cmp	r3, #0
 8004d10:	d0c9      	beq.n	8004ca6 <HAL_RCCEx_GetPeriphCLKFreq+0x15e>
 8004d12:	f5b3 1f00 	cmp.w	r3, #2097152	; 0x200000
 8004d16:	f43f af7c 	beq.w	8004c12 <HAL_RCCEx_GetPeriphCLKFreq+0xca>
 8004d1a:	e772      	b.n	8004c02 <HAL_RCCEx_GetPeriphCLKFreq+0xba>
 8004d1c:	f5b3 0fc0 	cmp.w	r3, #6291456	; 0x600000
 8004d20:	d08b      	beq.n	8004c3a <HAL_RCCEx_GetPeriphCLKFreq+0xf2>
 8004d22:	f5b3 0f00 	cmp.w	r3, #8388608	; 0x800000
 8004d26:	f43f af53 	beq.w	8004bd0 <HAL_RCCEx_GetPeriphCLKFreq+0x88>
 8004d2a:	e76a      	b.n	8004c02 <HAL_RCCEx_GetPeriphCLKFreq+0xba>
 8004d2c:	f5b3 4f80 	cmp.w	r3, #16384	; 0x4000
 8004d30:	d0a8      	beq.n	8004c84 <HAL_RCCEx_GetPeriphCLKFreq+0x13c>
 8004d32:	e766      	b.n	8004c02 <HAL_RCCEx_GetPeriphCLKFreq+0xba>
 8004d34:	f5b3 5f80 	cmp.w	r3, #4096	; 0x1000
 8004d38:	f43f af6b 	beq.w	8004c12 <HAL_RCCEx_GetPeriphCLKFreq+0xca>
 8004d3c:	e761      	b.n	8004c02 <HAL_RCCEx_GetPeriphCLKFreq+0xba>
 8004d3e:	6813      	ldr	r3, [r2, #0]
 8004d40:	483f      	ldr	r0, [pc, #252]	; (8004e40 <HAL_RCCEx_GetPeriphCLKFreq+0x2f8>)
 8004d42:	f3c3 03c1 	ubfx	r3, r3, #3, #2
 8004d46:	40d8      	lsrs	r0, r3
 8004d48:	e778      	b.n	8004c3c <HAL_RCCEx_GetPeriphCLKFreq+0xf4>
 8004d4a:	4a3a      	ldr	r2, [pc, #232]	; (8004e34 <HAL_RCCEx_GetPeriphCLKFreq+0x2ec>)
 8004d4c:	6d93      	ldr	r3, [r2, #88]	; 0x58
 8004d4e:	f003 43e0 	and.w	r3, r3, #1879048192	; 0x70000000
 8004d52:	f1b3 5f40 	cmp.w	r3, #805306368	; 0x30000000
 8004d56:	d066      	beq.n	8004e26 <HAL_RCCEx_GetPeriphCLKFreq+0x2de>
 8004d58:	d82f      	bhi.n	8004dba <HAL_RCCEx_GetPeriphCLKFreq+0x272>
 8004d5a:	f1b3 5f80 	cmp.w	r3, #268435456	; 0x10000000
 8004d5e:	d04f      	beq.n	8004e00 <HAL_RCCEx_GetPeriphCLKFreq+0x2b8>
 8004d60:	f1b3 5f00 	cmp.w	r3, #536870912	; 0x20000000
 8004d64:	d131      	bne.n	8004dca <HAL_RCCEx_GetPeriphCLKFreq+0x282>
 8004d66:	4b33      	ldr	r3, [pc, #204]	; (8004e34 <HAL_RCCEx_GetPeriphCLKFreq+0x2ec>)
 8004d68:	6818      	ldr	r0, [r3, #0]
 8004d6a:	f010 5000 	ands.w	r0, r0, #536870912	; 0x20000000
 8004d6e:	f43f af65 	beq.w	8004c3c <HAL_RCCEx_GetPeriphCLKFreq+0xf4>
 8004d72:	a801      	add	r0, sp, #4
 8004d74:	f7ff fd64 	bl	8004840 <HAL_RCCEx_GetPLL3ClockFreq>
 8004d78:	9802      	ldr	r0, [sp, #8]
 8004d7a:	e75f      	b.n	8004c3c <HAL_RCCEx_GetPeriphCLKFreq+0xf4>
 8004d7c:	482e      	ldr	r0, [pc, #184]	; (8004e38 <HAL_RCCEx_GetPeriphCLKFreq+0x2f0>)
 8004d7e:	e75d      	b.n	8004c3c <HAL_RCCEx_GetPeriphCLKFreq+0xf4>
 8004d80:	4a2c      	ldr	r2, [pc, #176]	; (8004e34 <HAL_RCCEx_GetPeriphCLKFreq+0x2ec>)
 8004d82:	6d93      	ldr	r3, [r2, #88]	; 0x58
 8004d84:	f403 3340 	and.w	r3, r3, #196608	; 0x30000
 8004d88:	f5b3 3f80 	cmp.w	r3, #65536	; 0x10000
 8004d8c:	d02e      	beq.n	8004dec <HAL_RCCEx_GetPeriphCLKFreq+0x2a4>
 8004d8e:	f5b3 3f00 	cmp.w	r3, #131072	; 0x20000
 8004d92:	f43f af77 	beq.w	8004c84 <HAL_RCCEx_GetPeriphCLKFreq+0x13c>
 8004d96:	2b00      	cmp	r3, #0
 8004d98:	f47f af33 	bne.w	8004c02 <HAL_RCCEx_GetPeriphCLKFreq+0xba>
 8004d9c:	e739      	b.n	8004c12 <HAL_RCCEx_GetPeriphCLKFreq+0xca>
 8004d9e:	4b25      	ldr	r3, [pc, #148]	; (8004e34 <HAL_RCCEx_GetPeriphCLKFreq+0x2ec>)
 8004da0:	6cda      	ldr	r2, [r3, #76]	; 0x4c
 8004da2:	03d2      	lsls	r2, r2, #15
 8004da4:	d589      	bpl.n	8004cba <HAL_RCCEx_GetPeriphCLKFreq+0x172>
 8004da6:	6818      	ldr	r0, [r3, #0]
 8004da8:	f010 6000 	ands.w	r0, r0, #134217728	; 0x8000000
 8004dac:	f43f af46 	beq.w	8004c3c <HAL_RCCEx_GetPeriphCLKFreq+0xf4>
 8004db0:	a801      	add	r0, sp, #4
 8004db2:	f7ff fc87 	bl	80046c4 <HAL_RCCEx_GetPLL2ClockFreq>
 8004db6:	9803      	ldr	r0, [sp, #12]
 8004db8:	e740      	b.n	8004c3c <HAL_RCCEx_GetPeriphCLKFreq+0xf4>
 8004dba:	f1b3 4f80 	cmp.w	r3, #1073741824	; 0x40000000
 8004dbe:	d02a      	beq.n	8004e16 <HAL_RCCEx_GetPeriphCLKFreq+0x2ce>
 8004dc0:	f1b3 4fa0 	cmp.w	r3, #1342177280	; 0x50000000
 8004dc4:	f43f aeef 	beq.w	8004ba6 <HAL_RCCEx_GetPeriphCLKFreq+0x5e>
 8004dc8:	e71b      	b.n	8004c02 <HAL_RCCEx_GetPeriphCLKFreq+0xba>
 8004dca:	2b00      	cmp	r3, #0
 8004dcc:	f47f af19 	bne.w	8004c02 <HAL_RCCEx_GetPeriphCLKFreq+0xba>
 8004dd0:	f7fe fd1c 	bl	800380c <HAL_RCC_GetHCLKFreq>
 8004dd4:	4b17      	ldr	r3, [pc, #92]	; (8004e34 <HAL_RCCEx_GetPeriphCLKFreq+0x2ec>)
 8004dd6:	4a1b      	ldr	r2, [pc, #108]	; (8004e44 <HAL_RCCEx_GetPeriphCLKFreq+0x2fc>)
 8004dd8:	6a1b      	ldr	r3, [r3, #32]
 8004dda:	f3c3 1302 	ubfx	r3, r3, #4, #3
 8004dde:	5cd3      	ldrb	r3, [r2, r3]
 8004de0:	f003 031f 	and.w	r3, r3, #31
 8004de4:	40d8      	lsrs	r0, r3
 8004de6:	e729      	b.n	8004c3c <HAL_RCCEx_GetPeriphCLKFreq+0xf4>
 8004de8:	4817      	ldr	r0, [pc, #92]	; (8004e48 <HAL_RCCEx_GetPeriphCLKFreq+0x300>)
 8004dea:	e727      	b.n	8004c3c <HAL_RCCEx_GetPeriphCLKFreq+0xf4>
 8004dec:	6810      	ldr	r0, [r2, #0]
 8004dee:	f010 5000 	ands.w	r0, r0, #536870912	; 0x20000000
 8004df2:	f43f af23 	beq.w	8004c3c <HAL_RCCEx_GetPeriphCLKFreq+0xf4>
 8004df6:	a801      	add	r0, sp, #4
 8004df8:	f7ff fd22 	bl	8004840 <HAL_RCCEx_GetPLL3ClockFreq>
 8004dfc:	9803      	ldr	r0, [sp, #12]
 8004dfe:	e71d      	b.n	8004c3c <HAL_RCCEx_GetPeriphCLKFreq+0xf4>
 8004e00:	4b0c      	ldr	r3, [pc, #48]	; (8004e34 <HAL_RCCEx_GetPeriphCLKFreq+0x2ec>)
 8004e02:	6818      	ldr	r0, [r3, #0]
 8004e04:	f010 6000 	ands.w	r0, r0, #134217728	; 0x8000000
 8004e08:	f43f af18 	beq.w	8004c3c <HAL_RCCEx_GetPeriphCLKFreq+0xf4>
 8004e0c:	a801      	add	r0, sp, #4
 8004e0e:	f7ff fc59 	bl	80046c4 <HAL_RCCEx_GetPLL2ClockFreq>
 8004e12:	9802      	ldr	r0, [sp, #8]
 8004e14:	e712      	b.n	8004c3c <HAL_RCCEx_GetPeriphCLKFreq+0xf4>
 8004e16:	4a07      	ldr	r2, [pc, #28]	; (8004e34 <HAL_RCCEx_GetPeriphCLKFreq+0x2ec>)
 8004e18:	4b0b      	ldr	r3, [pc, #44]	; (8004e48 <HAL_RCCEx_GetPeriphCLKFreq+0x300>)
 8004e1a:	6810      	ldr	r0, [r2, #0]
 8004e1c:	f410 7080 	ands.w	r0, r0, #256	; 0x100
 8004e20:	bf18      	it	ne
 8004e22:	4618      	movne	r0, r3
 8004e24:	e70a      	b.n	8004c3c <HAL_RCCEx_GetPeriphCLKFreq+0xf4>
 8004e26:	6810      	ldr	r0, [r2, #0]
 8004e28:	f010 0004 	ands.w	r0, r0, #4
 8004e2c:	f43f af06 	beq.w	8004c3c <HAL_RCCEx_GetPeriphCLKFreq+0xf4>
 8004e30:	e730      	b.n	8004c94 <HAL_RCCEx_GetPeriphCLKFreq+0x14c>
 8004e32:	bf00      	nop
 8004e34:	58024400 	.word	0x58024400
 8004e38:	01e84800 	.word	0x01e84800
 8004e3c:	00bb8000 	.word	0x00bb8000
 8004e40:	03d09000 	.word	0x03d09000
 8004e44:	0800ba60 	.word	0x0800ba60
 8004e48:	003d0900 	.word	0x003d0900

08004e4c <RTC_ExitInitMode>:
 8004e4c:	b538      	push	{r3, r4, r5, lr}
 8004e4e:	4b22      	ldr	r3, [pc, #136]	; (8004ed8 <RTC_ExitInitMode+0x8c>)
 8004e50:	4604      	mov	r4, r0
 8004e52:	68da      	ldr	r2, [r3, #12]
 8004e54:	f022 0240 	bic.w	r2, r2, #64	; 0x40
 8004e58:	60da      	str	r2, [r3, #12]
 8004e5a:	689a      	ldr	r2, [r3, #8]
 8004e5c:	0691      	lsls	r1, r2, #26
 8004e5e:	d414      	bmi.n	8004e8a <RTC_ExitInitMode+0x3e>
 8004e60:	6802      	ldr	r2, [r0, #0]
 8004e62:	68d3      	ldr	r3, [r2, #12]
 8004e64:	f023 03a0 	bic.w	r3, r3, #160	; 0xa0
 8004e68:	60d3      	str	r3, [r2, #12]
 8004e6a:	f7fb fbf1 	bl	8000650 <HAL_GetTick>
 8004e6e:	4605      	mov	r5, r0
 8004e70:	e005      	b.n	8004e7e <RTC_ExitInitMode+0x32>
 8004e72:	f7fb fbed 	bl	8000650 <HAL_GetTick>
 8004e76:	1b43      	subs	r3, r0, r5
 8004e78:	f5b3 7f7a 	cmp.w	r3, #1000	; 0x3e8
 8004e7c:	d827      	bhi.n	8004ece <RTC_ExitInitMode+0x82>
 8004e7e:	6823      	ldr	r3, [r4, #0]
 8004e80:	68db      	ldr	r3, [r3, #12]
 8004e82:	069a      	lsls	r2, r3, #26
 8004e84:	d5f5      	bpl.n	8004e72 <RTC_ExitInitMode+0x26>
 8004e86:	2000      	movs	r0, #0
 8004e88:	bd38      	pop	{r3, r4, r5, pc}
 8004e8a:	689a      	ldr	r2, [r3, #8]
 8004e8c:	6801      	ldr	r1, [r0, #0]
 8004e8e:	f022 0220 	bic.w	r2, r2, #32
 8004e92:	609a      	str	r2, [r3, #8]
 8004e94:	68cb      	ldr	r3, [r1, #12]
 8004e96:	f023 03a0 	bic.w	r3, r3, #160	; 0xa0
 8004e9a:	60cb      	str	r3, [r1, #12]
 8004e9c:	f7fb fbd8 	bl	8000650 <HAL_GetTick>
 8004ea0:	4605      	mov	r5, r0
 8004ea2:	e005      	b.n	8004eb0 <RTC_ExitInitMode+0x64>
 8004ea4:	f7fb fbd4 	bl	8000650 <HAL_GetTick>
 8004ea8:	1b43      	subs	r3, r0, r5
 8004eaa:	f5b3 7f7a 	cmp.w	r3, #1000	; 0x3e8
 8004eae:	d80a      	bhi.n	8004ec6 <RTC_ExitInitMode+0x7a>
 8004eb0:	6823      	ldr	r3, [r4, #0]
 8004eb2:	68db      	ldr	r3, [r3, #12]
 8004eb4:	069b      	lsls	r3, r3, #26
 8004eb6:	d5f5      	bpl.n	8004ea4 <RTC_ExitInitMode+0x58>
 8004eb8:	2000      	movs	r0, #0
 8004eba:	4a07      	ldr	r2, [pc, #28]	; (8004ed8 <RTC_ExitInitMode+0x8c>)
 8004ebc:	6893      	ldr	r3, [r2, #8]
 8004ebe:	f043 0320 	orr.w	r3, r3, #32
 8004ec2:	6093      	str	r3, [r2, #8]
 8004ec4:	bd38      	pop	{r3, r4, r5, pc}
 8004ec6:	2003      	movs	r0, #3
 8004ec8:	f884 0021 	strb.w	r0, [r4, #33]	; 0x21
 8004ecc:	e7f5      	b.n	8004eba <RTC_ExitInitMode+0x6e>
 8004ece:	2003      	movs	r0, #3
 8004ed0:	f884 0021 	strb.w	r0, [r4, #33]	; 0x21
 8004ed4:	bd38      	pop	{r3, r4, r5, pc}
 8004ed6:	bf00      	nop
 8004ed8:	58004000 	.word	0x58004000

08004edc <HAL_RTC_Init>:
 8004edc:	2800      	cmp	r0, #0
 8004ede:	d057      	beq.n	8004f90 <HAL_RTC_Init+0xb4>
 8004ee0:	b570      	push	{r4, r5, r6, lr}
 8004ee2:	f890 3021 	ldrb.w	r3, [r0, #33]	; 0x21
 8004ee6:	4604      	mov	r4, r0
 8004ee8:	f003 02ff 	and.w	r2, r3, #255	; 0xff
 8004eec:	2b00      	cmp	r3, #0
 8004eee:	d042      	beq.n	8004f76 <HAL_RTC_Init+0x9a>
 8004ef0:	6823      	ldr	r3, [r4, #0]
 8004ef2:	21ca      	movs	r1, #202	; 0xca
 8004ef4:	2253      	movs	r2, #83	; 0x53
 8004ef6:	2002      	movs	r0, #2
 8004ef8:	f884 0021 	strb.w	r0, [r4, #33]	; 0x21
 8004efc:	6259      	str	r1, [r3, #36]	; 0x24
 8004efe:	625a      	str	r2, [r3, #36]	; 0x24
 8004f00:	68da      	ldr	r2, [r3, #12]
 8004f02:	0651      	lsls	r1, r2, #25
 8004f04:	d525      	bpl.n	8004f52 <HAL_RTC_Init+0x76>
 8004f06:	689d      	ldr	r5, [r3, #8]
 8004f08:	4620      	mov	r0, r4
 8004f0a:	4922      	ldr	r1, [pc, #136]	; (8004f94 <HAL_RTC_Init+0xb8>)
 8004f0c:	6862      	ldr	r2, [r4, #4]
 8004f0e:	4029      	ands	r1, r5
 8004f10:	6925      	ldr	r5, [r4, #16]
 8004f12:	432a      	orrs	r2, r5
 8004f14:	69a5      	ldr	r5, [r4, #24]
 8004f16:	6099      	str	r1, [r3, #8]
 8004f18:	432a      	orrs	r2, r5
 8004f1a:	6899      	ldr	r1, [r3, #8]
 8004f1c:	68a5      	ldr	r5, [r4, #8]
 8004f1e:	430a      	orrs	r2, r1
 8004f20:	68e1      	ldr	r1, [r4, #12]
 8004f22:	ea41 4105 	orr.w	r1, r1, r5, lsl #16
 8004f26:	609a      	str	r2, [r3, #8]
 8004f28:	6119      	str	r1, [r3, #16]
 8004f2a:	f7ff ff8f 	bl	8004e4c <RTC_ExitInitMode>
 8004f2e:	6823      	ldr	r3, [r4, #0]
 8004f30:	bb58      	cbnz	r0, 8004f8a <HAL_RTC_Init+0xae>
 8004f32:	6cd9      	ldr	r1, [r3, #76]	; 0x4c
 8004f34:	26ff      	movs	r6, #255	; 0xff
 8004f36:	6965      	ldr	r5, [r4, #20]
 8004f38:	69e2      	ldr	r2, [r4, #28]
 8004f3a:	f021 0103 	bic.w	r1, r1, #3
 8004f3e:	432a      	orrs	r2, r5
 8004f40:	64d9      	str	r1, [r3, #76]	; 0x4c
 8004f42:	6cd9      	ldr	r1, [r3, #76]	; 0x4c
 8004f44:	2501      	movs	r5, #1
 8004f46:	430a      	orrs	r2, r1
 8004f48:	64da      	str	r2, [r3, #76]	; 0x4c
 8004f4a:	625e      	str	r6, [r3, #36]	; 0x24
 8004f4c:	f884 5021 	strb.w	r5, [r4, #33]	; 0x21
 8004f50:	bd70      	pop	{r4, r5, r6, pc}
 8004f52:	f04f 32ff 	mov.w	r2, #4294967295
 8004f56:	60da      	str	r2, [r3, #12]
 8004f58:	f7fb fb7a 	bl	8000650 <HAL_GetTick>
 8004f5c:	4605      	mov	r5, r0
 8004f5e:	e005      	b.n	8004f6c <HAL_RTC_Init+0x90>
 8004f60:	f7fb fb76 	bl	8000650 <HAL_GetTick>
 8004f64:	1b43      	subs	r3, r0, r5
 8004f66:	f5b3 7f7a 	cmp.w	r3, #1000	; 0x3e8
 8004f6a:	d809      	bhi.n	8004f80 <HAL_RTC_Init+0xa4>
 8004f6c:	6823      	ldr	r3, [r4, #0]
 8004f6e:	68da      	ldr	r2, [r3, #12]
 8004f70:	0652      	lsls	r2, r2, #25
 8004f72:	d4c8      	bmi.n	8004f06 <HAL_RTC_Init+0x2a>
 8004f74:	e7f4      	b.n	8004f60 <HAL_RTC_Init+0x84>
 8004f76:	f880 2020 	strb.w	r2, [r0, #32]
 8004f7a:	f005 fd7d 	bl	800aa78 <HAL_RTC_MspInit>
 8004f7e:	e7b7      	b.n	8004ef0 <HAL_RTC_Init+0x14>
 8004f80:	2003      	movs	r0, #3
 8004f82:	6823      	ldr	r3, [r4, #0]
 8004f84:	f884 0021 	strb.w	r0, [r4, #33]	; 0x21
 8004f88:	68da      	ldr	r2, [r3, #12]
 8004f8a:	22ff      	movs	r2, #255	; 0xff
 8004f8c:	625a      	str	r2, [r3, #36]	; 0x24
 8004f8e:	bd70      	pop	{r4, r5, r6, pc}
 8004f90:	2001      	movs	r0, #1
 8004f92:	4770      	bx	lr
 8004f94:	ff8fffbf 	.word	0xff8fffbf

08004f98 <SPI_CloseTransfer>:
 8004f98:	6803      	ldr	r3, [r0, #0]
 8004f9a:	492c      	ldr	r1, [pc, #176]	; (800504c <SPI_CloseTransfer+0xb4>)
 8004f9c:	695a      	ldr	r2, [r3, #20]
 8004f9e:	b410      	push	{r4}
 8004fa0:	699c      	ldr	r4, [r3, #24]
 8004fa2:	f044 0408 	orr.w	r4, r4, #8
 8004fa6:	619c      	str	r4, [r3, #24]
 8004fa8:	699c      	ldr	r4, [r3, #24]
 8004faa:	f044 0410 	orr.w	r4, r4, #16
 8004fae:	619c      	str	r4, [r3, #24]
 8004fb0:	681c      	ldr	r4, [r3, #0]
 8004fb2:	f024 0401 	bic.w	r4, r4, #1
 8004fb6:	601c      	str	r4, [r3, #0]
 8004fb8:	691c      	ldr	r4, [r3, #16]
 8004fba:	4021      	ands	r1, r4
 8004fbc:	6119      	str	r1, [r3, #16]
 8004fbe:	6899      	ldr	r1, [r3, #8]
 8004fc0:	f421 4140 	bic.w	r1, r1, #49152	; 0xc000
 8004fc4:	6099      	str	r1, [r3, #8]
 8004fc6:	f890 1081 	ldrb.w	r1, [r0, #129]	; 0x81
 8004fca:	2904      	cmp	r1, #4
 8004fcc:	d001      	beq.n	8004fd2 <SPI_CloseTransfer+0x3a>
 8004fce:	0691      	lsls	r1, r2, #26
 8004fd0:	d430      	bmi.n	8005034 <SPI_CloseTransfer+0x9c>
 8004fd2:	f890 1081 	ldrb.w	r1, [r0, #129]	; 0x81
 8004fd6:	2903      	cmp	r1, #3
 8004fd8:	d001      	beq.n	8004fde <SPI_CloseTransfer+0x46>
 8004fda:	0654      	lsls	r4, r2, #25
 8004fdc:	d41f      	bmi.n	800501e <SPI_CloseTransfer+0x86>
 8004fde:	0591      	lsls	r1, r2, #22
 8004fe0:	d509      	bpl.n	8004ff6 <SPI_CloseTransfer+0x5e>
 8004fe2:	f8d0 1084 	ldr.w	r1, [r0, #132]	; 0x84
 8004fe6:	f041 0101 	orr.w	r1, r1, #1
 8004fea:	f8c0 1084 	str.w	r1, [r0, #132]	; 0x84
 8004fee:	6999      	ldr	r1, [r3, #24]
 8004ff0:	f441 7100 	orr.w	r1, r1, #512	; 0x200
 8004ff4:	6199      	str	r1, [r3, #24]
 8004ff6:	05d2      	lsls	r2, r2, #23
 8004ff8:	d509      	bpl.n	800500e <SPI_CloseTransfer+0x76>
 8004ffa:	f8d0 2084 	ldr.w	r2, [r0, #132]	; 0x84
 8004ffe:	f042 0208 	orr.w	r2, r2, #8
 8005002:	f8c0 2084 	str.w	r2, [r0, #132]	; 0x84
 8005006:	699a      	ldr	r2, [r3, #24]
 8005008:	f442 7280 	orr.w	r2, r2, #256	; 0x100
 800500c:	619a      	str	r2, [r3, #24]
 800500e:	2300      	movs	r3, #0
 8005010:	f85d 4b04 	ldr.w	r4, [sp], #4
 8005014:	f8a0 3062 	strh.w	r3, [r0, #98]	; 0x62
 8005018:	f8a0 306a 	strh.w	r3, [r0, #106]	; 0x6a
 800501c:	4770      	bx	lr
 800501e:	f8d0 1084 	ldr.w	r1, [r0, #132]	; 0x84
 8005022:	f041 0104 	orr.w	r1, r1, #4
 8005026:	f8c0 1084 	str.w	r1, [r0, #132]	; 0x84
 800502a:	6999      	ldr	r1, [r3, #24]
 800502c:	f041 0140 	orr.w	r1, r1, #64	; 0x40
 8005030:	6199      	str	r1, [r3, #24]
 8005032:	e7d4      	b.n	8004fde <SPI_CloseTransfer+0x46>
 8005034:	f8d0 1084 	ldr.w	r1, [r0, #132]	; 0x84
 8005038:	f041 0180 	orr.w	r1, r1, #128	; 0x80
 800503c:	f8c0 1084 	str.w	r1, [r0, #132]	; 0x84
 8005040:	6999      	ldr	r1, [r3, #24]
 8005042:	f041 0120 	orr.w	r1, r1, #32
 8005046:	6199      	str	r1, [r3, #24]
 8005048:	e7c3      	b.n	8004fd2 <SPI_CloseTransfer+0x3a>
 800504a:	bf00      	nop
 800504c:	fffffc90 	.word	0xfffffc90

08005050 <HAL_SPI_Init>:
 8005050:	2800      	cmp	r0, #0
 8005052:	f000 80b8 	beq.w	80051c6 <HAL_SPI_Init+0x176>
 8005056:	6801      	ldr	r1, [r0, #0]
 8005058:	2200      	movs	r2, #0
 800505a:	b5f8      	push	{r3, r4, r5, r6, r7, lr}
 800505c:	4b5c      	ldr	r3, [pc, #368]	; (80051d0 <HAL_SPI_Init+0x180>)
 800505e:	4604      	mov	r4, r0
 8005060:	6282      	str	r2, [r0, #40]	; 0x28
 8005062:	4299      	cmp	r1, r3
 8005064:	d018      	beq.n	8005098 <HAL_SPI_Init+0x48>
 8005066:	f5a3 4378 	sub.w	r3, r3, #63488	; 0xf800
 800506a:	4299      	cmp	r1, r3
 800506c:	d014      	beq.n	8005098 <HAL_SPI_Init+0x48>
 800506e:	f503 6380 	add.w	r3, r3, #1024	; 0x400
 8005072:	68c5      	ldr	r5, [r0, #12]
 8005074:	4299      	cmp	r1, r3
 8005076:	f000 809c 	beq.w	80051b2 <HAL_SPI_Init+0x162>
 800507a:	2d0f      	cmp	r5, #15
 800507c:	d80a      	bhi.n	8005094 <HAL_SPI_Init+0x44>
 800507e:	f8d0 e03c 	ldr.w	lr, [r0, #60]	; 0x3c
 8005082:	f105 0308 	add.w	r3, r5, #8
 8005086:	ea4f 125e 	mov.w	r2, lr, lsr #5
 800508a:	08db      	lsrs	r3, r3, #3
 800508c:	fb02 3303 	mla	r3, r2, r3, r3
 8005090:	2b08      	cmp	r3, #8
 8005092:	d917      	bls.n	80050c4 <HAL_SPI_Init+0x74>
 8005094:	2001      	movs	r0, #1
 8005096:	bdf8      	pop	{r3, r4, r5, r6, r7, pc}
 8005098:	68e5      	ldr	r5, [r4, #12]
 800509a:	f8d4 e03c 	ldr.w	lr, [r4, #60]	; 0x3c
 800509e:	f105 0308 	add.w	r3, r5, #8
 80050a2:	484b      	ldr	r0, [pc, #300]	; (80051d0 <HAL_SPI_Init+0x180>)
 80050a4:	4a4b      	ldr	r2, [pc, #300]	; (80051d4 <HAL_SPI_Init+0x184>)
 80050a6:	ea4f 165e 	mov.w	r6, lr, lsr #5
 80050aa:	08db      	lsrs	r3, r3, #3
 80050ac:	4291      	cmp	r1, r2
 80050ae:	bf18      	it	ne
 80050b0:	4281      	cmpne	r1, r0
 80050b2:	fb06 3303 	mla	r3, r6, r3, r3
 80050b6:	d003      	beq.n	80050c0 <HAL_SPI_Init+0x70>
 80050b8:	f502 6280 	add.w	r2, r2, #1024	; 0x400
 80050bc:	4291      	cmp	r1, r2
 80050be:	d101      	bne.n	80050c4 <HAL_SPI_Init+0x74>
 80050c0:	2b10      	cmp	r3, #16
 80050c2:	d8e7      	bhi.n	8005094 <HAL_SPI_Init+0x44>
 80050c4:	f894 3081 	ldrb.w	r3, [r4, #129]	; 0x81
 80050c8:	f003 02ff 	and.w	r2, r3, #255	; 0xff
 80050cc:	2b00      	cmp	r3, #0
 80050ce:	d065      	beq.n	800519c <HAL_SPI_Init+0x14c>
 80050d0:	2700      	movs	r7, #0
 80050d2:	2202      	movs	r2, #2
 80050d4:	69a3      	ldr	r3, [r4, #24]
 80050d6:	6860      	ldr	r0, [r4, #4]
 80050d8:	f884 2081 	strb.w	r2, [r4, #129]	; 0x81
 80050dc:	f1b3 6f80 	cmp.w	r3, #67108864	; 0x4000000
 80050e0:	680a      	ldr	r2, [r1, #0]
 80050e2:	6ba6      	ldr	r6, [r4, #56]	; 0x38
 80050e4:	f022 0201 	bic.w	r2, r2, #1
 80050e8:	600a      	str	r2, [r1, #0]
 80050ea:	688a      	ldr	r2, [r1, #8]
 80050ec:	f402 1cf8 	and.w	ip, r2, #2031616	; 0x1f0000
 80050f0:	d047      	beq.n	8005182 <HAL_SPI_Init+0x132>
 80050f2:	6b62      	ldr	r2, [r4, #52]	; 0x34
 80050f4:	ea47 0e0e 	orr.w	lr, r7, lr
 80050f8:	69e7      	ldr	r7, [r4, #28]
 80050fa:	431a      	orrs	r2, r3
 80050fc:	6a63      	ldr	r3, [r4, #36]	; 0x24
 80050fe:	ea4e 0e07 	orr.w	lr, lr, r7
 8005102:	6967      	ldr	r7, [r4, #20]
 8005104:	431a      	orrs	r2, r3
 8005106:	6923      	ldr	r3, [r4, #16]
 8005108:	ea4e 0505 	orr.w	r5, lr, r5
 800510c:	f8d4 e020 	ldr.w	lr, [r4, #32]
 8005110:	431a      	orrs	r2, r3
 8005112:	6ce3      	ldr	r3, [r4, #76]	; 0x4c
 8005114:	ea45 050c 	orr.w	r5, r5, ip
 8005118:	f8d4 c008 	ldr.w	ip, [r4, #8]
 800511c:	433a      	orrs	r2, r7
 800511e:	6ca7      	ldr	r7, [r4, #72]	; 0x48
 8005120:	608d      	str	r5, [r1, #8]
 8005122:	ea42 020e 	orr.w	r2, r2, lr
 8005126:	6da5      	ldr	r5, [r4, #88]	; 0x58
 8005128:	4313      	orrs	r3, r2
 800512a:	ea43 030c 	orr.w	r3, r3, ip
 800512e:	433b      	orrs	r3, r7
 8005130:	432b      	orrs	r3, r5
 8005132:	4303      	orrs	r3, r0
 8005134:	4333      	orrs	r3, r6
 8005136:	60cb      	str	r3, [r1, #12]
 8005138:	b9b0      	cbnz	r0, 8005168 <HAL_SPI_Init+0x118>
 800513a:	688b      	ldr	r3, [r1, #8]
 800513c:	f423 53c0 	bic.w	r3, r3, #6144	; 0x1800
 8005140:	f443 6300 	orr.w	r3, r3, #2048	; 0x800
 8005144:	608b      	str	r3, [r1, #8]
 8005146:	688b      	ldr	r3, [r1, #8]
 8005148:	f423 63c0 	bic.w	r3, r3, #1536	; 0x600
 800514c:	f443 6380 	orr.w	r3, r3, #1024	; 0x400
 8005150:	608b      	str	r3, [r1, #8]
 8005152:	6d0b      	ldr	r3, [r1, #80]	; 0x50
 8005154:	f023 0301 	bic.w	r3, r3, #1
 8005158:	650b      	str	r3, [r1, #80]	; 0x50
 800515a:	2000      	movs	r0, #0
 800515c:	2301      	movs	r3, #1
 800515e:	f8c4 0084 	str.w	r0, [r4, #132]	; 0x84
 8005162:	f884 3081 	strb.w	r3, [r4, #129]	; 0x81
 8005166:	bdf8      	pop	{r3, r4, r5, r6, r7, pc}
 8005168:	6d0b      	ldr	r3, [r1, #80]	; 0x50
 800516a:	f023 0301 	bic.w	r3, r3, #1
 800516e:	650b      	str	r3, [r1, #80]	; 0x50
 8005170:	0243      	lsls	r3, r0, #9
 8005172:	d5f2      	bpl.n	800515a <HAL_SPI_Init+0x10a>
 8005174:	68cb      	ldr	r3, [r1, #12]
 8005176:	6d62      	ldr	r2, [r4, #84]	; 0x54
 8005178:	f023 4300 	bic.w	r3, r3, #2147483648	; 0x80000000
 800517c:	4313      	orrs	r3, r2
 800517e:	60cb      	str	r3, [r1, #12]
 8005180:	e7eb      	b.n	800515a <HAL_SPI_Init+0x10a>
 8005182:	f5b0 0f80 	cmp.w	r0, #4194304	; 0x400000
 8005186:	d020      	beq.n	80051ca <HAL_SPI_Init+0x17a>
 8005188:	2800      	cmp	r0, #0
 800518a:	d1b2      	bne.n	80050f2 <HAL_SPI_Init+0xa2>
 800518c:	f1b6 5f80 	cmp.w	r6, #268435456	; 0x10000000
 8005190:	d1af      	bne.n	80050f2 <HAL_SPI_Init+0xa2>
 8005192:	680a      	ldr	r2, [r1, #0]
 8005194:	f442 5280 	orr.w	r2, r2, #4096	; 0x1000
 8005198:	600a      	str	r2, [r1, #0]
 800519a:	e7aa      	b.n	80050f2 <HAL_SPI_Init+0xa2>
 800519c:	4620      	mov	r0, r4
 800519e:	f884 2080 	strb.w	r2, [r4, #128]	; 0x80
 80051a2:	f005 fc8f 	bl	800aac4 <HAL_SPI_MspInit>
 80051a6:	6821      	ldr	r1, [r4, #0]
 80051a8:	6aa7      	ldr	r7, [r4, #40]	; 0x28
 80051aa:	f8d4 e03c 	ldr.w	lr, [r4, #60]	; 0x3c
 80051ae:	68e5      	ldr	r5, [r4, #12]
 80051b0:	e78f      	b.n	80050d2 <HAL_SPI_Init+0x82>
 80051b2:	f8d0 e03c 	ldr.w	lr, [r0, #60]	; 0x3c
 80051b6:	f105 0308 	add.w	r3, r5, #8
 80051ba:	ea4f 125e 	mov.w	r2, lr, lsr #5
 80051be:	08db      	lsrs	r3, r3, #3
 80051c0:	fb02 3303 	mla	r3, r2, r3, r3
 80051c4:	e77c      	b.n	80050c0 <HAL_SPI_Init+0x70>
 80051c6:	2001      	movs	r0, #1
 80051c8:	4770      	bx	lr
 80051ca:	2e00      	cmp	r6, #0
 80051cc:	d0e1      	beq.n	8005192 <HAL_SPI_Init+0x142>
 80051ce:	e790      	b.n	80050f2 <HAL_SPI_Init+0xa2>
 80051d0:	40013000 	.word	0x40013000
 80051d4:	40003800 	.word	0x40003800

080051d8 <HAL_SPI_TransmitReceive>:
 80051d8:	e92d 4ff8 	stmdb	sp!, {r3, r4, r5, r6, r7, r8, r9, sl, fp, lr}
 80051dc:	461d      	mov	r5, r3
 80051de:	f890 3080 	ldrb.w	r3, [r0, #128]	; 0x80
 80051e2:	f8dd 8028 	ldr.w	r8, [sp, #40]	; 0x28
 80051e6:	2b01      	cmp	r3, #1
 80051e8:	f000 80b4 	beq.w	8005354 <HAL_SPI_TransmitReceive+0x17c>
 80051ec:	2301      	movs	r3, #1
 80051ee:	4604      	mov	r4, r0
 80051f0:	4689      	mov	r9, r1
 80051f2:	4693      	mov	fp, r2
 80051f4:	f880 3080 	strb.w	r3, [r0, #128]	; 0x80
 80051f8:	f8d0 a000 	ldr.w	sl, [r0]
 80051fc:	f7fb fa28 	bl	8000650 <HAL_GetTick>
 8005200:	f894 3081 	ldrb.w	r3, [r4, #129]	; 0x81
 8005204:	4607      	mov	r7, r0
 8005206:	6862      	ldr	r2, [r4, #4]
 8005208:	2b01      	cmp	r3, #1
 800520a:	b2d9      	uxtb	r1, r3
 800520c:	d00a      	beq.n	8005224 <HAL_SPI_TransmitReceive+0x4c>
 800520e:	f5b2 0f80 	cmp.w	r2, #4194304	; 0x400000
 8005212:	f040 8093 	bne.w	800533c <HAL_SPI_TransmitReceive+0x164>
 8005216:	68a3      	ldr	r3, [r4, #8]
 8005218:	2b00      	cmp	r3, #0
 800521a:	f040 808f 	bne.w	800533c <HAL_SPI_TransmitReceive+0x164>
 800521e:	2904      	cmp	r1, #4
 8005220:	f040 808c 	bne.w	800533c <HAL_SPI_TransmitReceive+0x164>
 8005224:	f1bb 0f00 	cmp.w	fp, #0
 8005228:	bf18      	it	ne
 800522a:	f1b9 0f00 	cmpne.w	r9, #0
 800522e:	f000 808b 	beq.w	8005348 <HAL_SPI_TransmitReceive+0x170>
 8005232:	2d00      	cmp	r5, #0
 8005234:	f000 8088 	beq.w	8005348 <HAL_SPI_TransmitReceive+0x170>
 8005238:	f894 3081 	ldrb.w	r3, [r4, #129]	; 0x81
 800523c:	2b04      	cmp	r3, #4
 800523e:	d002      	beq.n	8005246 <HAL_SPI_TransmitReceive+0x6e>
 8005240:	2305      	movs	r3, #5
 8005242:	f884 3081 	strb.w	r3, [r4, #129]	; 0x81
 8005246:	6826      	ldr	r6, [r4, #0]
 8005248:	2100      	movs	r1, #0
 800524a:	4b92      	ldr	r3, [pc, #584]	; (8005494 <HAL_SPI_TransmitReceive+0x2bc>)
 800524c:	f5b2 0f80 	cmp.w	r2, #4194304	; 0x400000
 8005250:	f8c4 1084 	str.w	r1, [r4, #132]	; 0x84
 8005254:	f8a4 506a 	strh.w	r5, [r4, #106]	; 0x6a
 8005258:	f8a4 5062 	strh.w	r5, [r4, #98]	; 0x62
 800525c:	6870      	ldr	r0, [r6, #4]
 800525e:	f8c4 b064 	str.w	fp, [r4, #100]	; 0x64
 8005262:	ea03 0300 	and.w	r3, r3, r0
 8005266:	f8a4 5068 	strh.w	r5, [r4, #104]	; 0x68
 800526a:	f8c4 905c 	str.w	r9, [r4, #92]	; 0x5c
 800526e:	ea43 0305 	orr.w	r3, r3, r5
 8005272:	f8a4 5060 	strh.w	r5, [r4, #96]	; 0x60
 8005276:	e9c4 111c 	strd	r1, r1, [r4, #112]	; 0x70
 800527a:	6073      	str	r3, [r6, #4]
 800527c:	6833      	ldr	r3, [r6, #0]
 800527e:	f043 0301 	orr.w	r3, r3, #1
 8005282:	6033      	str	r3, [r6, #0]
 8005284:	d103      	bne.n	800528e <HAL_SPI_TransmitReceive+0xb6>
 8005286:	6833      	ldr	r3, [r6, #0]
 8005288:	f443 7300 	orr.w	r3, r3, #512	; 0x200
 800528c:	6033      	str	r3, [r6, #0]
 800528e:	68e3      	ldr	r3, [r4, #12]
 8005290:	46a9      	mov	r9, r5
 8005292:	2b0f      	cmp	r3, #15
 8005294:	f240 80b8 	bls.w	8005408 <HAL_SPI_TransmitReceive+0x230>
 8005298:	f1b8 3fff 	cmp.w	r8, #4294967295
 800529c:	f248 0a08 	movw	sl, #32776	; 0x8008
 80052a0:	d001      	beq.n	80052a6 <HAL_SPI_TransmitReceive+0xce>
 80052a2:	e089      	b.n	80053b8 <HAL_SPI_TransmitReceive+0x1e0>
 80052a4:	6826      	ldr	r6, [r4, #0]
 80052a6:	6973      	ldr	r3, [r6, #20]
 80052a8:	079b      	lsls	r3, r3, #30
 80052aa:	d50e      	bpl.n	80052ca <HAL_SPI_TransmitReceive+0xf2>
 80052ac:	b16d      	cbz	r5, 80052ca <HAL_SPI_TransmitReceive+0xf2>
 80052ae:	6de2      	ldr	r2, [r4, #92]	; 0x5c
 80052b0:	f852 3b04 	ldr.w	r3, [r2], #4
 80052b4:	6233      	str	r3, [r6, #32]
 80052b6:	f8b4 3062 	ldrh.w	r3, [r4, #98]	; 0x62
 80052ba:	65e2      	str	r2, [r4, #92]	; 0x5c
 80052bc:	3b01      	subs	r3, #1
 80052be:	b29b      	uxth	r3, r3
 80052c0:	f8a4 3062 	strh.w	r3, [r4, #98]	; 0x62
 80052c4:	f8b4 5062 	ldrh.w	r5, [r4, #98]	; 0x62
 80052c8:	b2ad      	uxth	r5, r5
 80052ca:	6973      	ldr	r3, [r6, #20]
 80052cc:	ea13 0f0a 	tst.w	r3, sl
 80052d0:	d011      	beq.n	80052f6 <HAL_SPI_TransmitReceive+0x11e>
 80052d2:	f1b9 0f00 	cmp.w	r9, #0
 80052d6:	d00e      	beq.n	80052f6 <HAL_SPI_TransmitReceive+0x11e>
 80052d8:	6b31      	ldr	r1, [r6, #48]	; 0x30
 80052da:	f8b4 306a 	ldrh.w	r3, [r4, #106]	; 0x6a
 80052de:	6e62      	ldr	r2, [r4, #100]	; 0x64
 80052e0:	3b01      	subs	r3, #1
 80052e2:	f842 1b04 	str.w	r1, [r2], #4
 80052e6:	b29b      	uxth	r3, r3
 80052e8:	6662      	str	r2, [r4, #100]	; 0x64
 80052ea:	f8a4 306a 	strh.w	r3, [r4, #106]	; 0x6a
 80052ee:	f8b4 906a 	ldrh.w	r9, [r4, #106]	; 0x6a
 80052f2:	fa1f f989 	uxth.w	r9, r9
 80052f6:	f7fb f9ab 	bl	8000650 <HAL_GetTick>
 80052fa:	ea45 0309 	orr.w	r3, r5, r9
 80052fe:	b29b      	uxth	r3, r3
 8005300:	2b00      	cmp	r3, #0
 8005302:	d1cf      	bne.n	80052a4 <HAL_SPI_TransmitReceive+0xcc>
 8005304:	6823      	ldr	r3, [r4, #0]
 8005306:	695b      	ldr	r3, [r3, #20]
 8005308:	071a      	lsls	r2, r3, #28
 800530a:	d408      	bmi.n	800531e <HAL_SPI_TransmitReceive+0x146>
 800530c:	f1b8 3fff 	cmp.w	r8, #4294967295
 8005310:	d15c      	bne.n	80053cc <HAL_SPI_TransmitReceive+0x1f4>
 8005312:	f7fb f99d 	bl	8000650 <HAL_GetTick>
 8005316:	6823      	ldr	r3, [r4, #0]
 8005318:	695b      	ldr	r3, [r3, #20]
 800531a:	0719      	lsls	r1, r3, #28
 800531c:	d5f9      	bpl.n	8005312 <HAL_SPI_TransmitReceive+0x13a>
 800531e:	4620      	mov	r0, r4
 8005320:	f7ff fe3a 	bl	8004f98 <SPI_CloseTransfer>
 8005324:	2201      	movs	r2, #1
 8005326:	2300      	movs	r3, #0
 8005328:	f884 2081 	strb.w	r2, [r4, #129]	; 0x81
 800532c:	f8d4 0084 	ldr.w	r0, [r4, #132]	; 0x84
 8005330:	f884 3080 	strb.w	r3, [r4, #128]	; 0x80
 8005334:	1ac0      	subs	r0, r0, r3
 8005336:	bf18      	it	ne
 8005338:	2001      	movne	r0, #1
 800533a:	e003      	b.n	8005344 <HAL_SPI_TransmitReceive+0x16c>
 800533c:	2300      	movs	r3, #0
 800533e:	2002      	movs	r0, #2
 8005340:	f884 3080 	strb.w	r3, [r4, #128]	; 0x80
 8005344:	e8bd 8ff8 	ldmia.w	sp!, {r3, r4, r5, r6, r7, r8, r9, sl, fp, pc}
 8005348:	2300      	movs	r3, #0
 800534a:	2001      	movs	r0, #1
 800534c:	f884 3080 	strb.w	r3, [r4, #128]	; 0x80
 8005350:	e8bd 8ff8 	ldmia.w	sp!, {r3, r4, r5, r6, r7, r8, r9, sl, fp, pc}
 8005354:	2002      	movs	r0, #2
 8005356:	e8bd 8ff8 	ldmia.w	sp!, {r3, r4, r5, r6, r7, r8, r9, sl, fp, pc}
 800535a:	6de2      	ldr	r2, [r4, #92]	; 0x5c
 800535c:	f852 3b04 	ldr.w	r3, [r2], #4
 8005360:	6233      	str	r3, [r6, #32]
 8005362:	f8b4 3062 	ldrh.w	r3, [r4, #98]	; 0x62
 8005366:	65e2      	str	r2, [r4, #92]	; 0x5c
 8005368:	3b01      	subs	r3, #1
 800536a:	b29b      	uxth	r3, r3
 800536c:	f8a4 3062 	strh.w	r3, [r4, #98]	; 0x62
 8005370:	f8b4 5062 	ldrh.w	r5, [r4, #98]	; 0x62
 8005374:	b2ad      	uxth	r5, r5
 8005376:	6973      	ldr	r3, [r6, #20]
 8005378:	ea13 0f0a 	tst.w	r3, sl
 800537c:	d011      	beq.n	80053a2 <HAL_SPI_TransmitReceive+0x1ca>
 800537e:	f1b9 0f00 	cmp.w	r9, #0
 8005382:	d00e      	beq.n	80053a2 <HAL_SPI_TransmitReceive+0x1ca>
 8005384:	6b31      	ldr	r1, [r6, #48]	; 0x30
 8005386:	f8b4 306a 	ldrh.w	r3, [r4, #106]	; 0x6a
 800538a:	6e62      	ldr	r2, [r4, #100]	; 0x64
 800538c:	3b01      	subs	r3, #1
 800538e:	f842 1b04 	str.w	r1, [r2], #4
 8005392:	b29b      	uxth	r3, r3
 8005394:	6662      	str	r2, [r4, #100]	; 0x64
 8005396:	f8a4 306a 	strh.w	r3, [r4, #106]	; 0x6a
 800539a:	f8b4 906a 	ldrh.w	r9, [r4, #106]	; 0x6a
 800539e:	fa1f f989 	uxth.w	r9, r9
 80053a2:	f7fb f955 	bl	8000650 <HAL_GetTick>
 80053a6:	1bc0      	subs	r0, r0, r7
 80053a8:	ea45 0309 	orr.w	r3, r5, r9
 80053ac:	4540      	cmp	r0, r8
 80053ae:	b29b      	uxth	r3, r3
 80053b0:	d218      	bcs.n	80053e4 <HAL_SPI_TransmitReceive+0x20c>
 80053b2:	2b00      	cmp	r3, #0
 80053b4:	d0a6      	beq.n	8005304 <HAL_SPI_TransmitReceive+0x12c>
 80053b6:	6826      	ldr	r6, [r4, #0]
 80053b8:	6973      	ldr	r3, [r6, #20]
 80053ba:	0798      	lsls	r0, r3, #30
 80053bc:	d5db      	bpl.n	8005376 <HAL_SPI_TransmitReceive+0x19e>
 80053be:	2d00      	cmp	r5, #0
 80053c0:	d0d9      	beq.n	8005376 <HAL_SPI_TransmitReceive+0x19e>
 80053c2:	e7ca      	b.n	800535a <HAL_SPI_TransmitReceive+0x182>
 80053c4:	6823      	ldr	r3, [r4, #0]
 80053c6:	695b      	ldr	r3, [r3, #20]
 80053c8:	071b      	lsls	r3, r3, #28
 80053ca:	d4a8      	bmi.n	800531e <HAL_SPI_TransmitReceive+0x146>
 80053cc:	f7fb f940 	bl	8000650 <HAL_GetTick>
 80053d0:	1bc0      	subs	r0, r0, r7
 80053d2:	4580      	cmp	r8, r0
 80053d4:	d8f6      	bhi.n	80053c4 <HAL_SPI_TransmitReceive+0x1ec>
 80053d6:	f8d4 3084 	ldr.w	r3, [r4, #132]	; 0x84
 80053da:	f043 0320 	orr.w	r3, r3, #32
 80053de:	f8c4 3084 	str.w	r3, [r4, #132]	; 0x84
 80053e2:	e79c      	b.n	800531e <HAL_SPI_TransmitReceive+0x146>
 80053e4:	4620      	mov	r0, r4
 80053e6:	f7ff fdd7 	bl	8004f98 <SPI_CloseTransfer>
 80053ea:	f8d4 3084 	ldr.w	r3, [r4, #132]	; 0x84
 80053ee:	2100      	movs	r1, #0
 80053f0:	2201      	movs	r2, #1
 80053f2:	f443 7380 	orr.w	r3, r3, #256	; 0x100
 80053f6:	2003      	movs	r0, #3
 80053f8:	f884 1080 	strb.w	r1, [r4, #128]	; 0x80
 80053fc:	f8c4 3084 	str.w	r3, [r4, #132]	; 0x84
 8005400:	f884 2081 	strb.w	r2, [r4, #129]	; 0x81
 8005404:	e8bd 8ff8 	ldmia.w	sp!, {r3, r4, r5, r6, r7, r8, r9, sl, fp, pc}
 8005408:	2b07      	cmp	r3, #7
 800540a:	f240 8081 	bls.w	8005510 <HAL_SPI_TransmitReceive+0x338>
 800540e:	6973      	ldr	r3, [r6, #20]
 8005410:	0799      	lsls	r1, r3, #30
 8005412:	d515      	bpl.n	8005440 <HAL_SPI_TransmitReceive+0x268>
 8005414:	b1a5      	cbz	r5, 8005440 <HAL_SPI_TransmitReceive+0x268>
 8005416:	2d01      	cmp	r5, #1
 8005418:	d903      	bls.n	8005422 <HAL_SPI_TransmitReceive+0x24a>
 800541a:	6be3      	ldr	r3, [r4, #60]	; 0x3c
 800541c:	2b00      	cmp	r3, #0
 800541e:	f040 80cb 	bne.w	80055b8 <HAL_SPI_TransmitReceive+0x3e0>
 8005422:	6de2      	ldr	r2, [r4, #92]	; 0x5c
 8005424:	f832 3b02 	ldrh.w	r3, [r2], #2
 8005428:	f8aa 3020 	strh.w	r3, [sl, #32]
 800542c:	f8b4 3062 	ldrh.w	r3, [r4, #98]	; 0x62
 8005430:	65e2      	str	r2, [r4, #92]	; 0x5c
 8005432:	3b01      	subs	r3, #1
 8005434:	b29b      	uxth	r3, r3
 8005436:	f8a4 3062 	strh.w	r3, [r4, #98]	; 0x62
 800543a:	f8b4 5062 	ldrh.w	r5, [r4, #98]	; 0x62
 800543e:	b2ad      	uxth	r5, r5
 8005440:	6973      	ldr	r3, [r6, #20]
 8005442:	f413 4f60 	tst.w	r3, #57344	; 0xe000
 8005446:	d015      	beq.n	8005474 <HAL_SPI_TransmitReceive+0x29c>
 8005448:	f1b9 0f00 	cmp.w	r9, #0
 800544c:	d012      	beq.n	8005474 <HAL_SPI_TransmitReceive+0x29c>
 800544e:	6973      	ldr	r3, [r6, #20]
 8005450:	041a      	lsls	r2, r3, #16
 8005452:	f140 80a0 	bpl.w	8005596 <HAL_SPI_TransmitReceive+0x3be>
 8005456:	6b31      	ldr	r1, [r6, #48]	; 0x30
 8005458:	f8b4 306a 	ldrh.w	r3, [r4, #106]	; 0x6a
 800545c:	6e62      	ldr	r2, [r4, #100]	; 0x64
 800545e:	3b02      	subs	r3, #2
 8005460:	f842 1b04 	str.w	r1, [r2], #4
 8005464:	b29b      	uxth	r3, r3
 8005466:	6662      	str	r2, [r4, #100]	; 0x64
 8005468:	f8a4 306a 	strh.w	r3, [r4, #106]	; 0x6a
 800546c:	f8b4 906a 	ldrh.w	r9, [r4, #106]	; 0x6a
 8005470:	fa1f f989 	uxth.w	r9, r9
 8005474:	f7fb f8ec 	bl	8000650 <HAL_GetTick>
 8005478:	1bc0      	subs	r0, r0, r7
 800547a:	4540      	cmp	r0, r8
 800547c:	d302      	bcc.n	8005484 <HAL_SPI_TransmitReceive+0x2ac>
 800547e:	f1b8 3fff 	cmp.w	r8, #4294967295
 8005482:	d1af      	bne.n	80053e4 <HAL_SPI_TransmitReceive+0x20c>
 8005484:	ea45 0309 	orr.w	r3, r5, r9
 8005488:	b29b      	uxth	r3, r3
 800548a:	2b00      	cmp	r3, #0
 800548c:	f43f af3a 	beq.w	8005304 <HAL_SPI_TransmitReceive+0x12c>
 8005490:	6826      	ldr	r6, [r4, #0]
 8005492:	e7bc      	b.n	800540e <HAL_SPI_TransmitReceive+0x236>
 8005494:	ffff0000 	.word	0xffff0000
 8005498:	2d01      	cmp	r5, #1
 800549a:	d152      	bne.n	8005542 <HAL_SPI_TransmitReceive+0x36a>
 800549c:	6de3      	ldr	r3, [r4, #92]	; 0x5c
 800549e:	781b      	ldrb	r3, [r3, #0]
 80054a0:	f886 3020 	strb.w	r3, [r6, #32]
 80054a4:	f8b4 3062 	ldrh.w	r3, [r4, #98]	; 0x62
 80054a8:	6de2      	ldr	r2, [r4, #92]	; 0x5c
 80054aa:	3b01      	subs	r3, #1
 80054ac:	6826      	ldr	r6, [r4, #0]
 80054ae:	3201      	adds	r2, #1
 80054b0:	b29b      	uxth	r3, r3
 80054b2:	65e2      	str	r2, [r4, #92]	; 0x5c
 80054b4:	f8a4 3062 	strh.w	r3, [r4, #98]	; 0x62
 80054b8:	f8b4 5062 	ldrh.w	r5, [r4, #98]	; 0x62
 80054bc:	b2ad      	uxth	r5, r5
 80054be:	6973      	ldr	r3, [r6, #20]
 80054c0:	f413 4f60 	tst.w	r3, #57344	; 0xe000
 80054c4:	d014      	beq.n	80054f0 <HAL_SPI_TransmitReceive+0x318>
 80054c6:	f1b9 0f00 	cmp.w	r9, #0
 80054ca:	d011      	beq.n	80054f0 <HAL_SPI_TransmitReceive+0x318>
 80054cc:	6973      	ldr	r3, [r6, #20]
 80054ce:	0418      	lsls	r0, r3, #16
 80054d0:	d54a      	bpl.n	8005568 <HAL_SPI_TransmitReceive+0x390>
 80054d2:	6b31      	ldr	r1, [r6, #48]	; 0x30
 80054d4:	f8b4 306a 	ldrh.w	r3, [r4, #106]	; 0x6a
 80054d8:	6e62      	ldr	r2, [r4, #100]	; 0x64
 80054da:	3b04      	subs	r3, #4
 80054dc:	f842 1b04 	str.w	r1, [r2], #4
 80054e0:	b29b      	uxth	r3, r3
 80054e2:	6662      	str	r2, [r4, #100]	; 0x64
 80054e4:	f8a4 306a 	strh.w	r3, [r4, #106]	; 0x6a
 80054e8:	f8b4 906a 	ldrh.w	r9, [r4, #106]	; 0x6a
 80054ec:	fa1f f989 	uxth.w	r9, r9
 80054f0:	f7fb f8ae 	bl	8000650 <HAL_GetTick>
 80054f4:	1bc0      	subs	r0, r0, r7
 80054f6:	4540      	cmp	r0, r8
 80054f8:	d303      	bcc.n	8005502 <HAL_SPI_TransmitReceive+0x32a>
 80054fa:	f1b8 3fff 	cmp.w	r8, #4294967295
 80054fe:	f47f af71 	bne.w	80053e4 <HAL_SPI_TransmitReceive+0x20c>
 8005502:	ea45 0309 	orr.w	r3, r5, r9
 8005506:	b29b      	uxth	r3, r3
 8005508:	2b00      	cmp	r3, #0
 800550a:	f43f aefb 	beq.w	8005304 <HAL_SPI_TransmitReceive+0x12c>
 800550e:	6826      	ldr	r6, [r4, #0]
 8005510:	6973      	ldr	r3, [r6, #20]
 8005512:	079b      	lsls	r3, r3, #30
 8005514:	d5d3      	bpl.n	80054be <HAL_SPI_TransmitReceive+0x2e6>
 8005516:	2d00      	cmp	r5, #0
 8005518:	d0d1      	beq.n	80054be <HAL_SPI_TransmitReceive+0x2e6>
 800551a:	2d03      	cmp	r5, #3
 800551c:	d9bc      	bls.n	8005498 <HAL_SPI_TransmitReceive+0x2c0>
 800551e:	6be3      	ldr	r3, [r4, #60]	; 0x3c
 8005520:	2b40      	cmp	r3, #64	; 0x40
 8005522:	d90f      	bls.n	8005544 <HAL_SPI_TransmitReceive+0x36c>
 8005524:	6de2      	ldr	r2, [r4, #92]	; 0x5c
 8005526:	f852 3b04 	ldr.w	r3, [r2], #4
 800552a:	6233      	str	r3, [r6, #32]
 800552c:	f8b4 3062 	ldrh.w	r3, [r4, #98]	; 0x62
 8005530:	65e2      	str	r2, [r4, #92]	; 0x5c
 8005532:	3b04      	subs	r3, #4
 8005534:	b29b      	uxth	r3, r3
 8005536:	f8a4 3062 	strh.w	r3, [r4, #98]	; 0x62
 800553a:	f8b4 5062 	ldrh.w	r5, [r4, #98]	; 0x62
 800553e:	b2ad      	uxth	r5, r5
 8005540:	e7bd      	b.n	80054be <HAL_SPI_TransmitReceive+0x2e6>
 8005542:	6be3      	ldr	r3, [r4, #60]	; 0x3c
 8005544:	2b00      	cmp	r3, #0
 8005546:	d0a9      	beq.n	800549c <HAL_SPI_TransmitReceive+0x2c4>
 8005548:	6de2      	ldr	r2, [r4, #92]	; 0x5c
 800554a:	f832 3b02 	ldrh.w	r3, [r2], #2
 800554e:	f8aa 3020 	strh.w	r3, [sl, #32]
 8005552:	f8b4 3062 	ldrh.w	r3, [r4, #98]	; 0x62
 8005556:	65e2      	str	r2, [r4, #92]	; 0x5c
 8005558:	3b02      	subs	r3, #2
 800555a:	b29b      	uxth	r3, r3
 800555c:	f8a4 3062 	strh.w	r3, [r4, #98]	; 0x62
 8005560:	f8b4 5062 	ldrh.w	r5, [r4, #98]	; 0x62
 8005564:	b2ad      	uxth	r5, r5
 8005566:	e7aa      	b.n	80054be <HAL_SPI_TransmitReceive+0x2e6>
 8005568:	6973      	ldr	r3, [r6, #20]
 800556a:	f403 43c0 	and.w	r3, r3, #24576	; 0x6000
 800556e:	f5b3 5f00 	cmp.w	r3, #8192	; 0x2000
 8005572:	d930      	bls.n	80055d6 <HAL_SPI_TransmitReceive+0x3fe>
 8005574:	f8ba 3030 	ldrh.w	r3, [sl, #48]	; 0x30
 8005578:	6e62      	ldr	r2, [r4, #100]	; 0x64
 800557a:	f822 3b02 	strh.w	r3, [r2], #2
 800557e:	f8b4 306a 	ldrh.w	r3, [r4, #106]	; 0x6a
 8005582:	6662      	str	r2, [r4, #100]	; 0x64
 8005584:	3b02      	subs	r3, #2
 8005586:	b29b      	uxth	r3, r3
 8005588:	f8a4 306a 	strh.w	r3, [r4, #106]	; 0x6a
 800558c:	f8b4 906a 	ldrh.w	r9, [r4, #106]	; 0x6a
 8005590:	fa1f f989 	uxth.w	r9, r9
 8005594:	e7ac      	b.n	80054f0 <HAL_SPI_TransmitReceive+0x318>
 8005596:	f8ba 3030 	ldrh.w	r3, [sl, #48]	; 0x30
 800559a:	6e62      	ldr	r2, [r4, #100]	; 0x64
 800559c:	f822 3b02 	strh.w	r3, [r2], #2
 80055a0:	f8b4 306a 	ldrh.w	r3, [r4, #106]	; 0x6a
 80055a4:	6662      	str	r2, [r4, #100]	; 0x64
 80055a6:	3b01      	subs	r3, #1
 80055a8:	b29b      	uxth	r3, r3
 80055aa:	f8a4 306a 	strh.w	r3, [r4, #106]	; 0x6a
 80055ae:	f8b4 906a 	ldrh.w	r9, [r4, #106]	; 0x6a
 80055b2:	fa1f f989 	uxth.w	r9, r9
 80055b6:	e75d      	b.n	8005474 <HAL_SPI_TransmitReceive+0x29c>
 80055b8:	6de2      	ldr	r2, [r4, #92]	; 0x5c
 80055ba:	f852 3b04 	ldr.w	r3, [r2], #4
 80055be:	6233      	str	r3, [r6, #32]
 80055c0:	f8b4 3062 	ldrh.w	r3, [r4, #98]	; 0x62
 80055c4:	65e2      	str	r2, [r4, #92]	; 0x5c
 80055c6:	3b02      	subs	r3, #2
 80055c8:	b29b      	uxth	r3, r3
 80055ca:	f8a4 3062 	strh.w	r3, [r4, #98]	; 0x62
 80055ce:	f8b4 5062 	ldrh.w	r5, [r4, #98]	; 0x62
 80055d2:	b2ad      	uxth	r5, r5
 80055d4:	e734      	b.n	8005440 <HAL_SPI_TransmitReceive+0x268>
 80055d6:	f896 2030 	ldrb.w	r2, [r6, #48]	; 0x30
 80055da:	6e63      	ldr	r3, [r4, #100]	; 0x64
 80055dc:	701a      	strb	r2, [r3, #0]
 80055de:	f8b4 306a 	ldrh.w	r3, [r4, #106]	; 0x6a
 80055e2:	6e62      	ldr	r2, [r4, #100]	; 0x64
 80055e4:	3b01      	subs	r3, #1
 80055e6:	3201      	adds	r2, #1
 80055e8:	e77a      	b.n	80054e0 <HAL_SPI_TransmitReceive+0x308>
 80055ea:	bf00      	nop

080055ec <HAL_SPI_TxCpltCallback>:
 80055ec:	4770      	bx	lr
 80055ee:	bf00      	nop

080055f0 <HAL_SPI_RxCpltCallback>:
 80055f0:	4770      	bx	lr
 80055f2:	bf00      	nop

080055f4 <HAL_SPI_ErrorCallback>:
 80055f4:	4770      	bx	lr
 80055f6:	bf00      	nop

080055f8 <HAL_SPI_IRQHandler>:
 80055f8:	6803      	ldr	r3, [r0, #0]
 80055fa:	6919      	ldr	r1, [r3, #16]
 80055fc:	695a      	ldr	r2, [r3, #20]
 80055fe:	f8d3 c008 	ldr.w	ip, [r3, #8]
 8005602:	e92d 41f0 	stmdb	sp!, {r4, r5, r6, r7, r8, lr}
 8005606:	ea01 0502 	and.w	r5, r1, r2
 800560a:	4604      	mov	r4, r0
 800560c:	f890 6081 	ldrb.w	r6, [r0, #129]	; 0x81
 8005610:	f005 0764 	and.w	r7, r5, #100	; 0x64
 8005614:	2f04      	cmp	r7, #4
 8005616:	d02f      	beq.n	8005678 <HAL_SPI_IRQHandler+0x80>
 8005618:	f005 0045 	and.w	r0, r5, #69	; 0x45
 800561c:	2801      	cmp	r0, #1
 800561e:	d034      	beq.n	800568a <HAL_SPI_IRQHandler+0x92>
 8005620:	f005 0026 	and.w	r0, r5, #38	; 0x26
 8005624:	2802      	cmp	r0, #2
 8005626:	f000 80df 	beq.w	80057e8 <HAL_SPI_IRQHandler+0x1f0>
 800562a:	0728      	lsls	r0, r5, #28
 800562c:	d570      	bpl.n	8005710 <HAL_SPI_IRQHandler+0x118>
 800562e:	699a      	ldr	r2, [r3, #24]
 8005630:	f41c 4f40 	tst.w	ip, #49152	; 0xc000
 8005634:	b2f6      	uxtb	r6, r6
 8005636:	f042 0208 	orr.w	r2, r2, #8
 800563a:	619a      	str	r2, [r3, #24]
 800563c:	699a      	ldr	r2, [r3, #24]
 800563e:	f042 0210 	orr.w	r2, r2, #16
 8005642:	619a      	str	r2, [r3, #24]
 8005644:	699a      	ldr	r2, [r3, #24]
 8005646:	f442 6200 	orr.w	r2, r2, #2048	; 0x800
 800564a:	619a      	str	r2, [r3, #24]
 800564c:	691a      	ldr	r2, [r3, #16]
 800564e:	f022 0208 	bic.w	r2, r2, #8
 8005652:	611a      	str	r2, [r3, #16]
 8005654:	d023      	beq.n	800569e <HAL_SPI_IRQHandler+0xa6>
 8005656:	2e04      	cmp	r6, #4
 8005658:	f000 80db 	beq.w	8005812 <HAL_SPI_IRQHandler+0x21a>
 800565c:	6fa2      	ldr	r2, [r4, #120]	; 0x78
 800565e:	69d2      	ldr	r2, [r2, #28]
 8005660:	b1ea      	cbz	r2, 800569e <HAL_SPI_IRQHandler+0xa6>
 8005662:	2e03      	cmp	r6, #3
 8005664:	d050      	beq.n	8005708 <HAL_SPI_IRQHandler+0x110>
 8005666:	6fe2      	ldr	r2, [r4, #124]	; 0x7c
 8005668:	69d2      	ldr	r2, [r2, #28]
 800566a:	b1c2      	cbz	r2, 800569e <HAL_SPI_IRQHandler+0xa6>
 800566c:	2e05      	cmp	r6, #5
 800566e:	d114      	bne.n	800569a <HAL_SPI_IRQHandler+0xa2>
 8005670:	4620      	mov	r0, r4
 8005672:	f004 fa13 	bl	8009a9c <HAL_SPI_TxRxCpltCallback>
 8005676:	e010      	b.n	800569a <HAL_SPI_IRQHandler+0xa2>
 8005678:	6f43      	ldr	r3, [r0, #116]	; 0x74
 800567a:	4798      	blx	r3
 800567c:	6f23      	ldr	r3, [r4, #112]	; 0x70
 800567e:	4620      	mov	r0, r4
 8005680:	4798      	blx	r3
 8005682:	f005 0345 	and.w	r3, r5, #69	; 0x45
 8005686:	2b01      	cmp	r3, #1
 8005688:	d102      	bne.n	8005690 <HAL_SPI_IRQHandler+0x98>
 800568a:	6f23      	ldr	r3, [r4, #112]	; 0x70
 800568c:	4620      	mov	r0, r4
 800568e:	4798      	blx	r3
 8005690:	f005 0526 	and.w	r5, r5, #38	; 0x26
 8005694:	2d02      	cmp	r5, #2
 8005696:	f000 80a7 	beq.w	80057e8 <HAL_SPI_IRQHandler+0x1f0>
 800569a:	e8bd 81f0 	ldmia.w	sp!, {r4, r5, r6, r7, r8, pc}
 800569e:	689a      	ldr	r2, [r3, #8]
 80056a0:	f412 4f40 	tst.w	r2, #49152	; 0xc000
 80056a4:	d11f      	bne.n	80056e6 <HAL_SPI_IRQHandler+0xee>
 80056a6:	f8b4 206a 	ldrh.w	r2, [r4, #106]	; 0x6a
 80056aa:	b292      	uxth	r2, r2
 80056ac:	b1da      	cbz	r2, 80056e6 <HAL_SPI_IRQHandler+0xee>
 80056ae:	6e61      	ldr	r1, [r4, #100]	; 0x64
 80056b0:	e00e      	b.n	80056d0 <HAL_SPI_IRQHandler+0xd8>
 80056b2:	6822      	ldr	r2, [r4, #0]
 80056b4:	6b12      	ldr	r2, [r2, #48]	; 0x30
 80056b6:	f841 2b04 	str.w	r2, [r1], #4
 80056ba:	6661      	str	r1, [r4, #100]	; 0x64
 80056bc:	f8b4 206a 	ldrh.w	r2, [r4, #106]	; 0x6a
 80056c0:	3a01      	subs	r2, #1
 80056c2:	b292      	uxth	r2, r2
 80056c4:	f8a4 206a 	strh.w	r2, [r4, #106]	; 0x6a
 80056c8:	f8b4 206a 	ldrh.w	r2, [r4, #106]	; 0x6a
 80056cc:	b292      	uxth	r2, r2
 80056ce:	b152      	cbz	r2, 80056e6 <HAL_SPI_IRQHandler+0xee>
 80056d0:	68e2      	ldr	r2, [r4, #12]
 80056d2:	2a0f      	cmp	r2, #15
 80056d4:	d8ed      	bhi.n	80056b2 <HAL_SPI_IRQHandler+0xba>
 80056d6:	2a07      	cmp	r2, #7
 80056d8:	f240 808e 	bls.w	80057f8 <HAL_SPI_IRQHandler+0x200>
 80056dc:	8e1a      	ldrh	r2, [r3, #48]	; 0x30
 80056de:	f821 2b02 	strh.w	r2, [r1], #2
 80056e2:	6661      	str	r1, [r4, #100]	; 0x64
 80056e4:	e7ea      	b.n	80056bc <HAL_SPI_IRQHandler+0xc4>
 80056e6:	4620      	mov	r0, r4
 80056e8:	f7ff fc56 	bl	8004f98 <SPI_CloseTransfer>
 80056ec:	2301      	movs	r3, #1
 80056ee:	f884 3081 	strb.w	r3, [r4, #129]	; 0x81
 80056f2:	f8d4 3084 	ldr.w	r3, [r4, #132]	; 0x84
 80056f6:	2b00      	cmp	r3, #0
 80056f8:	d17b      	bne.n	80057f2 <HAL_SPI_IRQHandler+0x1fa>
 80056fa:	2e05      	cmp	r6, #5
 80056fc:	d0b8      	beq.n	8005670 <HAL_SPI_IRQHandler+0x78>
 80056fe:	2e04      	cmp	r6, #4
 8005700:	f000 808c 	beq.w	800581c <HAL_SPI_IRQHandler+0x224>
 8005704:	2e03      	cmp	r6, #3
 8005706:	d1c8      	bne.n	800569a <HAL_SPI_IRQHandler+0xa2>
 8005708:	4620      	mov	r0, r4
 800570a:	f7ff ff6f 	bl	80055ec <HAL_SPI_TxCpltCallback>
 800570e:	e7c4      	b.n	800569a <HAL_SPI_IRQHandler+0xa2>
 8005710:	0512      	lsls	r2, r2, #20
 8005712:	d501      	bpl.n	8005718 <HAL_SPI_IRQHandler+0x120>
 8005714:	070f      	lsls	r7, r1, #28
 8005716:	d477      	bmi.n	8005808 <HAL_SPI_IRQHandler+0x210>
 8005718:	f415 7f58 	tst.w	r5, #864	; 0x360
 800571c:	d0bd      	beq.n	800569a <HAL_SPI_IRQHandler+0xa2>
 800571e:	066e      	lsls	r6, r5, #25
 8005720:	d509      	bpl.n	8005736 <HAL_SPI_IRQHandler+0x13e>
 8005722:	f8d4 2084 	ldr.w	r2, [r4, #132]	; 0x84
 8005726:	f042 0204 	orr.w	r2, r2, #4
 800572a:	f8c4 2084 	str.w	r2, [r4, #132]	; 0x84
 800572e:	699a      	ldr	r2, [r3, #24]
 8005730:	f042 0240 	orr.w	r2, r2, #64	; 0x40
 8005734:	619a      	str	r2, [r3, #24]
 8005736:	05a8      	lsls	r0, r5, #22
 8005738:	d509      	bpl.n	800574e <HAL_SPI_IRQHandler+0x156>
 800573a:	f8d4 2084 	ldr.w	r2, [r4, #132]	; 0x84
 800573e:	f042 0201 	orr.w	r2, r2, #1
 8005742:	f8c4 2084 	str.w	r2, [r4, #132]	; 0x84
 8005746:	699a      	ldr	r2, [r3, #24]
 8005748:	f442 7200 	orr.w	r2, r2, #512	; 0x200
 800574c:	619a      	str	r2, [r3, #24]
 800574e:	05e9      	lsls	r1, r5, #23
 8005750:	d509      	bpl.n	8005766 <HAL_SPI_IRQHandler+0x16e>
 8005752:	f8d4 2084 	ldr.w	r2, [r4, #132]	; 0x84
 8005756:	f042 0208 	orr.w	r2, r2, #8
 800575a:	f8c4 2084 	str.w	r2, [r4, #132]	; 0x84
 800575e:	699a      	ldr	r2, [r3, #24]
 8005760:	f442 7280 	orr.w	r2, r2, #256	; 0x100
 8005764:	619a      	str	r2, [r3, #24]
 8005766:	06aa      	lsls	r2, r5, #26
 8005768:	d509      	bpl.n	800577e <HAL_SPI_IRQHandler+0x186>
 800576a:	f8d4 2084 	ldr.w	r2, [r4, #132]	; 0x84
 800576e:	f042 0280 	orr.w	r2, r2, #128	; 0x80
 8005772:	f8c4 2084 	str.w	r2, [r4, #132]	; 0x84
 8005776:	699a      	ldr	r2, [r3, #24]
 8005778:	f042 0220 	orr.w	r2, r2, #32
 800577c:	619a      	str	r2, [r3, #24]
 800577e:	f8d4 2084 	ldr.w	r2, [r4, #132]	; 0x84
 8005782:	2a00      	cmp	r2, #0
 8005784:	d089      	beq.n	800569a <HAL_SPI_IRQHandler+0xa2>
 8005786:	6819      	ldr	r1, [r3, #0]
 8005788:	f40c 4c40 	and.w	ip, ip, #49152	; 0xc000
 800578c:	4a29      	ldr	r2, [pc, #164]	; (8005834 <HAL_SPI_IRQHandler+0x23c>)
 800578e:	f021 0101 	bic.w	r1, r1, #1
 8005792:	f5bc 4f40 	cmp.w	ip, #49152	; 0xc000
 8005796:	6019      	str	r1, [r3, #0]
 8005798:	6919      	ldr	r1, [r3, #16]
 800579a:	ea02 0201 	and.w	r2, r2, r1
 800579e:	611a      	str	r2, [r3, #16]
 80057a0:	d140      	bne.n	8005824 <HAL_SPI_IRQHandler+0x22c>
 80057a2:	689a      	ldr	r2, [r3, #8]
 80057a4:	6fe0      	ldr	r0, [r4, #124]	; 0x7c
 80057a6:	f422 4240 	bic.w	r2, r2, #49152	; 0xc000
 80057aa:	609a      	str	r2, [r3, #8]
 80057ac:	b150      	cbz	r0, 80057c4 <HAL_SPI_IRQHandler+0x1cc>
 80057ae:	4b22      	ldr	r3, [pc, #136]	; (8005838 <HAL_SPI_IRQHandler+0x240>)
 80057b0:	6503      	str	r3, [r0, #80]	; 0x50
 80057b2:	f7fc fce7 	bl	8002184 <HAL_DMA_Abort_IT>
 80057b6:	b128      	cbz	r0, 80057c4 <HAL_SPI_IRQHandler+0x1cc>
 80057b8:	f8d4 3084 	ldr.w	r3, [r4, #132]	; 0x84
 80057bc:	f043 0340 	orr.w	r3, r3, #64	; 0x40
 80057c0:	f8c4 3084 	str.w	r3, [r4, #132]	; 0x84
 80057c4:	6fa0      	ldr	r0, [r4, #120]	; 0x78
 80057c6:	2800      	cmp	r0, #0
 80057c8:	f43f af67 	beq.w	800569a <HAL_SPI_IRQHandler+0xa2>
 80057cc:	4b1a      	ldr	r3, [pc, #104]	; (8005838 <HAL_SPI_IRQHandler+0x240>)
 80057ce:	6503      	str	r3, [r0, #80]	; 0x50
 80057d0:	f7fc fcd8 	bl	8002184 <HAL_DMA_Abort_IT>
 80057d4:	2800      	cmp	r0, #0
 80057d6:	f43f af60 	beq.w	800569a <HAL_SPI_IRQHandler+0xa2>
 80057da:	f8d4 3084 	ldr.w	r3, [r4, #132]	; 0x84
 80057de:	f043 0340 	orr.w	r3, r3, #64	; 0x40
 80057e2:	f8c4 3084 	str.w	r3, [r4, #132]	; 0x84
 80057e6:	e758      	b.n	800569a <HAL_SPI_IRQHandler+0xa2>
 80057e8:	6f63      	ldr	r3, [r4, #116]	; 0x74
 80057ea:	4620      	mov	r0, r4
 80057ec:	e8bd 41f0 	ldmia.w	sp!, {r4, r5, r6, r7, r8, lr}
 80057f0:	4718      	bx	r3
 80057f2:	f7ff feff 	bl	80055f4 <HAL_SPI_ErrorCallback>
 80057f6:	e750      	b.n	800569a <HAL_SPI_IRQHandler+0xa2>
 80057f8:	6822      	ldr	r2, [r4, #0]
 80057fa:	f892 2030 	ldrb.w	r2, [r2, #48]	; 0x30
 80057fe:	700a      	strb	r2, [r1, #0]
 8005800:	6e61      	ldr	r1, [r4, #100]	; 0x64
 8005802:	3101      	adds	r1, #1
 8005804:	6661      	str	r1, [r4, #100]	; 0x64
 8005806:	e759      	b.n	80056bc <HAL_SPI_IRQHandler+0xc4>
 8005808:	699a      	ldr	r2, [r3, #24]
 800580a:	f442 6200 	orr.w	r2, r2, #2048	; 0x800
 800580e:	619a      	str	r2, [r3, #24]
 8005810:	e743      	b.n	800569a <HAL_SPI_IRQHandler+0xa2>
 8005812:	6fe2      	ldr	r2, [r4, #124]	; 0x7c
 8005814:	69d2      	ldr	r2, [r2, #28]
 8005816:	2a00      	cmp	r2, #0
 8005818:	f43f af41 	beq.w	800569e <HAL_SPI_IRQHandler+0xa6>
 800581c:	4620      	mov	r0, r4
 800581e:	f7ff fee7 	bl	80055f0 <HAL_SPI_RxCpltCallback>
 8005822:	e73a      	b.n	800569a <HAL_SPI_IRQHandler+0xa2>
 8005824:	2301      	movs	r3, #1
 8005826:	4620      	mov	r0, r4
 8005828:	f884 3081 	strb.w	r3, [r4, #129]	; 0x81
 800582c:	f7ff fee2 	bl	80055f4 <HAL_SPI_ErrorCallback>
 8005830:	e733      	b.n	800569a <HAL_SPI_IRQHandler+0xa2>
 8005832:	bf00      	nop
 8005834:	fffffc94 	.word	0xfffffc94
 8005838:	0800583d 	.word	0x0800583d

0800583c <SPI_DMAAbortOnError>:
 800583c:	b508      	push	{r3, lr}
 800583e:	6b80      	ldr	r0, [r0, #56]	; 0x38
 8005840:	2300      	movs	r3, #0
 8005842:	2201      	movs	r2, #1
 8005844:	f8a0 306a 	strh.w	r3, [r0, #106]	; 0x6a
 8005848:	f8a0 3062 	strh.w	r3, [r0, #98]	; 0x62
 800584c:	f880 2081 	strb.w	r2, [r0, #129]	; 0x81
 8005850:	f7ff fed0 	bl	80055f4 <HAL_SPI_ErrorCallback>
 8005854:	bd08      	pop	{r3, pc}
 8005856:	bf00      	nop

08005858 <TIM_OC1_SetConfig>:
 8005858:	6a02      	ldr	r2, [r0, #32]
 800585a:	f8d1 c008 	ldr.w	ip, [r1, #8]
 800585e:	f022 0201 	bic.w	r2, r2, #1
 8005862:	b4f0      	push	{r4, r5, r6, r7}
 8005864:	680d      	ldr	r5, [r1, #0]
 8005866:	4f19      	ldr	r7, [pc, #100]	; (80058cc <TIM_OC1_SetConfig+0x74>)
 8005868:	6202      	str	r2, [r0, #32]
 800586a:	4e19      	ldr	r6, [pc, #100]	; (80058d0 <TIM_OC1_SetConfig+0x78>)
 800586c:	6a03      	ldr	r3, [r0, #32]
 800586e:	6844      	ldr	r4, [r0, #4]
 8005870:	42b0      	cmp	r0, r6
 8005872:	6982      	ldr	r2, [r0, #24]
 8005874:	f023 0302 	bic.w	r3, r3, #2
 8005878:	ea07 0702 	and.w	r7, r7, r2
 800587c:	ea43 030c 	orr.w	r3, r3, ip
 8005880:	ea45 0507 	orr.w	r5, r5, r7
 8005884:	d00e      	beq.n	80058a4 <TIM_OC1_SetConfig+0x4c>
 8005886:	4a13      	ldr	r2, [pc, #76]	; (80058d4 <TIM_OC1_SetConfig+0x7c>)
 8005888:	4290      	cmp	r0, r2
 800588a:	d00b      	beq.n	80058a4 <TIM_OC1_SetConfig+0x4c>
 800588c:	f506 4680 	add.w	r6, r6, #16384	; 0x4000
 8005890:	f502 4280 	add.w	r2, r2, #16384	; 0x4000
 8005894:	4290      	cmp	r0, r2
 8005896:	bf18      	it	ne
 8005898:	42b0      	cmpne	r0, r6
 800589a:	d003      	beq.n	80058a4 <TIM_OC1_SetConfig+0x4c>
 800589c:	f502 6280 	add.w	r2, r2, #1024	; 0x400
 80058a0:	4290      	cmp	r0, r2
 80058a2:	d10b      	bne.n	80058bc <TIM_OC1_SetConfig+0x64>
 80058a4:	68ca      	ldr	r2, [r1, #12]
 80058a6:	f023 0308 	bic.w	r3, r3, #8
 80058aa:	698e      	ldr	r6, [r1, #24]
 80058ac:	f424 7440 	bic.w	r4, r4, #768	; 0x300
 80058b0:	4313      	orrs	r3, r2
 80058b2:	694a      	ldr	r2, [r1, #20]
 80058b4:	4332      	orrs	r2, r6
 80058b6:	f023 0304 	bic.w	r3, r3, #4
 80058ba:	4314      	orrs	r4, r2
 80058bc:	684a      	ldr	r2, [r1, #4]
 80058be:	6044      	str	r4, [r0, #4]
 80058c0:	6185      	str	r5, [r0, #24]
 80058c2:	6342      	str	r2, [r0, #52]	; 0x34
 80058c4:	6203      	str	r3, [r0, #32]
 80058c6:	bcf0      	pop	{r4, r5, r6, r7}
 80058c8:	4770      	bx	lr
 80058ca:	bf00      	nop
 80058cc:	fffeff8c 	.word	0xfffeff8c
 80058d0:	40010000 	.word	0x40010000
 80058d4:	40010400 	.word	0x40010400

080058d8 <TIM_OC3_SetConfig>:
 80058d8:	b4f0      	push	{r4, r5, r6, r7}
 80058da:	6a04      	ldr	r4, [r0, #32]
 80058dc:	f8d1 c008 	ldr.w	ip, [r1, #8]
 80058e0:	f424 7480 	bic.w	r4, r4, #256	; 0x100
 80058e4:	680a      	ldr	r2, [r1, #0]
 80058e6:	4f19      	ldr	r7, [pc, #100]	; (800594c <TIM_OC3_SetConfig+0x74>)
 80058e8:	6204      	str	r4, [r0, #32]
 80058ea:	4e19      	ldr	r6, [pc, #100]	; (8005950 <TIM_OC3_SetConfig+0x78>)
 80058ec:	6a03      	ldr	r3, [r0, #32]
 80058ee:	6845      	ldr	r5, [r0, #4]
 80058f0:	42b0      	cmp	r0, r6
 80058f2:	69c4      	ldr	r4, [r0, #28]
 80058f4:	f423 7300 	bic.w	r3, r3, #512	; 0x200
 80058f8:	ea07 0704 	and.w	r7, r7, r4
 80058fc:	ea43 230c 	orr.w	r3, r3, ip, lsl #8
 8005900:	ea42 0207 	orr.w	r2, r2, r7
 8005904:	d00d      	beq.n	8005922 <TIM_OC3_SetConfig+0x4a>
 8005906:	4c13      	ldr	r4, [pc, #76]	; (8005954 <TIM_OC3_SetConfig+0x7c>)
 8005908:	42a0      	cmp	r0, r4
 800590a:	d00a      	beq.n	8005922 <TIM_OC3_SetConfig+0x4a>
 800590c:	4e12      	ldr	r6, [pc, #72]	; (8005958 <TIM_OC3_SetConfig+0x80>)
 800590e:	4c13      	ldr	r4, [pc, #76]	; (800595c <TIM_OC3_SetConfig+0x84>)
 8005910:	42a0      	cmp	r0, r4
 8005912:	bf18      	it	ne
 8005914:	42b0      	cmpne	r0, r6
 8005916:	d00b      	beq.n	8005930 <TIM_OC3_SetConfig+0x58>
 8005918:	f504 6480 	add.w	r4, r4, #1024	; 0x400
 800591c:	42a0      	cmp	r0, r4
 800591e:	d10e      	bne.n	800593e <TIM_OC3_SetConfig+0x66>
 8005920:	e006      	b.n	8005930 <TIM_OC3_SetConfig+0x58>
 8005922:	f423 6300 	bic.w	r3, r3, #2048	; 0x800
 8005926:	68cc      	ldr	r4, [r1, #12]
 8005928:	ea43 2304 	orr.w	r3, r3, r4, lsl #8
 800592c:	f423 6380 	bic.w	r3, r3, #1024	; 0x400
 8005930:	694c      	ldr	r4, [r1, #20]
 8005932:	f425 5540 	bic.w	r5, r5, #12288	; 0x3000
 8005936:	698e      	ldr	r6, [r1, #24]
 8005938:	4334      	orrs	r4, r6
 800593a:	ea45 1504 	orr.w	r5, r5, r4, lsl #4
 800593e:	6849      	ldr	r1, [r1, #4]
 8005940:	6045      	str	r5, [r0, #4]
 8005942:	61c2      	str	r2, [r0, #28]
 8005944:	63c1      	str	r1, [r0, #60]	; 0x3c
 8005946:	6203      	str	r3, [r0, #32]
 8005948:	bcf0      	pop	{r4, r5, r6, r7}
 800594a:	4770      	bx	lr
 800594c:	fffeff8c 	.word	0xfffeff8c
 8005950:	40010000 	.word	0x40010000
 8005954:	40010400 	.word	0x40010400
 8005958:	40014000 	.word	0x40014000
 800595c:	40014400 	.word	0x40014400

08005960 <HAL_TIM_Base_Init>:
 8005960:	2800      	cmp	r0, #0
 8005962:	f000 809c 	beq.w	8005a9e <HAL_TIM_Base_Init+0x13e>
 8005966:	b5f8      	push	{r3, r4, r5, r6, r7, lr}
 8005968:	f890 303d 	ldrb.w	r3, [r0, #61]	; 0x3d
 800596c:	4604      	mov	r4, r0
 800596e:	f003 02ff 	and.w	r2, r3, #255	; 0xff
 8005972:	2b00      	cmp	r3, #0
 8005974:	d075      	beq.n	8005a62 <HAL_TIM_Base_Init+0x102>
 8005976:	6822      	ldr	r2, [r4, #0]
 8005978:	2302      	movs	r3, #2
 800597a:	494a      	ldr	r1, [pc, #296]	; (8005aa4 <HAL_TIM_Base_Init+0x144>)
 800597c:	f1b2 4f80 	cmp.w	r2, #1073741824	; 0x40000000
 8005980:	f884 303d 	strb.w	r3, [r4, #61]	; 0x3d
 8005984:	eba2 0101 	sub.w	r1, r2, r1
 8005988:	6813      	ldr	r3, [r2, #0]
 800598a:	fab1 f181 	clz	r1, r1
 800598e:	ea4f 1151 	mov.w	r1, r1, lsr #5
 8005992:	d026      	beq.n	80059e2 <HAL_TIM_Base_Init+0x82>
 8005994:	bb29      	cbnz	r1, 80059e2 <HAL_TIM_Base_Init+0x82>
 8005996:	4844      	ldr	r0, [pc, #272]	; (8005aa8 <HAL_TIM_Base_Init+0x148>)
 8005998:	4282      	cmp	r2, r0
 800599a:	d022      	beq.n	80059e2 <HAL_TIM_Base_Init+0x82>
 800599c:	f500 6080 	add.w	r0, r0, #1024	; 0x400
 80059a0:	4282      	cmp	r2, r0
 80059a2:	d01e      	beq.n	80059e2 <HAL_TIM_Base_Init+0x82>
 80059a4:	4f41      	ldr	r7, [pc, #260]	; (8005aac <HAL_TIM_Base_Init+0x14c>)
 80059a6:	4d42      	ldr	r5, [pc, #264]	; (8005ab0 <HAL_TIM_Base_Init+0x150>)
 80059a8:	1bd7      	subs	r7, r2, r7
 80059aa:	42aa      	cmp	r2, r5
 80059ac:	fab7 f787 	clz	r7, r7
 80059b0:	ea4f 1757 	mov.w	r7, r7, lsr #5
 80059b4:	d05a      	beq.n	8005a6c <HAL_TIM_Base_Init+0x10c>
 80059b6:	2f00      	cmp	r7, #0
 80059b8:	d158      	bne.n	8005a6c <HAL_TIM_Base_Init+0x10c>
 80059ba:	483e      	ldr	r0, [pc, #248]	; (8005ab4 <HAL_TIM_Base_Init+0x154>)
 80059bc:	493e      	ldr	r1, [pc, #248]	; (8005ab8 <HAL_TIM_Base_Init+0x158>)
 80059be:	428a      	cmp	r2, r1
 80059c0:	bf18      	it	ne
 80059c2:	4282      	cmpne	r2, r0
 80059c4:	d05d      	beq.n	8005a82 <HAL_TIM_Base_Init+0x122>
 80059c6:	f501 6180 	add.w	r1, r1, #1024	; 0x400
 80059ca:	428a      	cmp	r2, r1
 80059cc:	d059      	beq.n	8005a82 <HAL_TIM_Base_Init+0x122>
 80059ce:	69a1      	ldr	r1, [r4, #24]
 80059d0:	f023 0380 	bic.w	r3, r3, #128	; 0x80
 80059d4:	68e0      	ldr	r0, [r4, #12]
 80059d6:	430b      	orrs	r3, r1
 80059d8:	6861      	ldr	r1, [r4, #4]
 80059da:	6013      	str	r3, [r2, #0]
 80059dc:	62d0      	str	r0, [r2, #44]	; 0x2c
 80059de:	6291      	str	r1, [r2, #40]	; 0x28
 80059e0:	e023      	b.n	8005a2a <HAL_TIM_Base_Init+0xca>
 80059e2:	4f32      	ldr	r7, [pc, #200]	; (8005aac <HAL_TIM_Base_Init+0x14c>)
 80059e4:	f023 0370 	bic.w	r3, r3, #112	; 0x70
 80059e8:	68a5      	ldr	r5, [r4, #8]
 80059ea:	1bd7      	subs	r7, r2, r7
 80059ec:	432b      	orrs	r3, r5
 80059ee:	fab7 f787 	clz	r7, r7
 80059f2:	097f      	lsrs	r7, r7, #5
 80059f4:	6920      	ldr	r0, [r4, #16]
 80059f6:	f423 7340 	bic.w	r3, r3, #768	; 0x300
 80059fa:	69a5      	ldr	r5, [r4, #24]
 80059fc:	4303      	orrs	r3, r0
 80059fe:	68e6      	ldr	r6, [r4, #12]
 8005a00:	6860      	ldr	r0, [r4, #4]
 8005a02:	f023 0380 	bic.w	r3, r3, #128	; 0x80
 8005a06:	432b      	orrs	r3, r5
 8005a08:	6013      	str	r3, [r2, #0]
 8005a0a:	62d6      	str	r6, [r2, #44]	; 0x2c
 8005a0c:	6290      	str	r0, [r2, #40]	; 0x28
 8005a0e:	b951      	cbnz	r1, 8005a26 <HAL_TIM_Base_Init+0xc6>
 8005a10:	b94f      	cbnz	r7, 8005a26 <HAL_TIM_Base_Init+0xc6>
 8005a12:	4928      	ldr	r1, [pc, #160]	; (8005ab4 <HAL_TIM_Base_Init+0x154>)
 8005a14:	4b28      	ldr	r3, [pc, #160]	; (8005ab8 <HAL_TIM_Base_Init+0x158>)
 8005a16:	429a      	cmp	r2, r3
 8005a18:	bf18      	it	ne
 8005a1a:	428a      	cmpne	r2, r1
 8005a1c:	d003      	beq.n	8005a26 <HAL_TIM_Base_Init+0xc6>
 8005a1e:	f503 6380 	add.w	r3, r3, #1024	; 0x400
 8005a22:	429a      	cmp	r2, r3
 8005a24:	d101      	bne.n	8005a2a <HAL_TIM_Base_Init+0xca>
 8005a26:	6963      	ldr	r3, [r4, #20]
 8005a28:	6313      	str	r3, [r2, #48]	; 0x30
 8005a2a:	2301      	movs	r3, #1
 8005a2c:	2000      	movs	r0, #0
 8005a2e:	6153      	str	r3, [r2, #20]
 8005a30:	f884 3048 	strb.w	r3, [r4, #72]	; 0x48
 8005a34:	f884 303e 	strb.w	r3, [r4, #62]	; 0x3e
 8005a38:	f884 303f 	strb.w	r3, [r4, #63]	; 0x3f
 8005a3c:	f884 3040 	strb.w	r3, [r4, #64]	; 0x40
 8005a40:	f884 3041 	strb.w	r3, [r4, #65]	; 0x41
 8005a44:	f884 3042 	strb.w	r3, [r4, #66]	; 0x42
 8005a48:	f884 3043 	strb.w	r3, [r4, #67]	; 0x43
 8005a4c:	f884 3044 	strb.w	r3, [r4, #68]	; 0x44
 8005a50:	f884 3045 	strb.w	r3, [r4, #69]	; 0x45
 8005a54:	f884 3046 	strb.w	r3, [r4, #70]	; 0x46
 8005a58:	f884 3047 	strb.w	r3, [r4, #71]	; 0x47
 8005a5c:	f884 303d 	strb.w	r3, [r4, #61]	; 0x3d
 8005a60:	bdf8      	pop	{r3, r4, r5, r6, r7, pc}
 8005a62:	f880 203c 	strb.w	r2, [r0, #60]	; 0x3c
 8005a66:	f005 f889 	bl	800ab7c <HAL_TIM_Base_MspInit>
 8005a6a:	e784      	b.n	8005976 <HAL_TIM_Base_Init+0x16>
 8005a6c:	4810      	ldr	r0, [pc, #64]	; (8005ab0 <HAL_TIM_Base_Init+0x150>)
 8005a6e:	f023 0370 	bic.w	r3, r3, #112	; 0x70
 8005a72:	68a5      	ldr	r5, [r4, #8]
 8005a74:	4282      	cmp	r2, r0
 8005a76:	ea43 0305 	orr.w	r3, r3, r5
 8005a7a:	d0bb      	beq.n	80059f4 <HAL_TIM_Base_Init+0x94>
 8005a7c:	2f00      	cmp	r7, #0
 8005a7e:	d1b9      	bne.n	80059f4 <HAL_TIM_Base_Init+0x94>
 8005a80:	e79b      	b.n	80059ba <HAL_TIM_Base_Init+0x5a>
 8005a82:	6921      	ldr	r1, [r4, #16]
 8005a84:	f423 7340 	bic.w	r3, r3, #768	; 0x300
 8005a88:	69a5      	ldr	r5, [r4, #24]
 8005a8a:	430b      	orrs	r3, r1
 8005a8c:	68e0      	ldr	r0, [r4, #12]
 8005a8e:	6861      	ldr	r1, [r4, #4]
 8005a90:	f023 0380 	bic.w	r3, r3, #128	; 0x80
 8005a94:	432b      	orrs	r3, r5
 8005a96:	6013      	str	r3, [r2, #0]
 8005a98:	62d0      	str	r0, [r2, #44]	; 0x2c
 8005a9a:	6291      	str	r1, [r2, #40]	; 0x28
 8005a9c:	e7b9      	b.n	8005a12 <HAL_TIM_Base_Init+0xb2>
 8005a9e:	2001      	movs	r0, #1
 8005aa0:	4770      	bx	lr
 8005aa2:	bf00      	nop
 8005aa4:	40010000 	.word	0x40010000
 8005aa8:	40000400 	.word	0x40000400
 8005aac:	40010400 	.word	0x40010400
 8005ab0:	40000c00 	.word	0x40000c00
 8005ab4:	40014000 	.word	0x40014000
 8005ab8:	40014400 	.word	0x40014400

08005abc <HAL_TIM_Base_Start_IT>:
 8005abc:	f890 303d 	ldrb.w	r3, [r0, #61]	; 0x3d
 8005ac0:	2b01      	cmp	r3, #1
 8005ac2:	d141      	bne.n	8005b48 <HAL_TIM_Base_Start_IT+0x8c>
 8005ac4:	6802      	ldr	r2, [r0, #0]
 8005ac6:	4b25      	ldr	r3, [pc, #148]	; (8005b5c <HAL_TIM_Base_Start_IT+0xa0>)
 8005ac8:	4925      	ldr	r1, [pc, #148]	; (8005b60 <HAL_TIM_Base_Start_IT+0xa4>)
 8005aca:	f1b2 4f80 	cmp.w	r2, #1073741824	; 0x40000000
 8005ace:	bf18      	it	ne
 8005ad0:	429a      	cmpne	r2, r3
 8005ad2:	b430      	push	{r4, r5}
 8005ad4:	bf0c      	ite	eq
 8005ad6:	2301      	moveq	r3, #1
 8005ad8:	2300      	movne	r3, #0
 8005ada:	4c22      	ldr	r4, [pc, #136]	; (8005b64 <HAL_TIM_Base_Start_IT+0xa8>)
 8005adc:	2502      	movs	r5, #2
 8005ade:	42a2      	cmp	r2, r4
 8005ae0:	bf08      	it	eq
 8005ae2:	f043 0301 	orreq.w	r3, r3, #1
 8005ae6:	f880 503d 	strb.w	r5, [r0, #61]	; 0x3d
 8005aea:	4d1f      	ldr	r5, [pc, #124]	; (8005b68 <HAL_TIM_Base_Start_IT+0xac>)
 8005aec:	f504 3480 	add.w	r4, r4, #65536	; 0x10000
 8005af0:	428a      	cmp	r2, r1
 8005af2:	bf08      	it	eq
 8005af4:	f043 0301 	orreq.w	r3, r3, #1
 8005af8:	481c      	ldr	r0, [pc, #112]	; (8005b6c <HAL_TIM_Base_Start_IT+0xb0>)
 8005afa:	68d1      	ldr	r1, [r2, #12]
 8005afc:	42aa      	cmp	r2, r5
 8005afe:	bf08      	it	eq
 8005b00:	f043 0301 	orreq.w	r3, r3, #1
 8005b04:	f041 0101 	orr.w	r1, r1, #1
 8005b08:	42a2      	cmp	r2, r4
 8005b0a:	bf08      	it	eq
 8005b0c:	f043 0301 	orreq.w	r3, r3, #1
 8005b10:	60d1      	str	r1, [r2, #12]
 8005b12:	4282      	cmp	r2, r0
 8005b14:	bf08      	it	eq
 8005b16:	f043 0301 	orreq.w	r3, r3, #1
 8005b1a:	b933      	cbnz	r3, 8005b2a <HAL_TIM_Base_Start_IT+0x6e>
 8005b1c:	f500 3094 	add.w	r0, r0, #75776	; 0x12800
 8005b20:	1a10      	subs	r0, r2, r0
 8005b22:	fab0 f080 	clz	r0, r0
 8005b26:	0940      	lsrs	r0, r0, #5
 8005b28:	b198      	cbz	r0, 8005b52 <HAL_TIM_Base_Start_IT+0x96>
 8005b2a:	6891      	ldr	r1, [r2, #8]
 8005b2c:	4b10      	ldr	r3, [pc, #64]	; (8005b70 <HAL_TIM_Base_Start_IT+0xb4>)
 8005b2e:	400b      	ands	r3, r1
 8005b30:	2b06      	cmp	r3, #6
 8005b32:	d00b      	beq.n	8005b4c <HAL_TIM_Base_Start_IT+0x90>
 8005b34:	f5b3 3f80 	cmp.w	r3, #65536	; 0x10000
 8005b38:	d008      	beq.n	8005b4c <HAL_TIM_Base_Start_IT+0x90>
 8005b3a:	6813      	ldr	r3, [r2, #0]
 8005b3c:	2000      	movs	r0, #0
 8005b3e:	f043 0301 	orr.w	r3, r3, #1
 8005b42:	6013      	str	r3, [r2, #0]
 8005b44:	bc30      	pop	{r4, r5}
 8005b46:	4770      	bx	lr
 8005b48:	2001      	movs	r0, #1
 8005b4a:	4770      	bx	lr
 8005b4c:	2000      	movs	r0, #0
 8005b4e:	bc30      	pop	{r4, r5}
 8005b50:	4770      	bx	lr
 8005b52:	6813      	ldr	r3, [r2, #0]
 8005b54:	f043 0301 	orr.w	r3, r3, #1
 8005b58:	6013      	str	r3, [r2, #0]
 8005b5a:	e7f3      	b.n	8005b44 <HAL_TIM_Base_Start_IT+0x88>
 8005b5c:	40010000 	.word	0x40010000
 8005b60:	40000800 	.word	0x40000800
 8005b64:	40000400 	.word	0x40000400
 8005b68:	40000c00 	.word	0x40000c00
 8005b6c:	40001800 	.word	0x40001800
 8005b70:	00010007 	.word	0x00010007

08005b74 <HAL_TIM_PWM_Init>:
 8005b74:	2800      	cmp	r0, #0
 8005b76:	f000 809c 	beq.w	8005cb2 <HAL_TIM_PWM_Init+0x13e>
 8005b7a:	b5f8      	push	{r3, r4, r5, r6, r7, lr}
 8005b7c:	f890 303d 	ldrb.w	r3, [r0, #61]	; 0x3d
 8005b80:	4604      	mov	r4, r0
 8005b82:	f003 02ff 	and.w	r2, r3, #255	; 0xff
 8005b86:	2b00      	cmp	r3, #0
 8005b88:	d075      	beq.n	8005c76 <HAL_TIM_PWM_Init+0x102>
 8005b8a:	6822      	ldr	r2, [r4, #0]
 8005b8c:	2302      	movs	r3, #2
 8005b8e:	494a      	ldr	r1, [pc, #296]	; (8005cb8 <HAL_TIM_PWM_Init+0x144>)
 8005b90:	f1b2 4f80 	cmp.w	r2, #1073741824	; 0x40000000
 8005b94:	f884 303d 	strb.w	r3, [r4, #61]	; 0x3d
 8005b98:	eba2 0101 	sub.w	r1, r2, r1
 8005b9c:	6813      	ldr	r3, [r2, #0]
 8005b9e:	fab1 f181 	clz	r1, r1
 8005ba2:	ea4f 1151 	mov.w	r1, r1, lsr #5
 8005ba6:	d026      	beq.n	8005bf6 <HAL_TIM_PWM_Init+0x82>
 8005ba8:	bb29      	cbnz	r1, 8005bf6 <HAL_TIM_PWM_Init+0x82>
 8005baa:	4844      	ldr	r0, [pc, #272]	; (8005cbc <HAL_TIM_PWM_Init+0x148>)
 8005bac:	4282      	cmp	r2, r0
 8005bae:	d022      	beq.n	8005bf6 <HAL_TIM_PWM_Init+0x82>
 8005bb0:	f500 6080 	add.w	r0, r0, #1024	; 0x400
 8005bb4:	4282      	cmp	r2, r0
 8005bb6:	d01e      	beq.n	8005bf6 <HAL_TIM_PWM_Init+0x82>
 8005bb8:	4f41      	ldr	r7, [pc, #260]	; (8005cc0 <HAL_TIM_PWM_Init+0x14c>)
 8005bba:	4d42      	ldr	r5, [pc, #264]	; (8005cc4 <HAL_TIM_PWM_Init+0x150>)
 8005bbc:	1bd7      	subs	r7, r2, r7
 8005bbe:	42aa      	cmp	r2, r5
 8005bc0:	fab7 f787 	clz	r7, r7
 8005bc4:	ea4f 1757 	mov.w	r7, r7, lsr #5
 8005bc8:	d05a      	beq.n	8005c80 <HAL_TIM_PWM_Init+0x10c>
 8005bca:	2f00      	cmp	r7, #0
 8005bcc:	d158      	bne.n	8005c80 <HAL_TIM_PWM_Init+0x10c>
 8005bce:	483e      	ldr	r0, [pc, #248]	; (8005cc8 <HAL_TIM_PWM_Init+0x154>)
 8005bd0:	493e      	ldr	r1, [pc, #248]	; (8005ccc <HAL_TIM_PWM_Init+0x158>)
 8005bd2:	428a      	cmp	r2, r1
 8005bd4:	bf18      	it	ne
 8005bd6:	4282      	cmpne	r2, r0
 8005bd8:	d05d      	beq.n	8005c96 <HAL_TIM_PWM_Init+0x122>
 8005bda:	f501 6180 	add.w	r1, r1, #1024	; 0x400
 8005bde:	428a      	cmp	r2, r1
 8005be0:	d059      	beq.n	8005c96 <HAL_TIM_PWM_Init+0x122>
 8005be2:	69a1      	ldr	r1, [r4, #24]
 8005be4:	f023 0380 	bic.w	r3, r3, #128	; 0x80
 8005be8:	68e0      	ldr	r0, [r4, #12]
 8005bea:	430b      	orrs	r3, r1
 8005bec:	6861      	ldr	r1, [r4, #4]
 8005bee:	6013      	str	r3, [r2, #0]
 8005bf0:	62d0      	str	r0, [r2, #44]	; 0x2c
 8005bf2:	6291      	str	r1, [r2, #40]	; 0x28
 8005bf4:	e023      	b.n	8005c3e <HAL_TIM_PWM_Init+0xca>
 8005bf6:	4f32      	ldr	r7, [pc, #200]	; (8005cc0 <HAL_TIM_PWM_Init+0x14c>)
 8005bf8:	f023 0370 	bic.w	r3, r3, #112	; 0x70
 8005bfc:	68a5      	ldr	r5, [r4, #8]
 8005bfe:	1bd7      	subs	r7, r2, r7
 8005c00:	432b      	orrs	r3, r5
 8005c02:	fab7 f787 	clz	r7, r7
 8005c06:	097f      	lsrs	r7, r7, #5
 8005c08:	6920      	ldr	r0, [r4, #16]
 8005c0a:	f423 7340 	bic.w	r3, r3, #768	; 0x300
 8005c0e:	69a5      	ldr	r5, [r4, #24]
 8005c10:	4303      	orrs	r3, r0
 8005c12:	68e6      	ldr	r6, [r4, #12]
 8005c14:	6860      	ldr	r0, [r4, #4]
 8005c16:	f023 0380 	bic.w	r3, r3, #128	; 0x80
 8005c1a:	432b      	orrs	r3, r5
 8005c1c:	6013      	str	r3, [r2, #0]
 8005c1e:	62d6      	str	r6, [r2, #44]	; 0x2c
 8005c20:	6290      	str	r0, [r2, #40]	; 0x28
 8005c22:	b951      	cbnz	r1, 8005c3a <HAL_TIM_PWM_Init+0xc6>
 8005c24:	b94f      	cbnz	r7, 8005c3a <HAL_TIM_PWM_Init+0xc6>
 8005c26:	4928      	ldr	r1, [pc, #160]	; (8005cc8 <HAL_TIM_PWM_Init+0x154>)
 8005c28:	4b28      	ldr	r3, [pc, #160]	; (8005ccc <HAL_TIM_PWM_Init+0x158>)
 8005c2a:	429a      	cmp	r2, r3
 8005c2c:	bf18      	it	ne
 8005c2e:	428a      	cmpne	r2, r1
 8005c30:	d003      	beq.n	8005c3a <HAL_TIM_PWM_Init+0xc6>
 8005c32:	f503 6380 	add.w	r3, r3, #1024	; 0x400
 8005c36:	429a      	cmp	r2, r3
 8005c38:	d101      	bne.n	8005c3e <HAL_TIM_PWM_Init+0xca>
 8005c3a:	6963      	ldr	r3, [r4, #20]
 8005c3c:	6313      	str	r3, [r2, #48]	; 0x30
 8005c3e:	2301      	movs	r3, #1
 8005c40:	2000      	movs	r0, #0
 8005c42:	6153      	str	r3, [r2, #20]
 8005c44:	f884 3048 	strb.w	r3, [r4, #72]	; 0x48
 8005c48:	f884 303e 	strb.w	r3, [r4, #62]	; 0x3e
 8005c4c:	f884 303f 	strb.w	r3, [r4, #63]	; 0x3f
 8005c50:	f884 3040 	strb.w	r3, [r4, #64]	; 0x40
 8005c54:	f884 3041 	strb.w	r3, [r4, #65]	; 0x41
 8005c58:	f884 3042 	strb.w	r3, [r4, #66]	; 0x42
 8005c5c:	f884 3043 	strb.w	r3, [r4, #67]	; 0x43
 8005c60:	f884 3044 	strb.w	r3, [r4, #68]	; 0x44
 8005c64:	f884 3045 	strb.w	r3, [r4, #69]	; 0x45
 8005c68:	f884 3046 	strb.w	r3, [r4, #70]	; 0x46
 8005c6c:	f884 3047 	strb.w	r3, [r4, #71]	; 0x47
 8005c70:	f884 303d 	strb.w	r3, [r4, #61]	; 0x3d
 8005c74:	bdf8      	pop	{r3, r4, r5, r6, r7, pc}
 8005c76:	f880 203c 	strb.w	r2, [r0, #60]	; 0x3c
 8005c7a:	f004 ffad 	bl	800abd8 <HAL_TIM_PWM_MspInit>
 8005c7e:	e784      	b.n	8005b8a <HAL_TIM_PWM_Init+0x16>
 8005c80:	4810      	ldr	r0, [pc, #64]	; (8005cc4 <HAL_TIM_PWM_Init+0x150>)
 8005c82:	f023 0370 	bic.w	r3, r3, #112	; 0x70
 8005c86:	68a5      	ldr	r5, [r4, #8]
 8005c88:	4282      	cmp	r2, r0
 8005c8a:	ea43 0305 	orr.w	r3, r3, r5
 8005c8e:	d0bb      	beq.n	8005c08 <HAL_TIM_PWM_Init+0x94>
 8005c90:	2f00      	cmp	r7, #0
 8005c92:	d1b9      	bne.n	8005c08 <HAL_TIM_PWM_Init+0x94>
 8005c94:	e79b      	b.n	8005bce <HAL_TIM_PWM_Init+0x5a>
 8005c96:	6921      	ldr	r1, [r4, #16]
 8005c98:	f423 7340 	bic.w	r3, r3, #768	; 0x300
 8005c9c:	69a5      	ldr	r5, [r4, #24]
 8005c9e:	430b      	orrs	r3, r1
 8005ca0:	68e0      	ldr	r0, [r4, #12]
 8005ca2:	6861      	ldr	r1, [r4, #4]
 8005ca4:	f023 0380 	bic.w	r3, r3, #128	; 0x80
 8005ca8:	432b      	orrs	r3, r5
 8005caa:	6013      	str	r3, [r2, #0]
 8005cac:	62d0      	str	r0, [r2, #44]	; 0x2c
 8005cae:	6291      	str	r1, [r2, #40]	; 0x28
 8005cb0:	e7b9      	b.n	8005c26 <HAL_TIM_PWM_Init+0xb2>
 8005cb2:	2001      	movs	r0, #1
 8005cb4:	4770      	bx	lr
 8005cb6:	bf00      	nop
 8005cb8:	40010000 	.word	0x40010000
 8005cbc:	40000400 	.word	0x40000400
 8005cc0:	40010400 	.word	0x40010400
 8005cc4:	40000c00 	.word	0x40000c00
 8005cc8:	40014000 	.word	0x40014000
 8005ccc:	40014400 	.word	0x40014400

08005cd0 <HAL_TIM_PWM_Start>:
 8005cd0:	2900      	cmp	r1, #0
 8005cd2:	d156      	bne.n	8005d82 <HAL_TIM_PWM_Start+0xb2>
 8005cd4:	f890 303e 	ldrb.w	r3, [r0, #62]	; 0x3e
 8005cd8:	2b01      	cmp	r3, #1
 8005cda:	d15c      	bne.n	8005d96 <HAL_TIM_PWM_Start+0xc6>
 8005cdc:	2302      	movs	r3, #2
 8005cde:	f880 303e 	strb.w	r3, [r0, #62]	; 0x3e
 8005ce2:	6803      	ldr	r3, [r0, #0]
 8005ce4:	2201      	movs	r2, #1
 8005ce6:	4844      	ldr	r0, [pc, #272]	; (8005df8 <HAL_TIM_PWM_Start+0x128>)
 8005ce8:	f001 011f 	and.w	r1, r1, #31
 8005cec:	b470      	push	{r4, r5, r6}
 8005cee:	4e43      	ldr	r6, [pc, #268]	; (8005dfc <HAL_TIM_PWM_Start+0x12c>)
 8005cf0:	fa02 f101 	lsl.w	r1, r2, r1
 8005cf4:	6a1c      	ldr	r4, [r3, #32]
 8005cf6:	42b3      	cmp	r3, r6
 8005cf8:	bf18      	it	ne
 8005cfa:	4283      	cmpne	r3, r0
 8005cfc:	4d40      	ldr	r5, [pc, #256]	; (8005e00 <HAL_TIM_PWM_Start+0x130>)
 8005cfe:	ea24 0201 	bic.w	r2, r4, r1
 8005d02:	4c40      	ldr	r4, [pc, #256]	; (8005e04 <HAL_TIM_PWM_Start+0x134>)
 8005d04:	bf0c      	ite	eq
 8005d06:	2001      	moveq	r0, #1
 8005d08:	2000      	movne	r0, #0
 8005d0a:	621a      	str	r2, [r3, #32]
 8005d0c:	42ab      	cmp	r3, r5
 8005d0e:	bf08      	it	eq
 8005d10:	f040 0001 	orreq.w	r0, r0, #1
 8005d14:	4a3c      	ldr	r2, [pc, #240]	; (8005e08 <HAL_TIM_PWM_Start+0x138>)
 8005d16:	6a1d      	ldr	r5, [r3, #32]
 8005d18:	4293      	cmp	r3, r2
 8005d1a:	bf18      	it	ne
 8005d1c:	42a3      	cmpne	r3, r4
 8005d1e:	ea41 0105 	orr.w	r1, r1, r5
 8005d22:	6219      	str	r1, [r3, #32]
 8005d24:	d000      	beq.n	8005d28 <HAL_TIM_PWM_Start+0x58>
 8005d26:	b118      	cbz	r0, 8005d30 <HAL_TIM_PWM_Start+0x60>
 8005d28:	6c5a      	ldr	r2, [r3, #68]	; 0x44
 8005d2a:	f442 4200 	orr.w	r2, r2, #32768	; 0x8000
 8005d2e:	645a      	str	r2, [r3, #68]	; 0x44
 8005d30:	4a36      	ldr	r2, [pc, #216]	; (8005e0c <HAL_TIM_PWM_Start+0x13c>)
 8005d32:	4d37      	ldr	r5, [pc, #220]	; (8005e10 <HAL_TIM_PWM_Start+0x140>)
 8005d34:	4293      	cmp	r3, r2
 8005d36:	bf18      	it	ne
 8005d38:	f1b3 4f80 	cmpne.w	r3, #1073741824	; 0x40000000
 8005d3c:	4c35      	ldr	r4, [pc, #212]	; (8005e14 <HAL_TIM_PWM_Start+0x144>)
 8005d3e:	4936      	ldr	r1, [pc, #216]	; (8005e18 <HAL_TIM_PWM_Start+0x148>)
 8005d40:	bf0c      	ite	eq
 8005d42:	2201      	moveq	r2, #1
 8005d44:	2200      	movne	r2, #0
 8005d46:	42ab      	cmp	r3, r5
 8005d48:	bf08      	it	eq
 8005d4a:	f042 0201 	orreq.w	r2, r2, #1
 8005d4e:	42a3      	cmp	r3, r4
 8005d50:	bf08      	it	eq
 8005d52:	f042 0201 	orreq.w	r2, r2, #1
 8005d56:	428b      	cmp	r3, r1
 8005d58:	bf08      	it	eq
 8005d5a:	f042 0201 	orreq.w	r2, r2, #1
 8005d5e:	b90a      	cbnz	r2, 8005d64 <HAL_TIM_PWM_Start+0x94>
 8005d60:	2800      	cmp	r0, #0
 8005d62:	d043      	beq.n	8005dec <HAL_TIM_PWM_Start+0x11c>
 8005d64:	6899      	ldr	r1, [r3, #8]
 8005d66:	4a2d      	ldr	r2, [pc, #180]	; (8005e1c <HAL_TIM_PWM_Start+0x14c>)
 8005d68:	400a      	ands	r2, r1
 8005d6a:	2a06      	cmp	r2, #6
 8005d6c:	d015      	beq.n	8005d9a <HAL_TIM_PWM_Start+0xca>
 8005d6e:	f5b2 3f80 	cmp.w	r2, #65536	; 0x10000
 8005d72:	d012      	beq.n	8005d9a <HAL_TIM_PWM_Start+0xca>
 8005d74:	681a      	ldr	r2, [r3, #0]
 8005d76:	2000      	movs	r0, #0
 8005d78:	f042 0201 	orr.w	r2, r2, #1
 8005d7c:	601a      	str	r2, [r3, #0]
 8005d7e:	bc70      	pop	{r4, r5, r6}
 8005d80:	4770      	bx	lr
 8005d82:	2904      	cmp	r1, #4
 8005d84:	d016      	beq.n	8005db4 <HAL_TIM_PWM_Start+0xe4>
 8005d86:	2908      	cmp	r1, #8
 8005d88:	d01c      	beq.n	8005dc4 <HAL_TIM_PWM_Start+0xf4>
 8005d8a:	290c      	cmp	r1, #12
 8005d8c:	d108      	bne.n	8005da0 <HAL_TIM_PWM_Start+0xd0>
 8005d8e:	f890 3041 	ldrb.w	r3, [r0, #65]	; 0x41
 8005d92:	2b01      	cmp	r3, #1
 8005d94:	d01e      	beq.n	8005dd4 <HAL_TIM_PWM_Start+0x104>
 8005d96:	2001      	movs	r0, #1
 8005d98:	4770      	bx	lr
 8005d9a:	2000      	movs	r0, #0
 8005d9c:	bc70      	pop	{r4, r5, r6}
 8005d9e:	4770      	bx	lr
 8005da0:	2910      	cmp	r1, #16
 8005da2:	d01b      	beq.n	8005ddc <HAL_TIM_PWM_Start+0x10c>
 8005da4:	f890 3043 	ldrb.w	r3, [r0, #67]	; 0x43
 8005da8:	2b01      	cmp	r3, #1
 8005daa:	d1f4      	bne.n	8005d96 <HAL_TIM_PWM_Start+0xc6>
 8005dac:	2302      	movs	r3, #2
 8005dae:	f880 3043 	strb.w	r3, [r0, #67]	; 0x43
 8005db2:	e796      	b.n	8005ce2 <HAL_TIM_PWM_Start+0x12>
 8005db4:	f890 303f 	ldrb.w	r3, [r0, #63]	; 0x3f
 8005db8:	2b01      	cmp	r3, #1
 8005dba:	d1ec      	bne.n	8005d96 <HAL_TIM_PWM_Start+0xc6>
 8005dbc:	2302      	movs	r3, #2
 8005dbe:	f880 303f 	strb.w	r3, [r0, #63]	; 0x3f
 8005dc2:	e78e      	b.n	8005ce2 <HAL_TIM_PWM_Start+0x12>
 8005dc4:	f890 3040 	ldrb.w	r3, [r0, #64]	; 0x40
 8005dc8:	2b01      	cmp	r3, #1
 8005dca:	d1e4      	bne.n	8005d96 <HAL_TIM_PWM_Start+0xc6>
 8005dcc:	2302      	movs	r3, #2
 8005dce:	f880 3040 	strb.w	r3, [r0, #64]	; 0x40
 8005dd2:	e786      	b.n	8005ce2 <HAL_TIM_PWM_Start+0x12>
 8005dd4:	2302      	movs	r3, #2
 8005dd6:	f880 3041 	strb.w	r3, [r0, #65]	; 0x41
 8005dda:	e782      	b.n	8005ce2 <HAL_TIM_PWM_Start+0x12>
 8005ddc:	f890 3042 	ldrb.w	r3, [r0, #66]	; 0x42
 8005de0:	2b01      	cmp	r3, #1
 8005de2:	d1d8      	bne.n	8005d96 <HAL_TIM_PWM_Start+0xc6>
 8005de4:	2302      	movs	r3, #2
 8005de6:	f880 3042 	strb.w	r3, [r0, #66]	; 0x42
 8005dea:	e77a      	b.n	8005ce2 <HAL_TIM_PWM_Start+0x12>
 8005dec:	681a      	ldr	r2, [r3, #0]
 8005dee:	f042 0201 	orr.w	r2, r2, #1
 8005df2:	601a      	str	r2, [r3, #0]
 8005df4:	e7c3      	b.n	8005d7e <HAL_TIM_PWM_Start+0xae>
 8005df6:	bf00      	nop
 8005df8:	40010000 	.word	0x40010000
 8005dfc:	40010400 	.word	0x40010400
 8005e00:	40014000 	.word	0x40014000
 8005e04:	40014800 	.word	0x40014800
 8005e08:	40014400 	.word	0x40014400
 8005e0c:	40000400 	.word	0x40000400
 8005e10:	40000800 	.word	0x40000800
 8005e14:	40000c00 	.word	0x40000c00
 8005e18:	40001800 	.word	0x40001800
 8005e1c:	00010007 	.word	0x00010007

08005e20 <HAL_TIM_ConfigClockSource>:
 8005e20:	f890 303c 	ldrb.w	r3, [r0, #60]	; 0x3c
 8005e24:	2b01      	cmp	r3, #1
 8005e26:	f000 8081 	beq.w	8005f2c <HAL_TIM_ConfigClockSource+0x10c>
 8005e2a:	4602      	mov	r2, r0
 8005e2c:	2302      	movs	r3, #2
 8005e2e:	2001      	movs	r0, #1
 8005e30:	b4f0      	push	{r4, r5, r6, r7}
 8005e32:	6815      	ldr	r5, [r2, #0]
 8005e34:	f882 003c 	strb.w	r0, [r2, #60]	; 0x3c
 8005e38:	f882 303d 	strb.w	r3, [r2, #61]	; 0x3d
 8005e3c:	4c5a      	ldr	r4, [pc, #360]	; (8005fa8 <HAL_TIM_ConfigClockSource+0x188>)
 8005e3e:	68ae      	ldr	r6, [r5, #8]
 8005e40:	680b      	ldr	r3, [r1, #0]
 8005e42:	4034      	ands	r4, r6
 8005e44:	2b70      	cmp	r3, #112	; 0x70
 8005e46:	60ac      	str	r4, [r5, #8]
 8005e48:	f000 809c 	beq.w	8005f84 <HAL_TIM_ConfigClockSource+0x164>
 8005e4c:	d825      	bhi.n	8005e9a <HAL_TIM_ConfigClockSource+0x7a>
 8005e4e:	2b50      	cmp	r3, #80	; 0x50
 8005e50:	d06e      	beq.n	8005f30 <HAL_TIM_ConfigClockSource+0x110>
 8005e52:	d939      	bls.n	8005ec8 <HAL_TIM_ConfigClockSource+0xa8>
 8005e54:	2b60      	cmp	r3, #96	; 0x60
 8005e56:	d118      	bne.n	8005e8a <HAL_TIM_ConfigClockSource+0x6a>
 8005e58:	6a2b      	ldr	r3, [r5, #32]
 8005e5a:	2000      	movs	r0, #0
 8005e5c:	684e      	ldr	r6, [r1, #4]
 8005e5e:	f023 0310 	bic.w	r3, r3, #16
 8005e62:	68cf      	ldr	r7, [r1, #12]
 8005e64:	622b      	str	r3, [r5, #32]
 8005e66:	69ac      	ldr	r4, [r5, #24]
 8005e68:	6a29      	ldr	r1, [r5, #32]
 8005e6a:	f424 4470 	bic.w	r4, r4, #61440	; 0xf000
 8005e6e:	4b4f      	ldr	r3, [pc, #316]	; (8005fac <HAL_TIM_ConfigClockSource+0x18c>)
 8005e70:	f021 01a0 	bic.w	r1, r1, #160	; 0xa0
 8005e74:	ea44 3407 	orr.w	r4, r4, r7, lsl #12
 8005e78:	ea41 1106 	orr.w	r1, r1, r6, lsl #4
 8005e7c:	61ac      	str	r4, [r5, #24]
 8005e7e:	6229      	str	r1, [r5, #32]
 8005e80:	68a9      	ldr	r1, [r5, #8]
 8005e82:	400b      	ands	r3, r1
 8005e84:	f043 0367 	orr.w	r3, r3, #103	; 0x67
 8005e88:	60ab      	str	r3, [r5, #8]
 8005e8a:	2101      	movs	r1, #1
 8005e8c:	2300      	movs	r3, #0
 8005e8e:	f882 103d 	strb.w	r1, [r2, #61]	; 0x3d
 8005e92:	f882 303c 	strb.w	r3, [r2, #60]	; 0x3c
 8005e96:	bcf0      	pop	{r4, r5, r6, r7}
 8005e98:	4770      	bx	lr
 8005e9a:	f5b3 5f00 	cmp.w	r3, #8192	; 0x2000
 8005e9e:	d060      	beq.n	8005f62 <HAL_TIM_ConfigClockSource+0x142>
 8005ea0:	d933      	bls.n	8005f0a <HAL_TIM_ConfigClockSource+0xea>
 8005ea2:	4943      	ldr	r1, [pc, #268]	; (8005fb0 <HAL_TIM_ConfigClockSource+0x190>)
 8005ea4:	428b      	cmp	r3, r1
 8005ea6:	d006      	beq.n	8005eb6 <HAL_TIM_ConfigClockSource+0x96>
 8005ea8:	d929      	bls.n	8005efe <HAL_TIM_ConfigClockSource+0xde>
 8005eaa:	4942      	ldr	r1, [pc, #264]	; (8005fb4 <HAL_TIM_ConfigClockSource+0x194>)
 8005eac:	428b      	cmp	r3, r1
 8005eae:	d002      	beq.n	8005eb6 <HAL_TIM_ConfigClockSource+0x96>
 8005eb0:	3110      	adds	r1, #16
 8005eb2:	428b      	cmp	r3, r1
 8005eb4:	d1e9      	bne.n	8005e8a <HAL_TIM_ConfigClockSource+0x6a>
 8005eb6:	68ac      	ldr	r4, [r5, #8]
 8005eb8:	2000      	movs	r0, #0
 8005eba:	493c      	ldr	r1, [pc, #240]	; (8005fac <HAL_TIM_ConfigClockSource+0x18c>)
 8005ebc:	4021      	ands	r1, r4
 8005ebe:	430b      	orrs	r3, r1
 8005ec0:	f043 0307 	orr.w	r3, r3, #7
 8005ec4:	60ab      	str	r3, [r5, #8]
 8005ec6:	e7e0      	b.n	8005e8a <HAL_TIM_ConfigClockSource+0x6a>
 8005ec8:	2b40      	cmp	r3, #64	; 0x40
 8005eca:	d123      	bne.n	8005f14 <HAL_TIM_ConfigClockSource+0xf4>
 8005ecc:	6a2e      	ldr	r6, [r5, #32]
 8005ece:	2000      	movs	r0, #0
 8005ed0:	6a2b      	ldr	r3, [r5, #32]
 8005ed2:	684c      	ldr	r4, [r1, #4]
 8005ed4:	f026 060a 	bic.w	r6, r6, #10
 8005ed8:	f023 0301 	bic.w	r3, r3, #1
 8005edc:	68cf      	ldr	r7, [r1, #12]
 8005ede:	4334      	orrs	r4, r6
 8005ee0:	622b      	str	r3, [r5, #32]
 8005ee2:	69a9      	ldr	r1, [r5, #24]
 8005ee4:	4b31      	ldr	r3, [pc, #196]	; (8005fac <HAL_TIM_ConfigClockSource+0x18c>)
 8005ee6:	f021 01f0 	bic.w	r1, r1, #240	; 0xf0
 8005eea:	ea41 1107 	orr.w	r1, r1, r7, lsl #4
 8005eee:	61a9      	str	r1, [r5, #24]
 8005ef0:	622c      	str	r4, [r5, #32]
 8005ef2:	68a9      	ldr	r1, [r5, #8]
 8005ef4:	400b      	ands	r3, r1
 8005ef6:	f043 0347 	orr.w	r3, r3, #71	; 0x47
 8005efa:	60ab      	str	r3, [r5, #8]
 8005efc:	e7c5      	b.n	8005e8a <HAL_TIM_ConfigClockSource+0x6a>
 8005efe:	f023 0110 	bic.w	r1, r3, #16
 8005f02:	f5b1 1f80 	cmp.w	r1, #1048576	; 0x100000
 8005f06:	d1c0      	bne.n	8005e8a <HAL_TIM_ConfigClockSource+0x6a>
 8005f08:	e7d5      	b.n	8005eb6 <HAL_TIM_ConfigClockSource+0x96>
 8005f0a:	f5b3 5080 	subs.w	r0, r3, #4096	; 0x1000
 8005f0e:	bf18      	it	ne
 8005f10:	2001      	movne	r0, #1
 8005f12:	e7ba      	b.n	8005e8a <HAL_TIM_ConfigClockSource+0x6a>
 8005f14:	d8b9      	bhi.n	8005e8a <HAL_TIM_ConfigClockSource+0x6a>
 8005f16:	2b20      	cmp	r3, #32
 8005f18:	d0cd      	beq.n	8005eb6 <HAL_TIM_ConfigClockSource+0x96>
 8005f1a:	d903      	bls.n	8005f24 <HAL_TIM_ConfigClockSource+0x104>
 8005f1c:	2b30      	cmp	r3, #48	; 0x30
 8005f1e:	d0ca      	beq.n	8005eb6 <HAL_TIM_ConfigClockSource+0x96>
 8005f20:	2001      	movs	r0, #1
 8005f22:	e7b2      	b.n	8005e8a <HAL_TIM_ConfigClockSource+0x6a>
 8005f24:	f033 0110 	bics.w	r1, r3, #16
 8005f28:	d1af      	bne.n	8005e8a <HAL_TIM_ConfigClockSource+0x6a>
 8005f2a:	e7c4      	b.n	8005eb6 <HAL_TIM_ConfigClockSource+0x96>
 8005f2c:	2002      	movs	r0, #2
 8005f2e:	4770      	bx	lr
 8005f30:	6a2e      	ldr	r6, [r5, #32]
 8005f32:	2000      	movs	r0, #0
 8005f34:	6a2b      	ldr	r3, [r5, #32]
 8005f36:	684c      	ldr	r4, [r1, #4]
 8005f38:	f026 060a 	bic.w	r6, r6, #10
 8005f3c:	f023 0301 	bic.w	r3, r3, #1
 8005f40:	68cf      	ldr	r7, [r1, #12]
 8005f42:	4334      	orrs	r4, r6
 8005f44:	622b      	str	r3, [r5, #32]
 8005f46:	69a9      	ldr	r1, [r5, #24]
 8005f48:	4b18      	ldr	r3, [pc, #96]	; (8005fac <HAL_TIM_ConfigClockSource+0x18c>)
 8005f4a:	f021 01f0 	bic.w	r1, r1, #240	; 0xf0
 8005f4e:	ea41 1107 	orr.w	r1, r1, r7, lsl #4
 8005f52:	61a9      	str	r1, [r5, #24]
 8005f54:	622c      	str	r4, [r5, #32]
 8005f56:	68a9      	ldr	r1, [r5, #8]
 8005f58:	400b      	ands	r3, r1
 8005f5a:	f043 0357 	orr.w	r3, r3, #87	; 0x57
 8005f5e:	60ab      	str	r3, [r5, #8]
 8005f60:	e793      	b.n	8005e8a <HAL_TIM_ConfigClockSource+0x6a>
 8005f62:	688b      	ldr	r3, [r1, #8]
 8005f64:	2000      	movs	r0, #0
 8005f66:	684e      	ldr	r6, [r1, #4]
 8005f68:	68cc      	ldr	r4, [r1, #12]
 8005f6a:	4333      	orrs	r3, r6
 8005f6c:	68a9      	ldr	r1, [r5, #8]
 8005f6e:	ea43 2304 	orr.w	r3, r3, r4, lsl #8
 8005f72:	f421 417f 	bic.w	r1, r1, #65280	; 0xff00
 8005f76:	430b      	orrs	r3, r1
 8005f78:	60ab      	str	r3, [r5, #8]
 8005f7a:	68ab      	ldr	r3, [r5, #8]
 8005f7c:	f443 4380 	orr.w	r3, r3, #16384	; 0x4000
 8005f80:	60ab      	str	r3, [r5, #8]
 8005f82:	e782      	b.n	8005e8a <HAL_TIM_ConfigClockSource+0x6a>
 8005f84:	688b      	ldr	r3, [r1, #8]
 8005f86:	2000      	movs	r0, #0
 8005f88:	684e      	ldr	r6, [r1, #4]
 8005f8a:	68cc      	ldr	r4, [r1, #12]
 8005f8c:	4333      	orrs	r3, r6
 8005f8e:	68a9      	ldr	r1, [r5, #8]
 8005f90:	ea43 2304 	orr.w	r3, r3, r4, lsl #8
 8005f94:	f421 417f 	bic.w	r1, r1, #65280	; 0xff00
 8005f98:	430b      	orrs	r3, r1
 8005f9a:	60ab      	str	r3, [r5, #8]
 8005f9c:	68ab      	ldr	r3, [r5, #8]
 8005f9e:	f043 0377 	orr.w	r3, r3, #119	; 0x77
 8005fa2:	60ab      	str	r3, [r5, #8]
 8005fa4:	e771      	b.n	8005e8a <HAL_TIM_ConfigClockSource+0x6a>
 8005fa6:	bf00      	nop
 8005fa8:	ffce0088 	.word	0xffce0088
 8005fac:	ffcfff8f 	.word	0xffcfff8f
 8005fb0:	00100020 	.word	0x00100020
 8005fb4:	00100030 	.word	0x00100030

08005fb8 <HAL_TIM_OC_DelayElapsedCallback>:
 8005fb8:	4770      	bx	lr
 8005fba:	bf00      	nop

08005fbc <HAL_TIM_IC_CaptureCallback>:
 8005fbc:	4770      	bx	lr
 8005fbe:	bf00      	nop

08005fc0 <HAL_TIM_PWM_PulseFinishedCallback>:
 8005fc0:	4770      	bx	lr
 8005fc2:	bf00      	nop

08005fc4 <HAL_TIM_TriggerCallback>:
 8005fc4:	4770      	bx	lr
 8005fc6:	bf00      	nop

08005fc8 <HAL_TIM_IRQHandler>:
 8005fc8:	6803      	ldr	r3, [r0, #0]
 8005fca:	691a      	ldr	r2, [r3, #16]
 8005fcc:	0791      	lsls	r1, r2, #30
 8005fce:	b510      	push	{r4, lr}
 8005fd0:	4604      	mov	r4, r0
 8005fd2:	d502      	bpl.n	8005fda <HAL_TIM_IRQHandler+0x12>
 8005fd4:	68da      	ldr	r2, [r3, #12]
 8005fd6:	0792      	lsls	r2, r2, #30
 8005fd8:	d468      	bmi.n	80060ac <HAL_TIM_IRQHandler+0xe4>
 8005fda:	691a      	ldr	r2, [r3, #16]
 8005fdc:	0752      	lsls	r2, r2, #29
 8005fde:	d502      	bpl.n	8005fe6 <HAL_TIM_IRQHandler+0x1e>
 8005fe0:	68da      	ldr	r2, [r3, #12]
 8005fe2:	0750      	lsls	r0, r2, #29
 8005fe4:	d44f      	bmi.n	8006086 <HAL_TIM_IRQHandler+0xbe>
 8005fe6:	691a      	ldr	r2, [r3, #16]
 8005fe8:	0711      	lsls	r1, r2, #28
 8005fea:	d502      	bpl.n	8005ff2 <HAL_TIM_IRQHandler+0x2a>
 8005fec:	68da      	ldr	r2, [r3, #12]
 8005fee:	0712      	lsls	r2, r2, #28
 8005ff0:	d437      	bmi.n	8006062 <HAL_TIM_IRQHandler+0x9a>
 8005ff2:	691a      	ldr	r2, [r3, #16]
 8005ff4:	06d0      	lsls	r0, r2, #27
 8005ff6:	d502      	bpl.n	8005ffe <HAL_TIM_IRQHandler+0x36>
 8005ff8:	68da      	ldr	r2, [r3, #12]
 8005ffa:	06d1      	lsls	r1, r2, #27
 8005ffc:	d41e      	bmi.n	800603c <HAL_TIM_IRQHandler+0x74>
 8005ffe:	691a      	ldr	r2, [r3, #16]
 8006000:	07d2      	lsls	r2, r2, #31
 8006002:	d502      	bpl.n	800600a <HAL_TIM_IRQHandler+0x42>
 8006004:	68da      	ldr	r2, [r3, #12]
 8006006:	07d0      	lsls	r0, r2, #31
 8006008:	d469      	bmi.n	80060de <HAL_TIM_IRQHandler+0x116>
 800600a:	691a      	ldr	r2, [r3, #16]
 800600c:	0611      	lsls	r1, r2, #24
 800600e:	d502      	bpl.n	8006016 <HAL_TIM_IRQHandler+0x4e>
 8006010:	68da      	ldr	r2, [r3, #12]
 8006012:	0612      	lsls	r2, r2, #24
 8006014:	d46b      	bmi.n	80060ee <HAL_TIM_IRQHandler+0x126>
 8006016:	691a      	ldr	r2, [r3, #16]
 8006018:	05d0      	lsls	r0, r2, #23
 800601a:	d502      	bpl.n	8006022 <HAL_TIM_IRQHandler+0x5a>
 800601c:	68da      	ldr	r2, [r3, #12]
 800601e:	0611      	lsls	r1, r2, #24
 8006020:	d46d      	bmi.n	80060fe <HAL_TIM_IRQHandler+0x136>
 8006022:	691a      	ldr	r2, [r3, #16]
 8006024:	0652      	lsls	r2, r2, #25
 8006026:	d502      	bpl.n	800602e <HAL_TIM_IRQHandler+0x66>
 8006028:	68da      	ldr	r2, [r3, #12]
 800602a:	0650      	lsls	r0, r2, #25
 800602c:	d46f      	bmi.n	800610e <HAL_TIM_IRQHandler+0x146>
 800602e:	691a      	ldr	r2, [r3, #16]
 8006030:	0691      	lsls	r1, r2, #26
 8006032:	d502      	bpl.n	800603a <HAL_TIM_IRQHandler+0x72>
 8006034:	68da      	ldr	r2, [r3, #12]
 8006036:	0692      	lsls	r2, r2, #26
 8006038:	d449      	bmi.n	80060ce <HAL_TIM_IRQHandler+0x106>
 800603a:	bd10      	pop	{r4, pc}
 800603c:	f06f 0110 	mvn.w	r1, #16
 8006040:	2208      	movs	r2, #8
 8006042:	4620      	mov	r0, r4
 8006044:	6119      	str	r1, [r3, #16]
 8006046:	7722      	strb	r2, [r4, #28]
 8006048:	69db      	ldr	r3, [r3, #28]
 800604a:	f413 7f40 	tst.w	r3, #768	; 0x300
 800604e:	d16f      	bne.n	8006130 <HAL_TIM_IRQHandler+0x168>
 8006050:	f7ff ffb2 	bl	8005fb8 <HAL_TIM_OC_DelayElapsedCallback>
 8006054:	4620      	mov	r0, r4
 8006056:	f7ff ffb3 	bl	8005fc0 <HAL_TIM_PWM_PulseFinishedCallback>
 800605a:	2200      	movs	r2, #0
 800605c:	6823      	ldr	r3, [r4, #0]
 800605e:	7722      	strb	r2, [r4, #28]
 8006060:	e7cd      	b.n	8005ffe <HAL_TIM_IRQHandler+0x36>
 8006062:	f06f 0108 	mvn.w	r1, #8
 8006066:	2204      	movs	r2, #4
 8006068:	4620      	mov	r0, r4
 800606a:	6119      	str	r1, [r3, #16]
 800606c:	7722      	strb	r2, [r4, #28]
 800606e:	69db      	ldr	r3, [r3, #28]
 8006070:	079b      	lsls	r3, r3, #30
 8006072:	d15a      	bne.n	800612a <HAL_TIM_IRQHandler+0x162>
 8006074:	f7ff ffa0 	bl	8005fb8 <HAL_TIM_OC_DelayElapsedCallback>
 8006078:	4620      	mov	r0, r4
 800607a:	f7ff ffa1 	bl	8005fc0 <HAL_TIM_PWM_PulseFinishedCallback>
 800607e:	2200      	movs	r2, #0
 8006080:	6823      	ldr	r3, [r4, #0]
 8006082:	7722      	strb	r2, [r4, #28]
 8006084:	e7b5      	b.n	8005ff2 <HAL_TIM_IRQHandler+0x2a>
 8006086:	f06f 0104 	mvn.w	r1, #4
 800608a:	2202      	movs	r2, #2
 800608c:	4620      	mov	r0, r4
 800608e:	6119      	str	r1, [r3, #16]
 8006090:	7722      	strb	r2, [r4, #28]
 8006092:	699b      	ldr	r3, [r3, #24]
 8006094:	f413 7f40 	tst.w	r3, #768	; 0x300
 8006098:	d144      	bne.n	8006124 <HAL_TIM_IRQHandler+0x15c>
 800609a:	f7ff ff8d 	bl	8005fb8 <HAL_TIM_OC_DelayElapsedCallback>
 800609e:	4620      	mov	r0, r4
 80060a0:	f7ff ff8e 	bl	8005fc0 <HAL_TIM_PWM_PulseFinishedCallback>
 80060a4:	2200      	movs	r2, #0
 80060a6:	6823      	ldr	r3, [r4, #0]
 80060a8:	7722      	strb	r2, [r4, #28]
 80060aa:	e79c      	b.n	8005fe6 <HAL_TIM_IRQHandler+0x1e>
 80060ac:	f06f 0102 	mvn.w	r1, #2
 80060b0:	2201      	movs	r2, #1
 80060b2:	6119      	str	r1, [r3, #16]
 80060b4:	7702      	strb	r2, [r0, #28]
 80060b6:	699b      	ldr	r3, [r3, #24]
 80060b8:	0799      	lsls	r1, r3, #30
 80060ba:	d130      	bne.n	800611e <HAL_TIM_IRQHandler+0x156>
 80060bc:	f7ff ff7c 	bl	8005fb8 <HAL_TIM_OC_DelayElapsedCallback>
 80060c0:	4620      	mov	r0, r4
 80060c2:	f7ff ff7d 	bl	8005fc0 <HAL_TIM_PWM_PulseFinishedCallback>
 80060c6:	2200      	movs	r2, #0
 80060c8:	6823      	ldr	r3, [r4, #0]
 80060ca:	7722      	strb	r2, [r4, #28]
 80060cc:	e785      	b.n	8005fda <HAL_TIM_IRQHandler+0x12>
 80060ce:	f06f 0220 	mvn.w	r2, #32
 80060d2:	4620      	mov	r0, r4
 80060d4:	611a      	str	r2, [r3, #16]
 80060d6:	e8bd 4010 	ldmia.w	sp!, {r4, lr}
 80060da:	f000 b9f5 	b.w	80064c8 <HAL_TIMEx_CommutCallback>
 80060de:	f06f 0201 	mvn.w	r2, #1
 80060e2:	4620      	mov	r0, r4
 80060e4:	611a      	str	r2, [r3, #16]
 80060e6:	f004 fbab 	bl	800a840 <HAL_TIM_PeriodElapsedCallback>
 80060ea:	6823      	ldr	r3, [r4, #0]
 80060ec:	e78d      	b.n	800600a <HAL_TIM_IRQHandler+0x42>
 80060ee:	f06f 0280 	mvn.w	r2, #128	; 0x80
 80060f2:	4620      	mov	r0, r4
 80060f4:	611a      	str	r2, [r3, #16]
 80060f6:	f000 f9e9 	bl	80064cc <HAL_TIMEx_BreakCallback>
 80060fa:	6823      	ldr	r3, [r4, #0]
 80060fc:	e78b      	b.n	8006016 <HAL_TIM_IRQHandler+0x4e>
 80060fe:	f46f 7280 	mvn.w	r2, #256	; 0x100
 8006102:	4620      	mov	r0, r4
 8006104:	611a      	str	r2, [r3, #16]
 8006106:	f000 f9e3 	bl	80064d0 <HAL_TIMEx_Break2Callback>
 800610a:	6823      	ldr	r3, [r4, #0]
 800610c:	e789      	b.n	8006022 <HAL_TIM_IRQHandler+0x5a>
 800610e:	f06f 0240 	mvn.w	r2, #64	; 0x40
 8006112:	4620      	mov	r0, r4
 8006114:	611a      	str	r2, [r3, #16]
 8006116:	f7ff ff55 	bl	8005fc4 <HAL_TIM_TriggerCallback>
 800611a:	6823      	ldr	r3, [r4, #0]
 800611c:	e787      	b.n	800602e <HAL_TIM_IRQHandler+0x66>
 800611e:	f7ff ff4d 	bl	8005fbc <HAL_TIM_IC_CaptureCallback>
 8006122:	e7d0      	b.n	80060c6 <HAL_TIM_IRQHandler+0xfe>
 8006124:	f7ff ff4a 	bl	8005fbc <HAL_TIM_IC_CaptureCallback>
 8006128:	e7bc      	b.n	80060a4 <HAL_TIM_IRQHandler+0xdc>
 800612a:	f7ff ff47 	bl	8005fbc <HAL_TIM_IC_CaptureCallback>
 800612e:	e7a6      	b.n	800607e <HAL_TIM_IRQHandler+0xb6>
 8006130:	f7ff ff44 	bl	8005fbc <HAL_TIM_IC_CaptureCallback>
 8006134:	e791      	b.n	800605a <HAL_TIM_IRQHandler+0x92>
 8006136:	bf00      	nop

08006138 <TIM_OC2_SetConfig>:
 8006138:	b4f0      	push	{r4, r5, r6, r7}
 800613a:	6a04      	ldr	r4, [r0, #32]
 800613c:	f8d1 c008 	ldr.w	ip, [r1, #8]
 8006140:	f024 0410 	bic.w	r4, r4, #16
 8006144:	680a      	ldr	r2, [r1, #0]
 8006146:	4f19      	ldr	r7, [pc, #100]	; (80061ac <TIM_OC2_SetConfig+0x74>)
 8006148:	6204      	str	r4, [r0, #32]
 800614a:	4e19      	ldr	r6, [pc, #100]	; (80061b0 <TIM_OC2_SetConfig+0x78>)
 800614c:	6a03      	ldr	r3, [r0, #32]
 800614e:	6845      	ldr	r5, [r0, #4]
 8006150:	42b0      	cmp	r0, r6
 8006152:	6984      	ldr	r4, [r0, #24]
 8006154:	f023 0320 	bic.w	r3, r3, #32
 8006158:	ea07 0704 	and.w	r7, r7, r4
 800615c:	ea43 130c 	orr.w	r3, r3, ip, lsl #4
 8006160:	ea47 2202 	orr.w	r2, r7, r2, lsl #8
 8006164:	d00d      	beq.n	8006182 <TIM_OC2_SetConfig+0x4a>
 8006166:	4c13      	ldr	r4, [pc, #76]	; (80061b4 <TIM_OC2_SetConfig+0x7c>)
 8006168:	42a0      	cmp	r0, r4
 800616a:	d00a      	beq.n	8006182 <TIM_OC2_SetConfig+0x4a>
 800616c:	4e12      	ldr	r6, [pc, #72]	; (80061b8 <TIM_OC2_SetConfig+0x80>)
 800616e:	4c13      	ldr	r4, [pc, #76]	; (80061bc <TIM_OC2_SetConfig+0x84>)
 8006170:	42a0      	cmp	r0, r4
 8006172:	bf18      	it	ne
 8006174:	42b0      	cmpne	r0, r6
 8006176:	d00b      	beq.n	8006190 <TIM_OC2_SetConfig+0x58>
 8006178:	f504 6480 	add.w	r4, r4, #1024	; 0x400
 800617c:	42a0      	cmp	r0, r4
 800617e:	d10e      	bne.n	800619e <TIM_OC2_SetConfig+0x66>
 8006180:	e006      	b.n	8006190 <TIM_OC2_SetConfig+0x58>
 8006182:	f023 0380 	bic.w	r3, r3, #128	; 0x80
 8006186:	68cc      	ldr	r4, [r1, #12]
 8006188:	ea43 1304 	orr.w	r3, r3, r4, lsl #4
 800618c:	f023 0340 	bic.w	r3, r3, #64	; 0x40
 8006190:	694c      	ldr	r4, [r1, #20]
 8006192:	f425 6540 	bic.w	r5, r5, #3072	; 0xc00
 8006196:	698e      	ldr	r6, [r1, #24]
 8006198:	4334      	orrs	r4, r6
 800619a:	ea45 0584 	orr.w	r5, r5, r4, lsl #2
 800619e:	6849      	ldr	r1, [r1, #4]
 80061a0:	6045      	str	r5, [r0, #4]
 80061a2:	6182      	str	r2, [r0, #24]
 80061a4:	6381      	str	r1, [r0, #56]	; 0x38
 80061a6:	6203      	str	r3, [r0, #32]
 80061a8:	bcf0      	pop	{r4, r5, r6, r7}
 80061aa:	4770      	bx	lr
 80061ac:	feff8cff 	.word	0xfeff8cff
 80061b0:	40010000 	.word	0x40010000
 80061b4:	40010400 	.word	0x40010400
 80061b8:	40014000 	.word	0x40014000
 80061bc:	40014400 	.word	0x40014400

080061c0 <HAL_TIM_PWM_ConfigChannel>:
 80061c0:	b5f8      	push	{r3, r4, r5, r6, r7, lr}
 80061c2:	f890 303c 	ldrb.w	r3, [r0, #60]	; 0x3c
 80061c6:	2b01      	cmp	r3, #1
 80061c8:	f000 8116 	beq.w	80063f8 <HAL_TIM_PWM_ConfigChannel+0x238>
 80061cc:	2301      	movs	r3, #1
 80061ce:	4604      	mov	r4, r0
 80061d0:	460d      	mov	r5, r1
 80061d2:	f880 303c 	strb.w	r3, [r0, #60]	; 0x3c
 80061d6:	2a14      	cmp	r2, #20
 80061d8:	d816      	bhi.n	8006208 <HAL_TIM_PWM_ConfigChannel+0x48>
 80061da:	e8df f012 	tbh	[pc, r2, lsl #1]
 80061de:	0059      	.short	0x0059
 80061e0:	00150015 	.word	0x00150015
 80061e4:	006b0015 	.word	0x006b0015
 80061e8:	00150015 	.word	0x00150015
 80061ec:	007e0015 	.word	0x007e0015
 80061f0:	00150015 	.word	0x00150015
 80061f4:	00900015 	.word	0x00900015
 80061f8:	00150015 	.word	0x00150015
 80061fc:	00cf0015 	.word	0x00cf0015
 8006200:	00150015 	.word	0x00150015
 8006204:	001a0015 	.word	0x001a0015
 8006208:	2001      	movs	r0, #1
 800620a:	2300      	movs	r3, #0
 800620c:	f884 303c 	strb.w	r3, [r4, #60]	; 0x3c
 8006210:	bdf8      	pop	{r3, r4, r5, r6, r7, pc}
 8006212:	6803      	ldr	r3, [r0, #0]
 8006214:	68ae      	ldr	r6, [r5, #8]
 8006216:	6a18      	ldr	r0, [r3, #32]
 8006218:	682f      	ldr	r7, [r5, #0]
 800621a:	f420 1080 	bic.w	r0, r0, #1048576	; 0x100000
 800621e:	4977      	ldr	r1, [pc, #476]	; (80063fc <HAL_TIM_PWM_ConfigChannel+0x23c>)
 8006220:	6218      	str	r0, [r3, #32]
 8006222:	6a1a      	ldr	r2, [r3, #32]
 8006224:	6858      	ldr	r0, [r3, #4]
 8006226:	f422 1200 	bic.w	r2, r2, #2097152	; 0x200000
 800622a:	f8d3 c054 	ldr.w	ip, [r3, #84]	; 0x54
 800622e:	ea42 5206 	orr.w	r2, r2, r6, lsl #20
 8006232:	4e73      	ldr	r6, [pc, #460]	; (8006400 <HAL_TIM_PWM_ConfigChannel+0x240>)
 8006234:	ea0c 0101 	and.w	r1, ip, r1
 8006238:	42b3      	cmp	r3, r6
 800623a:	ea41 2107 	orr.w	r1, r1, r7, lsl #8
 800623e:	d00e      	beq.n	800625e <HAL_TIM_PWM_ConfigChannel+0x9e>
 8006240:	f506 6680 	add.w	r6, r6, #1024	; 0x400
 8006244:	42b3      	cmp	r3, r6
 8006246:	d00a      	beq.n	800625e <HAL_TIM_PWM_ConfigChannel+0x9e>
 8006248:	4f6e      	ldr	r7, [pc, #440]	; (8006404 <HAL_TIM_PWM_ConfigChannel+0x244>)
 800624a:	f506 4680 	add.w	r6, r6, #16384	; 0x4000
 800624e:	42b3      	cmp	r3, r6
 8006250:	bf18      	it	ne
 8006252:	42bb      	cmpne	r3, r7
 8006254:	d003      	beq.n	800625e <HAL_TIM_PWM_ConfigChannel+0x9e>
 8006256:	f506 6680 	add.w	r6, r6, #1024	; 0x400
 800625a:	42b3      	cmp	r3, r6
 800625c:	d104      	bne.n	8006268 <HAL_TIM_PWM_ConfigChannel+0xa8>
 800625e:	f420 2080 	bic.w	r0, r0, #262144	; 0x40000
 8006262:	696e      	ldr	r6, [r5, #20]
 8006264:	ea40 2086 	orr.w	r0, r0, r6, lsl #10
 8006268:	686e      	ldr	r6, [r5, #4]
 800626a:	6058      	str	r0, [r3, #4]
 800626c:	2000      	movs	r0, #0
 800626e:	6559      	str	r1, [r3, #84]	; 0x54
 8006270:	65de      	str	r6, [r3, #92]	; 0x5c
 8006272:	621a      	str	r2, [r3, #32]
 8006274:	6d59      	ldr	r1, [r3, #84]	; 0x54
 8006276:	692d      	ldr	r5, [r5, #16]
 8006278:	f441 6100 	orr.w	r1, r1, #2048	; 0x800
 800627c:	6559      	str	r1, [r3, #84]	; 0x54
 800627e:	6d59      	ldr	r1, [r3, #84]	; 0x54
 8006280:	f421 6180 	bic.w	r1, r1, #1024	; 0x400
 8006284:	6559      	str	r1, [r3, #84]	; 0x54
 8006286:	6d5a      	ldr	r2, [r3, #84]	; 0x54
 8006288:	ea42 2205 	orr.w	r2, r2, r5, lsl #8
 800628c:	655a      	str	r2, [r3, #84]	; 0x54
 800628e:	e7bc      	b.n	800620a <HAL_TIM_PWM_ConfigChannel+0x4a>
 8006290:	6800      	ldr	r0, [r0, #0]
 8006292:	f7ff fae1 	bl	8005858 <TIM_OC1_SetConfig>
 8006296:	6823      	ldr	r3, [r4, #0]
 8006298:	690d      	ldr	r5, [r1, #16]
 800629a:	2000      	movs	r0, #0
 800629c:	6999      	ldr	r1, [r3, #24]
 800629e:	f041 0108 	orr.w	r1, r1, #8
 80062a2:	6199      	str	r1, [r3, #24]
 80062a4:	6999      	ldr	r1, [r3, #24]
 80062a6:	f021 0104 	bic.w	r1, r1, #4
 80062aa:	6199      	str	r1, [r3, #24]
 80062ac:	699a      	ldr	r2, [r3, #24]
 80062ae:	432a      	orrs	r2, r5
 80062b0:	619a      	str	r2, [r3, #24]
 80062b2:	e7aa      	b.n	800620a <HAL_TIM_PWM_ConfigChannel+0x4a>
 80062b4:	6800      	ldr	r0, [r0, #0]
 80062b6:	f7ff ff3f 	bl	8006138 <TIM_OC2_SetConfig>
 80062ba:	6823      	ldr	r3, [r4, #0]
 80062bc:	692d      	ldr	r5, [r5, #16]
 80062be:	2000      	movs	r0, #0
 80062c0:	6999      	ldr	r1, [r3, #24]
 80062c2:	f441 6100 	orr.w	r1, r1, #2048	; 0x800
 80062c6:	6199      	str	r1, [r3, #24]
 80062c8:	6999      	ldr	r1, [r3, #24]
 80062ca:	f421 6180 	bic.w	r1, r1, #1024	; 0x400
 80062ce:	6199      	str	r1, [r3, #24]
 80062d0:	699a      	ldr	r2, [r3, #24]
 80062d2:	ea42 2205 	orr.w	r2, r2, r5, lsl #8
 80062d6:	619a      	str	r2, [r3, #24]
 80062d8:	e797      	b.n	800620a <HAL_TIM_PWM_ConfigChannel+0x4a>
 80062da:	6800      	ldr	r0, [r0, #0]
 80062dc:	f7ff fafc 	bl	80058d8 <TIM_OC3_SetConfig>
 80062e0:	6823      	ldr	r3, [r4, #0]
 80062e2:	692d      	ldr	r5, [r5, #16]
 80062e4:	2000      	movs	r0, #0
 80062e6:	69d9      	ldr	r1, [r3, #28]
 80062e8:	f041 0108 	orr.w	r1, r1, #8
 80062ec:	61d9      	str	r1, [r3, #28]
 80062ee:	69d9      	ldr	r1, [r3, #28]
 80062f0:	f021 0104 	bic.w	r1, r1, #4
 80062f4:	61d9      	str	r1, [r3, #28]
 80062f6:	69da      	ldr	r2, [r3, #28]
 80062f8:	432a      	orrs	r2, r5
 80062fa:	61da      	str	r2, [r3, #28]
 80062fc:	e785      	b.n	800620a <HAL_TIM_PWM_ConfigChannel+0x4a>
 80062fe:	6803      	ldr	r3, [r0, #0]
 8006300:	68ae      	ldr	r6, [r5, #8]
 8006302:	6a18      	ldr	r0, [r3, #32]
 8006304:	682f      	ldr	r7, [r5, #0]
 8006306:	f420 5080 	bic.w	r0, r0, #4096	; 0x1000
 800630a:	493f      	ldr	r1, [pc, #252]	; (8006408 <HAL_TIM_PWM_ConfigChannel+0x248>)
 800630c:	6218      	str	r0, [r3, #32]
 800630e:	6a1a      	ldr	r2, [r3, #32]
 8006310:	6858      	ldr	r0, [r3, #4]
 8006312:	f422 5200 	bic.w	r2, r2, #8192	; 0x2000
 8006316:	f8d3 c01c 	ldr.w	ip, [r3, #28]
 800631a:	ea42 3206 	orr.w	r2, r2, r6, lsl #12
 800631e:	4e38      	ldr	r6, [pc, #224]	; (8006400 <HAL_TIM_PWM_ConfigChannel+0x240>)
 8006320:	ea0c 0101 	and.w	r1, ip, r1
 8006324:	42b3      	cmp	r3, r6
 8006326:	ea41 2107 	orr.w	r1, r1, r7, lsl #8
 800632a:	d00e      	beq.n	800634a <HAL_TIM_PWM_ConfigChannel+0x18a>
 800632c:	f506 6680 	add.w	r6, r6, #1024	; 0x400
 8006330:	42b3      	cmp	r3, r6
 8006332:	d00a      	beq.n	800634a <HAL_TIM_PWM_ConfigChannel+0x18a>
 8006334:	4f33      	ldr	r7, [pc, #204]	; (8006404 <HAL_TIM_PWM_ConfigChannel+0x244>)
 8006336:	f506 4680 	add.w	r6, r6, #16384	; 0x4000
 800633a:	42b3      	cmp	r3, r6
 800633c:	bf18      	it	ne
 800633e:	42bb      	cmpne	r3, r7
 8006340:	d003      	beq.n	800634a <HAL_TIM_PWM_ConfigChannel+0x18a>
 8006342:	f506 6680 	add.w	r6, r6, #1024	; 0x400
 8006346:	42b3      	cmp	r3, r6
 8006348:	d104      	bne.n	8006354 <HAL_TIM_PWM_ConfigChannel+0x194>
 800634a:	f420 4080 	bic.w	r0, r0, #16384	; 0x4000
 800634e:	696e      	ldr	r6, [r5, #20]
 8006350:	ea40 1086 	orr.w	r0, r0, r6, lsl #6
 8006354:	686e      	ldr	r6, [r5, #4]
 8006356:	6058      	str	r0, [r3, #4]
 8006358:	2000      	movs	r0, #0
 800635a:	61d9      	str	r1, [r3, #28]
 800635c:	641e      	str	r6, [r3, #64]	; 0x40
 800635e:	621a      	str	r2, [r3, #32]
 8006360:	69d9      	ldr	r1, [r3, #28]
 8006362:	692d      	ldr	r5, [r5, #16]
 8006364:	f441 6100 	orr.w	r1, r1, #2048	; 0x800
 8006368:	61d9      	str	r1, [r3, #28]
 800636a:	69d9      	ldr	r1, [r3, #28]
 800636c:	f421 6180 	bic.w	r1, r1, #1024	; 0x400
 8006370:	61d9      	str	r1, [r3, #28]
 8006372:	69da      	ldr	r2, [r3, #28]
 8006374:	ea42 2205 	orr.w	r2, r2, r5, lsl #8
 8006378:	61da      	str	r2, [r3, #28]
 800637a:	e746      	b.n	800620a <HAL_TIM_PWM_ConfigChannel+0x4a>
 800637c:	6803      	ldr	r3, [r0, #0]
 800637e:	68ae      	ldr	r6, [r5, #8]
 8006380:	6a18      	ldr	r0, [r3, #32]
 8006382:	682f      	ldr	r7, [r5, #0]
 8006384:	f420 3080 	bic.w	r0, r0, #65536	; 0x10000
 8006388:	4920      	ldr	r1, [pc, #128]	; (800640c <HAL_TIM_PWM_ConfigChannel+0x24c>)
 800638a:	6218      	str	r0, [r3, #32]
 800638c:	6a1a      	ldr	r2, [r3, #32]
 800638e:	6858      	ldr	r0, [r3, #4]
 8006390:	f422 3200 	bic.w	r2, r2, #131072	; 0x20000
 8006394:	f8d3 c054 	ldr.w	ip, [r3, #84]	; 0x54
 8006398:	ea42 4206 	orr.w	r2, r2, r6, lsl #16
 800639c:	4e18      	ldr	r6, [pc, #96]	; (8006400 <HAL_TIM_PWM_ConfigChannel+0x240>)
 800639e:	ea0c 0101 	and.w	r1, ip, r1
 80063a2:	42b3      	cmp	r3, r6
 80063a4:	ea41 0107 	orr.w	r1, r1, r7
 80063a8:	d00e      	beq.n	80063c8 <HAL_TIM_PWM_ConfigChannel+0x208>
 80063aa:	f506 6680 	add.w	r6, r6, #1024	; 0x400
 80063ae:	42b3      	cmp	r3, r6
 80063b0:	d00a      	beq.n	80063c8 <HAL_TIM_PWM_ConfigChannel+0x208>
 80063b2:	4f14      	ldr	r7, [pc, #80]	; (8006404 <HAL_TIM_PWM_ConfigChannel+0x244>)
 80063b4:	f506 4680 	add.w	r6, r6, #16384	; 0x4000
 80063b8:	42b3      	cmp	r3, r6
 80063ba:	bf18      	it	ne
 80063bc:	42bb      	cmpne	r3, r7
 80063be:	d003      	beq.n	80063c8 <HAL_TIM_PWM_ConfigChannel+0x208>
 80063c0:	f506 6680 	add.w	r6, r6, #1024	; 0x400
 80063c4:	42b3      	cmp	r3, r6
 80063c6:	d104      	bne.n	80063d2 <HAL_TIM_PWM_ConfigChannel+0x212>
 80063c8:	f420 3080 	bic.w	r0, r0, #65536	; 0x10000
 80063cc:	696e      	ldr	r6, [r5, #20]
 80063ce:	ea40 2006 	orr.w	r0, r0, r6, lsl #8
 80063d2:	686e      	ldr	r6, [r5, #4]
 80063d4:	6058      	str	r0, [r3, #4]
 80063d6:	2000      	movs	r0, #0
 80063d8:	6559      	str	r1, [r3, #84]	; 0x54
 80063da:	659e      	str	r6, [r3, #88]	; 0x58
 80063dc:	621a      	str	r2, [r3, #32]
 80063de:	6d59      	ldr	r1, [r3, #84]	; 0x54
 80063e0:	692d      	ldr	r5, [r5, #16]
 80063e2:	f041 0108 	orr.w	r1, r1, #8
 80063e6:	6559      	str	r1, [r3, #84]	; 0x54
 80063e8:	6d59      	ldr	r1, [r3, #84]	; 0x54
 80063ea:	f021 0104 	bic.w	r1, r1, #4
 80063ee:	6559      	str	r1, [r3, #84]	; 0x54
 80063f0:	6d5a      	ldr	r2, [r3, #84]	; 0x54
 80063f2:	432a      	orrs	r2, r5
 80063f4:	655a      	str	r2, [r3, #84]	; 0x54
 80063f6:	e708      	b.n	800620a <HAL_TIM_PWM_ConfigChannel+0x4a>
 80063f8:	2002      	movs	r0, #2
 80063fa:	bdf8      	pop	{r3, r4, r5, r6, r7, pc}
 80063fc:	feff8fff 	.word	0xfeff8fff
 8006400:	40010000 	.word	0x40010000
 8006404:	40014000 	.word	0x40014000
 8006408:	feff8cff 	.word	0xfeff8cff
 800640c:	fffeff8f 	.word	0xfffeff8f

08006410 <HAL_TIMEx_MasterConfigSynchronization>:
 8006410:	f890 303c 	ldrb.w	r3, [r0, #60]	; 0x3c
 8006414:	2b01      	cmp	r3, #1
 8006416:	d048      	beq.n	80064aa <HAL_TIMEx_MasterConfigSynchronization+0x9a>
 8006418:	4602      	mov	r2, r0
 800641a:	2002      	movs	r0, #2
 800641c:	6813      	ldr	r3, [r2, #0]
 800641e:	b4f0      	push	{r4, r5, r6, r7}
 8006420:	4d23      	ldr	r5, [pc, #140]	; (80064b0 <HAL_TIMEx_MasterConfigSynchronization+0xa0>)
 8006422:	f882 003d 	strb.w	r0, [r2, #61]	; 0x3d
 8006426:	42ab      	cmp	r3, r5
 8006428:	6858      	ldr	r0, [r3, #4]
 800642a:	689c      	ldr	r4, [r3, #8]
 800642c:	d026      	beq.n	800647c <HAL_TIMEx_MasterConfigSynchronization+0x6c>
 800642e:	f505 6580 	add.w	r5, r5, #1024	; 0x400
 8006432:	42ab      	cmp	r3, r5
 8006434:	d022      	beq.n	800647c <HAL_TIMEx_MasterConfigSynchronization+0x6c>
 8006436:	4d1f      	ldr	r5, [pc, #124]	; (80064b4 <HAL_TIMEx_MasterConfigSynchronization+0xa4>)
 8006438:	f020 0070 	bic.w	r0, r0, #112	; 0x70
 800643c:	680e      	ldr	r6, [r1, #0]
 800643e:	42ab      	cmp	r3, r5
 8006440:	bf18      	it	ne
 8006442:	f1b3 4f80 	cmpne.w	r3, #1073741824	; 0x40000000
 8006446:	4f1c      	ldr	r7, [pc, #112]	; (80064b8 <HAL_TIMEx_MasterConfigSynchronization+0xa8>)
 8006448:	ea40 0006 	orr.w	r0, r0, r6
 800644c:	4e1b      	ldr	r6, [pc, #108]	; (80064bc <HAL_TIMEx_MasterConfigSynchronization+0xac>)
 800644e:	bf0c      	ite	eq
 8006450:	2501      	moveq	r5, #1
 8006452:	2500      	movne	r5, #0
 8006454:	6058      	str	r0, [r3, #4]
 8006456:	42bb      	cmp	r3, r7
 8006458:	bf08      	it	eq
 800645a:	f045 0501 	orreq.w	r5, r5, #1
 800645e:	42b3      	cmp	r3, r6
 8006460:	bf14      	ite	ne
 8006462:	4628      	movne	r0, r5
 8006464:	f045 0001 	orreq.w	r0, r5, #1
 8006468:	4d15      	ldr	r5, [pc, #84]	; (80064c0 <HAL_TIMEx_MasterConfigSynchronization+0xb0>)
 800646a:	42ab      	cmp	r3, r5
 800646c:	bf08      	it	eq
 800646e:	f040 0001 	orreq.w	r0, r0, #1
 8006472:	b960      	cbnz	r0, 800648e <HAL_TIMEx_MasterConfigSynchronization+0x7e>
 8006474:	4813      	ldr	r0, [pc, #76]	; (80064c4 <HAL_TIMEx_MasterConfigSynchronization+0xb4>)
 8006476:	4283      	cmp	r3, r0
 8006478:	d009      	beq.n	800648e <HAL_TIMEx_MasterConfigSynchronization+0x7e>
 800647a:	e00d      	b.n	8006498 <HAL_TIMEx_MasterConfigSynchronization+0x88>
 800647c:	e9d1 5600 	ldrd	r5, r6, [r1]
 8006480:	f420 0070 	bic.w	r0, r0, #15728640	; 0xf00000
 8006484:	4330      	orrs	r0, r6
 8006486:	f020 0070 	bic.w	r0, r0, #112	; 0x70
 800648a:	4328      	orrs	r0, r5
 800648c:	6058      	str	r0, [r3, #4]
 800648e:	6889      	ldr	r1, [r1, #8]
 8006490:	f024 0480 	bic.w	r4, r4, #128	; 0x80
 8006494:	430c      	orrs	r4, r1
 8006496:	609c      	str	r4, [r3, #8]
 8006498:	2300      	movs	r3, #0
 800649a:	2101      	movs	r1, #1
 800649c:	4618      	mov	r0, r3
 800649e:	f882 103d 	strb.w	r1, [r2, #61]	; 0x3d
 80064a2:	f882 303c 	strb.w	r3, [r2, #60]	; 0x3c
 80064a6:	bcf0      	pop	{r4, r5, r6, r7}
 80064a8:	4770      	bx	lr
 80064aa:	2002      	movs	r0, #2
 80064ac:	4770      	bx	lr
 80064ae:	bf00      	nop
 80064b0:	40010000 	.word	0x40010000
 80064b4:	40000400 	.word	0x40000400
 80064b8:	40000800 	.word	0x40000800
 80064bc:	40000c00 	.word	0x40000c00
 80064c0:	40001800 	.word	0x40001800
 80064c4:	40014000 	.word	0x40014000

080064c8 <HAL_TIMEx_CommutCallback>:
 80064c8:	4770      	bx	lr
 80064ca:	bf00      	nop

080064cc <HAL_TIMEx_BreakCallback>:
 80064cc:	4770      	bx	lr
 80064ce:	bf00      	nop

080064d0 <HAL_TIMEx_Break2Callback>:
 80064d0:	4770      	bx	lr
 80064d2:	bf00      	nop

080064d4 <HAL_UART_Transmit_DMA>:
 80064d4:	b5f8      	push	{r3, r4, r5, r6, r7, lr}
 80064d6:	f8d0 7084 	ldr.w	r7, [r0, #132]	; 0x84
 80064da:	2f20      	cmp	r7, #32
 80064dc:	d141      	bne.n	8006562 <HAL_UART_Transmit_DMA+0x8e>
 80064de:	2900      	cmp	r1, #0
 80064e0:	d03d      	beq.n	800655e <HAL_UART_Transmit_DMA+0x8a>
 80064e2:	fab2 f682 	clz	r6, r2
 80064e6:	0976      	lsrs	r6, r6, #5
 80064e8:	2a00      	cmp	r2, #0
 80064ea:	d038      	beq.n	800655e <HAL_UART_Transmit_DMA+0x8a>
 80064ec:	4604      	mov	r4, r0
 80064ee:	f890 0080 	ldrb.w	r0, [r0, #128]	; 0x80
 80064f2:	2801      	cmp	r0, #1
 80064f4:	d035      	beq.n	8006562 <HAL_UART_Transmit_DMA+0x8e>
 80064f6:	2501      	movs	r5, #1
 80064f8:	f04f 0c21 	mov.w	ip, #33	; 0x21
 80064fc:	6fa0      	ldr	r0, [r4, #120]	; 0x78
 80064fe:	f8a4 2056 	strh.w	r2, [r4, #86]	; 0x56
 8006502:	6521      	str	r1, [r4, #80]	; 0x50
 8006504:	f8c4 608c 	str.w	r6, [r4, #140]	; 0x8c
 8006508:	f8a4 2054 	strh.w	r2, [r4, #84]	; 0x54
 800650c:	f884 5080 	strb.w	r5, [r4, #128]	; 0x80
 8006510:	f8c4 c084 	str.w	ip, [r4, #132]	; 0x84
 8006514:	b178      	cbz	r0, 8006536 <HAL_UART_Transmit_DMA+0x62>
 8006516:	f8df c064 	ldr.w	ip, [pc, #100]	; 800657c <HAL_UART_Transmit_DMA+0xa8>
 800651a:	4613      	mov	r3, r2
 800651c:	4a16      	ldr	r2, [pc, #88]	; (8006578 <HAL_UART_Transmit_DMA+0xa4>)
 800651e:	6506      	str	r6, [r0, #80]	; 0x50
 8006520:	e9c0 c20f 	strd	ip, r2, [r0, #60]	; 0x3c
 8006524:	6822      	ldr	r2, [r4, #0]
 8006526:	f8df c058 	ldr.w	ip, [pc, #88]	; 8006580 <HAL_UART_Transmit_DMA+0xac>
 800652a:	3228      	adds	r2, #40	; 0x28
 800652c:	f8c0 c04c 	str.w	ip, [r0, #76]	; 0x4c
 8006530:	f7fb fafe 	bl	8001b30 <HAL_DMA_Start_IT>
 8006534:	b9b8      	cbnz	r0, 8006566 <HAL_UART_Transmit_DMA+0x92>
 8006536:	6822      	ldr	r2, [r4, #0]
 8006538:	2140      	movs	r1, #64	; 0x40
 800653a:	2300      	movs	r3, #0
 800653c:	6211      	str	r1, [r2, #32]
 800653e:	f884 3080 	strb.w	r3, [r4, #128]	; 0x80
 8006542:	f102 0308 	add.w	r3, r2, #8
 8006546:	e853 3f00 	ldrex	r3, [r3]
 800654a:	f043 0380 	orr.w	r3, r3, #128	; 0x80
 800654e:	f102 0008 	add.w	r0, r2, #8
 8006552:	e840 3100 	strex	r1, r3, [r0]
 8006556:	2900      	cmp	r1, #0
 8006558:	d1f3      	bne.n	8006542 <HAL_UART_Transmit_DMA+0x6e>
 800655a:	2000      	movs	r0, #0
 800655c:	bdf8      	pop	{r3, r4, r5, r6, r7, pc}
 800655e:	2001      	movs	r0, #1
 8006560:	bdf8      	pop	{r3, r4, r5, r6, r7, pc}
 8006562:	2002      	movs	r0, #2
 8006564:	bdf8      	pop	{r3, r4, r5, r6, r7, pc}
 8006566:	2310      	movs	r3, #16
 8006568:	4628      	mov	r0, r5
 800656a:	f884 6080 	strb.w	r6, [r4, #128]	; 0x80
 800656e:	f8c4 308c 	str.w	r3, [r4, #140]	; 0x8c
 8006572:	f8c4 7084 	str.w	r7, [r4, #132]	; 0x84
 8006576:	bdf8      	pop	{r3, r4, r5, r6, r7, pc}
 8006578:	080065cd 	.word	0x080065cd
 800657c:	08006585 	.word	0x08006585
 8006580:	080065e1 	.word	0x080065e1

08006584 <UART_DMATransmitCplt>:
 8006584:	b508      	push	{r3, lr}
 8006586:	69c3      	ldr	r3, [r0, #28]
 8006588:	6b80      	ldr	r0, [r0, #56]	; 0x38
 800658a:	f5b3 7f80 	cmp.w	r3, #256	; 0x100
 800658e:	d018      	beq.n	80065c2 <UART_DMATransmitCplt+0x3e>
 8006590:	2300      	movs	r3, #0
 8006592:	6802      	ldr	r2, [r0, #0]
 8006594:	f8a0 3056 	strh.w	r3, [r0, #86]	; 0x56
 8006598:	f102 0308 	add.w	r3, r2, #8
 800659c:	e853 3f00 	ldrex	r3, [r3]
 80065a0:	f023 0380 	bic.w	r3, r3, #128	; 0x80
 80065a4:	f102 0008 	add.w	r0, r2, #8
 80065a8:	e840 3100 	strex	r1, r3, [r0]
 80065ac:	2900      	cmp	r1, #0
 80065ae:	d1f3      	bne.n	8006598 <UART_DMATransmitCplt+0x14>
 80065b0:	e852 3f00 	ldrex	r3, [r2]
 80065b4:	f043 0340 	orr.w	r3, r3, #64	; 0x40
 80065b8:	e842 3100 	strex	r1, r3, [r2]
 80065bc:	2900      	cmp	r1, #0
 80065be:	d1f7      	bne.n	80065b0 <UART_DMATransmitCplt+0x2c>
 80065c0:	bd08      	pop	{r3, pc}
 80065c2:	f005 f8ad 	bl	800b720 <HAL_UART_TxCpltCallback>
 80065c6:	bd08      	pop	{r3, pc}

080065c8 <HAL_UART_TxHalfCpltCallback>:
 80065c8:	4770      	bx	lr
 80065ca:	bf00      	nop

080065cc <UART_DMATxHalfCplt>:
 80065cc:	6b80      	ldr	r0, [r0, #56]	; 0x38
 80065ce:	b508      	push	{r3, lr}
 80065d0:	f7ff fffa 	bl	80065c8 <HAL_UART_TxHalfCpltCallback>
 80065d4:	bd08      	pop	{r3, pc}
 80065d6:	bf00      	nop

080065d8 <HAL_UART_RxHalfCpltCallback>:
 80065d8:	4770      	bx	lr
 80065da:	bf00      	nop

080065dc <HAL_UART_ErrorCallback>:
 80065dc:	4770      	bx	lr
 80065de:	bf00      	nop

080065e0 <UART_DMAError>:
 80065e0:	6b80      	ldr	r0, [r0, #56]	; 0x38
 80065e2:	6803      	ldr	r3, [r0, #0]
 80065e4:	f8d0 1084 	ldr.w	r1, [r0, #132]	; 0x84
 80065e8:	b510      	push	{r4, lr}
 80065ea:	f8d0 4088 	ldr.w	r4, [r0, #136]	; 0x88
 80065ee:	689a      	ldr	r2, [r3, #8]
 80065f0:	0612      	lsls	r2, r2, #24
 80065f2:	d501      	bpl.n	80065f8 <UART_DMAError+0x18>
 80065f4:	2921      	cmp	r1, #33	; 0x21
 80065f6:	d00d      	beq.n	8006614 <UART_DMAError+0x34>
 80065f8:	689a      	ldr	r2, [r3, #8]
 80065fa:	0652      	lsls	r2, r2, #25
 80065fc:	d501      	bpl.n	8006602 <UART_DMAError+0x22>
 80065fe:	2c22      	cmp	r4, #34	; 0x22
 8006600:	d023      	beq.n	800664a <UART_DMAError+0x6a>
 8006602:	f8d0 308c 	ldr.w	r3, [r0, #140]	; 0x8c
 8006606:	f043 0310 	orr.w	r3, r3, #16
 800660a:	f8c0 308c 	str.w	r3, [r0, #140]	; 0x8c
 800660e:	f7ff ffe5 	bl	80065dc <HAL_UART_ErrorCallback>
 8006612:	bd10      	pop	{r4, pc}
 8006614:	2200      	movs	r2, #0
 8006616:	f8a0 2056 	strh.w	r2, [r0, #86]	; 0x56
 800661a:	e853 2f00 	ldrex	r2, [r3]
 800661e:	f022 02c0 	bic.w	r2, r2, #192	; 0xc0
 8006622:	e843 2100 	strex	r1, r2, [r3]
 8006626:	2900      	cmp	r1, #0
 8006628:	d1f7      	bne.n	800661a <UART_DMAError+0x3a>
 800662a:	f103 0208 	add.w	r2, r3, #8
 800662e:	e852 2f00 	ldrex	r2, [r2]
 8006632:	f422 0200 	bic.w	r2, r2, #8388608	; 0x800000
 8006636:	f103 0c08 	add.w	ip, r3, #8
 800663a:	e84c 2100 	strex	r1, r2, [ip]
 800663e:	2900      	cmp	r1, #0
 8006640:	d1f3      	bne.n	800662a <UART_DMAError+0x4a>
 8006642:	2220      	movs	r2, #32
 8006644:	f8c0 2084 	str.w	r2, [r0, #132]	; 0x84
 8006648:	e7d6      	b.n	80065f8 <UART_DMAError+0x18>
 800664a:	2200      	movs	r2, #0
 800664c:	f8a0 205e 	strh.w	r2, [r0, #94]	; 0x5e
 8006650:	e853 2f00 	ldrex	r2, [r3]
 8006654:	f422 7290 	bic.w	r2, r2, #288	; 0x120
 8006658:	e843 2100 	strex	r1, r2, [r3]
 800665c:	2900      	cmp	r1, #0
 800665e:	d1f7      	bne.n	8006650 <UART_DMAError+0x70>
 8006660:	4c13      	ldr	r4, [pc, #76]	; (80066b0 <UART_DMAError+0xd0>)
 8006662:	f103 0208 	add.w	r2, r3, #8
 8006666:	e852 2f00 	ldrex	r2, [r2]
 800666a:	4022      	ands	r2, r4
 800666c:	f103 0c08 	add.w	ip, r3, #8
 8006670:	e84c 2100 	strex	r1, r2, [ip]
 8006674:	2900      	cmp	r1, #0
 8006676:	d1f4      	bne.n	8006662 <UART_DMAError+0x82>
 8006678:	6ec2      	ldr	r2, [r0, #108]	; 0x6c
 800667a:	2a01      	cmp	r2, #1
 800667c:	d006      	beq.n	800668c <UART_DMAError+0xac>
 800667e:	2300      	movs	r3, #0
 8006680:	2220      	movs	r2, #32
 8006682:	6703      	str	r3, [r0, #112]	; 0x70
 8006684:	f8c0 2088 	str.w	r2, [r0, #136]	; 0x88
 8006688:	66c3      	str	r3, [r0, #108]	; 0x6c
 800668a:	e7ba      	b.n	8006602 <UART_DMAError+0x22>
 800668c:	e853 2f00 	ldrex	r2, [r3]
 8006690:	f022 0210 	bic.w	r2, r2, #16
 8006694:	e843 2100 	strex	r1, r2, [r3]
 8006698:	2900      	cmp	r1, #0
 800669a:	d0f0      	beq.n	800667e <UART_DMAError+0x9e>
 800669c:	e853 2f00 	ldrex	r2, [r3]
 80066a0:	f022 0210 	bic.w	r2, r2, #16
 80066a4:	e843 2100 	strex	r1, r2, [r3]
 80066a8:	2900      	cmp	r1, #0
 80066aa:	d1ef      	bne.n	800668c <UART_DMAError+0xac>
 80066ac:	e7e7      	b.n	800667e <UART_DMAError+0x9e>
 80066ae:	bf00      	nop
 80066b0:	effffffe 	.word	0xeffffffe

080066b4 <UART_DMAAbortOnError>:
 80066b4:	b508      	push	{r3, lr}
 80066b6:	6b80      	ldr	r0, [r0, #56]	; 0x38
 80066b8:	2300      	movs	r3, #0
 80066ba:	f8a0 305e 	strh.w	r3, [r0, #94]	; 0x5e
 80066be:	f8a0 3056 	strh.w	r3, [r0, #86]	; 0x56
 80066c2:	f7ff ff8b 	bl	80065dc <HAL_UART_ErrorCallback>
 80066c6:	bd08      	pop	{r3, pc}

080066c8 <HAL_UARTEx_RxEventCallback>:
 80066c8:	4770      	bx	lr
 80066ca:	bf00      	nop

080066cc <HAL_UART_IRQHandler>:
 80066cc:	6803      	ldr	r3, [r0, #0]
 80066ce:	e92d 41f0 	stmdb	sp!, {r4, r5, r6, r7, r8, lr}
 80066d2:	69da      	ldr	r2, [r3, #28]
 80066d4:	f640 060f 	movw	r6, #2063	; 0x80f
 80066d8:	681d      	ldr	r5, [r3, #0]
 80066da:	4604      	mov	r4, r0
 80066dc:	4232      	tst	r2, r6
 80066de:	6899      	ldr	r1, [r3, #8]
 80066e0:	f000 811b 	beq.w	800691a <HAL_UART_IRQHandler+0x24e>
 80066e4:	48b2      	ldr	r0, [pc, #712]	; (80069b0 <HAL_UART_IRQHandler+0x2e4>)
 80066e6:	4eb3      	ldr	r6, [pc, #716]	; (80069b4 <HAL_UART_IRQHandler+0x2e8>)
 80066e8:	4008      	ands	r0, r1
 80066ea:	402e      	ands	r6, r5
 80066ec:	4306      	orrs	r6, r0
 80066ee:	f040 8087 	bne.w	8006800 <HAL_UART_IRQHandler+0x134>
 80066f2:	6ee0      	ldr	r0, [r4, #108]	; 0x6c
 80066f4:	2801      	cmp	r0, #1
 80066f6:	d023      	beq.n	8006740 <HAL_UART_IRQHandler+0x74>
 80066f8:	02d7      	lsls	r7, r2, #11
 80066fa:	d502      	bpl.n	8006702 <HAL_UART_IRQHandler+0x36>
 80066fc:	024e      	lsls	r6, r1, #9
 80066fe:	f100 8134 	bmi.w	800696a <HAL_UART_IRQHandler+0x29e>
 8006702:	0610      	lsls	r0, r2, #24
 8006704:	d506      	bpl.n	8006714 <HAL_UART_IRQHandler+0x48>
 8006706:	f401 0100 	and.w	r1, r1, #8388608	; 0x800000
 800670a:	f005 0080 	and.w	r0, r5, #128	; 0x80
 800670e:	4301      	orrs	r1, r0
 8006710:	f040 8123 	bne.w	800695a <HAL_UART_IRQHandler+0x28e>
 8006714:	0657      	lsls	r7, r2, #25
 8006716:	d565      	bpl.n	80067e4 <HAL_UART_IRQHandler+0x118>
 8006718:	066e      	lsls	r6, r5, #25
 800671a:	d563      	bpl.n	80067e4 <HAL_UART_IRQHandler+0x118>
 800671c:	e853 2f00 	ldrex	r2, [r3]
 8006720:	f022 0240 	bic.w	r2, r2, #64	; 0x40
 8006724:	e843 2100 	strex	r1, r2, [r3]
 8006728:	2900      	cmp	r1, #0
 800672a:	d1f7      	bne.n	800671c <HAL_UART_IRQHandler+0x50>
 800672c:	2220      	movs	r2, #32
 800672e:	2300      	movs	r3, #0
 8006730:	4620      	mov	r0, r4
 8006732:	f8c4 2084 	str.w	r2, [r4, #132]	; 0x84
 8006736:	6763      	str	r3, [r4, #116]	; 0x74
 8006738:	f004 fff2 	bl	800b720 <HAL_UART_TxCpltCallback>
 800673c:	e8bd 81f0 	ldmia.w	sp!, {r4, r5, r6, r7, r8, pc}
 8006740:	06d6      	lsls	r6, r2, #27
 8006742:	d5d9      	bpl.n	80066f8 <HAL_UART_IRQHandler+0x2c>
 8006744:	06e8      	lsls	r0, r5, #27
 8006746:	d5d7      	bpl.n	80066f8 <HAL_UART_IRQHandler+0x2c>
 8006748:	2210      	movs	r2, #16
 800674a:	621a      	str	r2, [r3, #32]
 800674c:	689a      	ldr	r2, [r3, #8]
 800674e:	0652      	lsls	r2, r2, #25
 8006750:	f140 8136 	bpl.w	80069c0 <HAL_UART_IRQHandler+0x2f4>
 8006754:	6fe0      	ldr	r0, [r4, #124]	; 0x7c
 8006756:	6801      	ldr	r1, [r0, #0]
 8006758:	684a      	ldr	r2, [r1, #4]
 800675a:	b292      	uxth	r2, r2
 800675c:	2a00      	cmp	r2, #0
 800675e:	d0ed      	beq.n	800673c <HAL_UART_IRQHandler+0x70>
 8006760:	f8b4 105c 	ldrh.w	r1, [r4, #92]	; 0x5c
 8006764:	4291      	cmp	r1, r2
 8006766:	d9e9      	bls.n	800673c <HAL_UART_IRQHandler+0x70>
 8006768:	69c5      	ldr	r5, [r0, #28]
 800676a:	f8a4 205e 	strh.w	r2, [r4, #94]	; 0x5e
 800676e:	f5b5 7f80 	cmp.w	r5, #256	; 0x100
 8006772:	d02f      	beq.n	80067d4 <HAL_UART_IRQHandler+0x108>
 8006774:	e853 2f00 	ldrex	r2, [r3]
 8006778:	f422 7280 	bic.w	r2, r2, #256	; 0x100
 800677c:	e843 2100 	strex	r1, r2, [r3]
 8006780:	2900      	cmp	r1, #0
 8006782:	d1f7      	bne.n	8006774 <HAL_UART_IRQHandler+0xa8>
 8006784:	f103 0208 	add.w	r2, r3, #8
 8006788:	e852 2f00 	ldrex	r2, [r2]
 800678c:	f022 0201 	bic.w	r2, r2, #1
 8006790:	f103 0508 	add.w	r5, r3, #8
 8006794:	e845 2100 	strex	r1, r2, [r5]
 8006798:	2900      	cmp	r1, #0
 800679a:	d1f3      	bne.n	8006784 <HAL_UART_IRQHandler+0xb8>
 800679c:	f103 0208 	add.w	r2, r3, #8
 80067a0:	e852 2f00 	ldrex	r2, [r2]
 80067a4:	f022 0240 	bic.w	r2, r2, #64	; 0x40
 80067a8:	f103 0508 	add.w	r5, r3, #8
 80067ac:	e845 2100 	strex	r1, r2, [r5]
 80067b0:	2900      	cmp	r1, #0
 80067b2:	d1f3      	bne.n	800679c <HAL_UART_IRQHandler+0xd0>
 80067b4:	2220      	movs	r2, #32
 80067b6:	f8c4 2088 	str.w	r2, [r4, #136]	; 0x88
 80067ba:	66e1      	str	r1, [r4, #108]	; 0x6c
 80067bc:	e853 2f00 	ldrex	r2, [r3]
 80067c0:	f022 0210 	bic.w	r2, r2, #16
 80067c4:	e843 2100 	strex	r1, r2, [r3]
 80067c8:	2900      	cmp	r1, #0
 80067ca:	d1f7      	bne.n	80067bc <HAL_UART_IRQHandler+0xf0>
 80067cc:	f7fb fb5a 	bl	8001e84 <HAL_DMA_Abort>
 80067d0:	f8b4 105c 	ldrh.w	r1, [r4, #92]	; 0x5c
 80067d4:	f8b4 305e 	ldrh.w	r3, [r4, #94]	; 0x5e
 80067d8:	4620      	mov	r0, r4
 80067da:	1ac9      	subs	r1, r1, r3
 80067dc:	b289      	uxth	r1, r1
 80067de:	f7ff ff73 	bl	80066c8 <HAL_UARTEx_RxEventCallback>
 80067e2:	e7ab      	b.n	800673c <HAL_UART_IRQHandler+0x70>
 80067e4:	0210      	lsls	r0, r2, #8
 80067e6:	d502      	bpl.n	80067ee <HAL_UART_IRQHandler+0x122>
 80067e8:	0069      	lsls	r1, r5, #1
 80067ea:	f100 80db 	bmi.w	80069a4 <HAL_UART_IRQHandler+0x2d8>
 80067ee:	01d3      	lsls	r3, r2, #7
 80067f0:	d5a4      	bpl.n	800673c <HAL_UART_IRQHandler+0x70>
 80067f2:	2d00      	cmp	r5, #0
 80067f4:	daa2      	bge.n	800673c <HAL_UART_IRQHandler+0x70>
 80067f6:	4620      	mov	r0, r4
 80067f8:	e8bd 41f0 	ldmia.w	sp!, {r4, r5, r6, r7, r8, lr}
 80067fc:	f000 bdd8 	b.w	80073b0 <HAL_UARTEx_RxFifoFullCallback>
 8006800:	07d6      	lsls	r6, r2, #31
 8006802:	d509      	bpl.n	8006818 <HAL_UART_IRQHandler+0x14c>
 8006804:	05ef      	lsls	r7, r5, #23
 8006806:	d507      	bpl.n	8006818 <HAL_UART_IRQHandler+0x14c>
 8006808:	2601      	movs	r6, #1
 800680a:	621e      	str	r6, [r3, #32]
 800680c:	f8d4 608c 	ldr.w	r6, [r4, #140]	; 0x8c
 8006810:	f046 0601 	orr.w	r6, r6, #1
 8006814:	f8c4 608c 	str.w	r6, [r4, #140]	; 0x8c
 8006818:	0796      	lsls	r6, r2, #30
 800681a:	f140 808f 	bpl.w	800693c <HAL_UART_IRQHandler+0x270>
 800681e:	07cf      	lsls	r7, r1, #31
 8006820:	d50a      	bpl.n	8006838 <HAL_UART_IRQHandler+0x16c>
 8006822:	2602      	movs	r6, #2
 8006824:	621e      	str	r6, [r3, #32]
 8006826:	f8d4 608c 	ldr.w	r6, [r4, #140]	; 0x8c
 800682a:	f046 0604 	orr.w	r6, r6, #4
 800682e:	f8c4 608c 	str.w	r6, [r4, #140]	; 0x8c
 8006832:	0756      	lsls	r6, r2, #29
 8006834:	f100 8088 	bmi.w	8006948 <HAL_UART_IRQHandler+0x27c>
 8006838:	0717      	lsls	r7, r2, #28
 800683a:	d50b      	bpl.n	8006854 <HAL_UART_IRQHandler+0x188>
 800683c:	f005 0620 	and.w	r6, r5, #32
 8006840:	4330      	orrs	r0, r6
 8006842:	d007      	beq.n	8006854 <HAL_UART_IRQHandler+0x188>
 8006844:	2008      	movs	r0, #8
 8006846:	6218      	str	r0, [r3, #32]
 8006848:	f8d4 008c 	ldr.w	r0, [r4, #140]	; 0x8c
 800684c:	f040 0008 	orr.w	r0, r0, #8
 8006850:	f8c4 008c 	str.w	r0, [r4, #140]	; 0x8c
 8006854:	0516      	lsls	r6, r2, #20
 8006856:	d50a      	bpl.n	800686e <HAL_UART_IRQHandler+0x1a2>
 8006858:	0168      	lsls	r0, r5, #5
 800685a:	d508      	bpl.n	800686e <HAL_UART_IRQHandler+0x1a2>
 800685c:	f44f 6000 	mov.w	r0, #2048	; 0x800
 8006860:	6218      	str	r0, [r3, #32]
 8006862:	f8d4 008c 	ldr.w	r0, [r4, #140]	; 0x8c
 8006866:	f040 0020 	orr.w	r0, r0, #32
 800686a:	f8c4 008c 	str.w	r0, [r4, #140]	; 0x8c
 800686e:	f8d4 008c 	ldr.w	r0, [r4, #140]	; 0x8c
 8006872:	2800      	cmp	r0, #0
 8006874:	f43f af62 	beq.w	800673c <HAL_UART_IRQHandler+0x70>
 8006878:	0692      	lsls	r2, r2, #26
 800687a:	d50b      	bpl.n	8006894 <HAL_UART_IRQHandler+0x1c8>
 800687c:	f005 0520 	and.w	r5, r5, #32
 8006880:	f001 5180 	and.w	r1, r1, #268435456	; 0x10000000
 8006884:	ea55 0201 	orrs.w	r2, r5, r1
 8006888:	d004      	beq.n	8006894 <HAL_UART_IRQHandler+0x1c8>
 800688a:	6f22      	ldr	r2, [r4, #112]	; 0x70
 800688c:	b112      	cbz	r2, 8006894 <HAL_UART_IRQHandler+0x1c8>
 800688e:	4620      	mov	r0, r4
 8006890:	4790      	blx	r2
 8006892:	6823      	ldr	r3, [r4, #0]
 8006894:	f8d4 508c 	ldr.w	r5, [r4, #140]	; 0x8c
 8006898:	689a      	ldr	r2, [r3, #8]
 800689a:	f005 0528 	and.w	r5, r5, #40	; 0x28
 800689e:	f002 0240 	and.w	r2, r2, #64	; 0x40
 80068a2:	4315      	orrs	r5, r2
 80068a4:	f000 80c0 	beq.w	8006a28 <HAL_UART_IRQHandler+0x35c>
 80068a8:	e853 2f00 	ldrex	r2, [r3]
 80068ac:	f422 7290 	bic.w	r2, r2, #288	; 0x120
 80068b0:	e843 2100 	strex	r1, r2, [r3]
 80068b4:	2900      	cmp	r1, #0
 80068b6:	d1f7      	bne.n	80068a8 <HAL_UART_IRQHandler+0x1dc>
 80068b8:	483f      	ldr	r0, [pc, #252]	; (80069b8 <HAL_UART_IRQHandler+0x2ec>)
 80068ba:	f103 0208 	add.w	r2, r3, #8
 80068be:	e852 2f00 	ldrex	r2, [r2]
 80068c2:	4002      	ands	r2, r0
 80068c4:	f103 0508 	add.w	r5, r3, #8
 80068c8:	e845 2100 	strex	r1, r2, [r5]
 80068cc:	2900      	cmp	r1, #0
 80068ce:	d1f4      	bne.n	80068ba <HAL_UART_IRQHandler+0x1ee>
 80068d0:	6ee2      	ldr	r2, [r4, #108]	; 0x6c
 80068d2:	2a01      	cmp	r2, #1
 80068d4:	d051      	beq.n	800697a <HAL_UART_IRQHandler+0x2ae>
 80068d6:	2120      	movs	r1, #32
 80068d8:	2200      	movs	r2, #0
 80068da:	f8c4 1088 	str.w	r1, [r4, #136]	; 0x88
 80068de:	66e2      	str	r2, [r4, #108]	; 0x6c
 80068e0:	6899      	ldr	r1, [r3, #8]
 80068e2:	6722      	str	r2, [r4, #112]	; 0x70
 80068e4:	064f      	lsls	r7, r1, #25
 80068e6:	d559      	bpl.n	800699c <HAL_UART_IRQHandler+0x2d0>
 80068e8:	f103 0208 	add.w	r2, r3, #8
 80068ec:	e852 2f00 	ldrex	r2, [r2]
 80068f0:	f022 0240 	bic.w	r2, r2, #64	; 0x40
 80068f4:	f103 0008 	add.w	r0, r3, #8
 80068f8:	e840 2100 	strex	r1, r2, [r0]
 80068fc:	2900      	cmp	r1, #0
 80068fe:	d1f3      	bne.n	80068e8 <HAL_UART_IRQHandler+0x21c>
 8006900:	6fe0      	ldr	r0, [r4, #124]	; 0x7c
 8006902:	2800      	cmp	r0, #0
 8006904:	d04a      	beq.n	800699c <HAL_UART_IRQHandler+0x2d0>
 8006906:	4b2d      	ldr	r3, [pc, #180]	; (80069bc <HAL_UART_IRQHandler+0x2f0>)
 8006908:	6503      	str	r3, [r0, #80]	; 0x50
 800690a:	f7fb fc3b 	bl	8002184 <HAL_DMA_Abort_IT>
 800690e:	2800      	cmp	r0, #0
 8006910:	f43f af14 	beq.w	800673c <HAL_UART_IRQHandler+0x70>
 8006914:	6fe0      	ldr	r0, [r4, #124]	; 0x7c
 8006916:	6d03      	ldr	r3, [r0, #80]	; 0x50
 8006918:	e00d      	b.n	8006936 <HAL_UART_IRQHandler+0x26a>
 800691a:	0697      	lsls	r7, r2, #26
 800691c:	f57f aee9 	bpl.w	80066f2 <HAL_UART_IRQHandler+0x26>
 8006920:	f005 0620 	and.w	r6, r5, #32
 8006924:	f001 5780 	and.w	r7, r1, #268435456	; 0x10000000
 8006928:	433e      	orrs	r6, r7
 800692a:	f43f aee2 	beq.w	80066f2 <HAL_UART_IRQHandler+0x26>
 800692e:	6f03      	ldr	r3, [r0, #112]	; 0x70
 8006930:	2b00      	cmp	r3, #0
 8006932:	f43f af03 	beq.w	800673c <HAL_UART_IRQHandler+0x70>
 8006936:	e8bd 41f0 	ldmia.w	sp!, {r4, r5, r6, r7, r8, lr}
 800693a:	4718      	bx	r3
 800693c:	0757      	lsls	r7, r2, #29
 800693e:	f57f af7b 	bpl.w	8006838 <HAL_UART_IRQHandler+0x16c>
 8006942:	07ce      	lsls	r6, r1, #31
 8006944:	f57f af78 	bpl.w	8006838 <HAL_UART_IRQHandler+0x16c>
 8006948:	2604      	movs	r6, #4
 800694a:	621e      	str	r6, [r3, #32]
 800694c:	f8d4 608c 	ldr.w	r6, [r4, #140]	; 0x8c
 8006950:	f046 0602 	orr.w	r6, r6, #2
 8006954:	f8c4 608c 	str.w	r6, [r4, #140]	; 0x8c
 8006958:	e76e      	b.n	8006838 <HAL_UART_IRQHandler+0x16c>
 800695a:	6f63      	ldr	r3, [r4, #116]	; 0x74
 800695c:	2b00      	cmp	r3, #0
 800695e:	f43f aeed 	beq.w	800673c <HAL_UART_IRQHandler+0x70>
 8006962:	4620      	mov	r0, r4
 8006964:	e8bd 41f0 	ldmia.w	sp!, {r4, r5, r6, r7, r8, lr}
 8006968:	4718      	bx	r3
 800696a:	f44f 1280 	mov.w	r2, #1048576	; 0x100000
 800696e:	4620      	mov	r0, r4
 8006970:	621a      	str	r2, [r3, #32]
 8006972:	e8bd 41f0 	ldmia.w	sp!, {r4, r5, r6, r7, r8, lr}
 8006976:	f000 bd19 	b.w	80073ac <HAL_UARTEx_WakeupCallback>
 800697a:	e853 2f00 	ldrex	r2, [r3]
 800697e:	f022 0210 	bic.w	r2, r2, #16
 8006982:	e843 2100 	strex	r1, r2, [r3]
 8006986:	2900      	cmp	r1, #0
 8006988:	d0a5      	beq.n	80068d6 <HAL_UART_IRQHandler+0x20a>
 800698a:	e853 2f00 	ldrex	r2, [r3]
 800698e:	f022 0210 	bic.w	r2, r2, #16
 8006992:	e843 2100 	strex	r1, r2, [r3]
 8006996:	2900      	cmp	r1, #0
 8006998:	d1ef      	bne.n	800697a <HAL_UART_IRQHandler+0x2ae>
 800699a:	e79c      	b.n	80068d6 <HAL_UART_IRQHandler+0x20a>
 800699c:	4620      	mov	r0, r4
 800699e:	f7ff fe1d 	bl	80065dc <HAL_UART_ErrorCallback>
 80069a2:	e6cb      	b.n	800673c <HAL_UART_IRQHandler+0x70>
 80069a4:	4620      	mov	r0, r4
 80069a6:	e8bd 41f0 	ldmia.w	sp!, {r4, r5, r6, r7, r8, lr}
 80069aa:	f000 bd03 	b.w	80073b4 <HAL_UARTEx_TxFifoEmptyCallback>
 80069ae:	bf00      	nop
 80069b0:	10000001 	.word	0x10000001
 80069b4:	04000120 	.word	0x04000120
 80069b8:	effffffe 	.word	0xeffffffe
 80069bc:	080066b5 	.word	0x080066b5
 80069c0:	f8b4 005e 	ldrh.w	r0, [r4, #94]	; 0x5e
 80069c4:	f8b4 105c 	ldrh.w	r1, [r4, #92]	; 0x5c
 80069c8:	f8b4 205e 	ldrh.w	r2, [r4, #94]	; 0x5e
 80069cc:	1a09      	subs	r1, r1, r0
 80069ce:	b292      	uxth	r2, r2
 80069d0:	b289      	uxth	r1, r1
 80069d2:	2a00      	cmp	r2, #0
 80069d4:	f43f aeb2 	beq.w	800673c <HAL_UART_IRQHandler+0x70>
 80069d8:	2900      	cmp	r1, #0
 80069da:	f43f aeaf 	beq.w	800673c <HAL_UART_IRQHandler+0x70>
 80069de:	e853 2f00 	ldrex	r2, [r3]
 80069e2:	f422 7290 	bic.w	r2, r2, #288	; 0x120
 80069e6:	e843 2000 	strex	r0, r2, [r3]
 80069ea:	2800      	cmp	r0, #0
 80069ec:	d1f7      	bne.n	80069de <HAL_UART_IRQHandler+0x312>
 80069ee:	4d11      	ldr	r5, [pc, #68]	; (8006a34 <HAL_UART_IRQHandler+0x368>)
 80069f0:	f103 0208 	add.w	r2, r3, #8
 80069f4:	e852 2f00 	ldrex	r2, [r2]
 80069f8:	402a      	ands	r2, r5
 80069fa:	f103 0608 	add.w	r6, r3, #8
 80069fe:	e846 2000 	strex	r0, r2, [r6]
 8006a02:	2800      	cmp	r0, #0
 8006a04:	d1f4      	bne.n	80069f0 <HAL_UART_IRQHandler+0x324>
 8006a06:	2220      	movs	r2, #32
 8006a08:	6720      	str	r0, [r4, #112]	; 0x70
 8006a0a:	f8c4 2088 	str.w	r2, [r4, #136]	; 0x88
 8006a0e:	66e0      	str	r0, [r4, #108]	; 0x6c
 8006a10:	e853 2f00 	ldrex	r2, [r3]
 8006a14:	f022 0210 	bic.w	r2, r2, #16
 8006a18:	e843 2000 	strex	r0, r2, [r3]
 8006a1c:	2800      	cmp	r0, #0
 8006a1e:	d1f7      	bne.n	8006a10 <HAL_UART_IRQHandler+0x344>
 8006a20:	4620      	mov	r0, r4
 8006a22:	f7ff fe51 	bl	80066c8 <HAL_UARTEx_RxEventCallback>
 8006a26:	e689      	b.n	800673c <HAL_UART_IRQHandler+0x70>
 8006a28:	4620      	mov	r0, r4
 8006a2a:	f7ff fdd7 	bl	80065dc <HAL_UART_ErrorCallback>
 8006a2e:	f8c4 508c 	str.w	r5, [r4, #140]	; 0x8c
 8006a32:	e683      	b.n	800673c <HAL_UART_IRQHandler+0x70>
 8006a34:	effffffe 	.word	0xeffffffe

08006a38 <UART_DMARxHalfCplt>:
 8006a38:	6b80      	ldr	r0, [r0, #56]	; 0x38
 8006a3a:	b508      	push	{r3, lr}
 8006a3c:	6ec3      	ldr	r3, [r0, #108]	; 0x6c
 8006a3e:	2b01      	cmp	r3, #1
 8006a40:	d002      	beq.n	8006a48 <UART_DMARxHalfCplt+0x10>
 8006a42:	f7ff fdc9 	bl	80065d8 <HAL_UART_RxHalfCpltCallback>
 8006a46:	bd08      	pop	{r3, pc}
 8006a48:	f8b0 105c 	ldrh.w	r1, [r0, #92]	; 0x5c
 8006a4c:	0849      	lsrs	r1, r1, #1
 8006a4e:	f7ff fe3b 	bl	80066c8 <HAL_UARTEx_RxEventCallback>
 8006a52:	bd08      	pop	{r3, pc}

08006a54 <UART_DMAReceiveCplt>:
 8006a54:	b508      	push	{r3, lr}
 8006a56:	69c3      	ldr	r3, [r0, #28]
 8006a58:	6b80      	ldr	r0, [r0, #56]	; 0x38
 8006a5a:	f5b3 7f80 	cmp.w	r3, #256	; 0x100
 8006a5e:	d029      	beq.n	8006ab4 <UART_DMAReceiveCplt+0x60>
 8006a60:	2200      	movs	r2, #0
 8006a62:	6803      	ldr	r3, [r0, #0]
 8006a64:	f8a0 205e 	strh.w	r2, [r0, #94]	; 0x5e
 8006a68:	e853 2f00 	ldrex	r2, [r3]
 8006a6c:	f422 7280 	bic.w	r2, r2, #256	; 0x100
 8006a70:	e843 2100 	strex	r1, r2, [r3]
 8006a74:	2900      	cmp	r1, #0
 8006a76:	d1f7      	bne.n	8006a68 <UART_DMAReceiveCplt+0x14>
 8006a78:	f103 0208 	add.w	r2, r3, #8
 8006a7c:	e852 2f00 	ldrex	r2, [r2]
 8006a80:	f022 0201 	bic.w	r2, r2, #1
 8006a84:	f103 0c08 	add.w	ip, r3, #8
 8006a88:	e84c 2100 	strex	r1, r2, [ip]
 8006a8c:	2900      	cmp	r1, #0
 8006a8e:	d1f3      	bne.n	8006a78 <UART_DMAReceiveCplt+0x24>
 8006a90:	f103 0208 	add.w	r2, r3, #8
 8006a94:	e852 2f00 	ldrex	r2, [r2]
 8006a98:	f022 0240 	bic.w	r2, r2, #64	; 0x40
 8006a9c:	f103 0c08 	add.w	ip, r3, #8
 8006aa0:	e84c 2100 	strex	r1, r2, [ip]
 8006aa4:	2900      	cmp	r1, #0
 8006aa6:	d1f3      	bne.n	8006a90 <UART_DMAReceiveCplt+0x3c>
 8006aa8:	2220      	movs	r2, #32
 8006aaa:	f8c0 2088 	str.w	r2, [r0, #136]	; 0x88
 8006aae:	6ec2      	ldr	r2, [r0, #108]	; 0x6c
 8006ab0:	2a01      	cmp	r2, #1
 8006ab2:	d005      	beq.n	8006ac0 <UART_DMAReceiveCplt+0x6c>
 8006ab4:	6ec3      	ldr	r3, [r0, #108]	; 0x6c
 8006ab6:	2b01      	cmp	r3, #1
 8006ab8:	d013      	beq.n	8006ae2 <UART_DMAReceiveCplt+0x8e>
 8006aba:	f004 fe51 	bl	800b760 <HAL_UART_RxCpltCallback>
 8006abe:	bd08      	pop	{r3, pc}
 8006ac0:	e853 2f00 	ldrex	r2, [r3]
 8006ac4:	f022 0210 	bic.w	r2, r2, #16
 8006ac8:	e843 2100 	strex	r1, r2, [r3]
 8006acc:	2900      	cmp	r1, #0
 8006ace:	d0f1      	beq.n	8006ab4 <UART_DMAReceiveCplt+0x60>
 8006ad0:	e853 2f00 	ldrex	r2, [r3]
 8006ad4:	f022 0210 	bic.w	r2, r2, #16
 8006ad8:	e843 2100 	strex	r1, r2, [r3]
 8006adc:	2900      	cmp	r1, #0
 8006ade:	d1ef      	bne.n	8006ac0 <UART_DMAReceiveCplt+0x6c>
 8006ae0:	e7e8      	b.n	8006ab4 <UART_DMAReceiveCplt+0x60>
 8006ae2:	f8b0 105c 	ldrh.w	r1, [r0, #92]	; 0x5c
 8006ae6:	f7ff fdef 	bl	80066c8 <HAL_UARTEx_RxEventCallback>
 8006aea:	bd08      	pop	{r3, pc}

08006aec <UART_SetConfig>:
 8006aec:	b5f0      	push	{r4, r5, r6, r7, lr}
 8006aee:	6883      	ldr	r3, [r0, #8]
 8006af0:	4604      	mov	r4, r0
 8006af2:	49c9      	ldr	r1, [pc, #804]	; (8006e18 <UART_SetConfig+0x32c>)
 8006af4:	b087      	sub	sp, #28
 8006af6:	68e7      	ldr	r7, [r4, #12]
 8006af8:	4dc8      	ldr	r5, [pc, #800]	; (8006e1c <UART_SetConfig+0x330>)
 8006afa:	e9d0 2604 	ldrd	r2, r6, [r0, #16]
 8006afe:	431a      	orrs	r2, r3
 8006b00:	6803      	ldr	r3, [r0, #0]
 8006b02:	69c0      	ldr	r0, [r0, #28]
 8006b04:	4332      	orrs	r2, r6
 8006b06:	681e      	ldr	r6, [r3, #0]
 8006b08:	42ab      	cmp	r3, r5
 8006b0a:	ea01 0106 	and.w	r1, r1, r6
 8006b0e:	ea42 0200 	orr.w	r2, r2, r0
 8006b12:	69a6      	ldr	r6, [r4, #24]
 8006b14:	ea42 0201 	orr.w	r2, r2, r1
 8006b18:	601a      	str	r2, [r3, #0]
 8006b1a:	685a      	ldr	r2, [r3, #4]
 8006b1c:	f422 5240 	bic.w	r2, r2, #12288	; 0x3000
 8006b20:	ea42 0207 	orr.w	r2, r2, r7
 8006b24:	605a      	str	r2, [r3, #4]
 8006b26:	f000 80e1 	beq.w	8006cec <UART_SetConfig+0x200>
 8006b2a:	689d      	ldr	r5, [r3, #8]
 8006b2c:	6a22      	ldr	r2, [r4, #32]
 8006b2e:	49bc      	ldr	r1, [pc, #752]	; (8006e20 <UART_SetConfig+0x334>)
 8006b30:	4332      	orrs	r2, r6
 8006b32:	4ebc      	ldr	r6, [pc, #752]	; (8006e24 <UART_SetConfig+0x338>)
 8006b34:	4029      	ands	r1, r5
 8006b36:	6a65      	ldr	r5, [r4, #36]	; 0x24
 8006b38:	42b3      	cmp	r3, r6
 8006b3a:	ea42 0201 	orr.w	r2, r2, r1
 8006b3e:	609a      	str	r2, [r3, #8]
 8006b40:	6ada      	ldr	r2, [r3, #44]	; 0x2c
 8006b42:	f022 020f 	bic.w	r2, r2, #15
 8006b46:	ea42 0205 	orr.w	r2, r2, r5
 8006b4a:	62da      	str	r2, [r3, #44]	; 0x2c
 8006b4c:	d023      	beq.n	8006b96 <UART_SetConfig+0xaa>
 8006b4e:	4ab6      	ldr	r2, [pc, #728]	; (8006e28 <UART_SetConfig+0x33c>)
 8006b50:	4293      	cmp	r3, r2
 8006b52:	d075      	beq.n	8006c40 <UART_SetConfig+0x154>
 8006b54:	4ab5      	ldr	r2, [pc, #724]	; (8006e2c <UART_SetConfig+0x340>)
 8006b56:	4293      	cmp	r3, r2
 8006b58:	f000 81bc 	beq.w	8006ed4 <UART_SetConfig+0x3e8>
 8006b5c:	4ab4      	ldr	r2, [pc, #720]	; (8006e30 <UART_SetConfig+0x344>)
 8006b5e:	4293      	cmp	r3, r2
 8006b60:	f000 81e8 	beq.w	8006f34 <UART_SetConfig+0x448>
 8006b64:	4ab3      	ldr	r2, [pc, #716]	; (8006e34 <UART_SetConfig+0x348>)
 8006b66:	4293      	cmp	r3, r2
 8006b68:	f000 81a4 	beq.w	8006eb4 <UART_SetConfig+0x3c8>
 8006b6c:	4ab2      	ldr	r2, [pc, #712]	; (8006e38 <UART_SetConfig+0x34c>)
 8006b6e:	4293      	cmp	r3, r2
 8006b70:	f000 81ea 	beq.w	8006f48 <UART_SetConfig+0x45c>
 8006b74:	4ab1      	ldr	r2, [pc, #708]	; (8006e3c <UART_SetConfig+0x350>)
 8006b76:	4293      	cmp	r3, r2
 8006b78:	f000 8235 	beq.w	8006fe6 <UART_SetConfig+0x4fa>
 8006b7c:	4ab0      	ldr	r2, [pc, #704]	; (8006e40 <UART_SetConfig+0x354>)
 8006b7e:	4293      	cmp	r3, r2
 8006b80:	f000 8227 	beq.w	8006fd2 <UART_SetConfig+0x4e6>
 8006b84:	2001      	movs	r0, #1
 8006b86:	f04f 1201 	mov.w	r2, #65537	; 0x10001
 8006b8a:	2300      	movs	r3, #0
 8006b8c:	66a2      	str	r2, [r4, #104]	; 0x68
 8006b8e:	e9c4 331c 	strd	r3, r3, [r4, #112]	; 0x70
 8006b92:	b007      	add	sp, #28
 8006b94:	bdf0      	pop	{r4, r5, r6, r7, pc}
 8006b96:	4bab      	ldr	r3, [pc, #684]	; (8006e44 <UART_SetConfig+0x358>)
 8006b98:	6d5b      	ldr	r3, [r3, #84]	; 0x54
 8006b9a:	f003 0338 	and.w	r3, r3, #56	; 0x38
 8006b9e:	2b28      	cmp	r3, #40	; 0x28
 8006ba0:	d8f0      	bhi.n	8006b84 <UART_SetConfig+0x98>
 8006ba2:	4aa9      	ldr	r2, [pc, #676]	; (8006e48 <UART_SetConfig+0x35c>)
 8006ba4:	5cd3      	ldrb	r3, [r2, r3]
 8006ba6:	f5b0 4f00 	cmp.w	r0, #32768	; 0x8000
 8006baa:	d054      	beq.n	8006c56 <UART_SetConfig+0x16a>
 8006bac:	2b20      	cmp	r3, #32
 8006bae:	f200 818b 	bhi.w	8006ec8 <UART_SetConfig+0x3dc>
 8006bb2:	2b20      	cmp	r3, #32
 8006bb4:	d8e6      	bhi.n	8006b84 <UART_SetConfig+0x98>
 8006bb6:	a201      	add	r2, pc, #4	; (adr r2, 8006bbc <UART_SetConfig+0xd0>)
 8006bb8:	f852 f023 	ldr.w	pc, [r2, r3, lsl #2]
 8006bbc:	08006e13 	.word	0x08006e13
 8006bc0:	08006e0d 	.word	0x08006e0d
 8006bc4:	08006b85 	.word	0x08006b85
 8006bc8:	08006b85 	.word	0x08006b85
 8006bcc:	08006dfd 	.word	0x08006dfd
 8006bd0:	08006b85 	.word	0x08006b85
 8006bd4:	08006b85 	.word	0x08006b85
 8006bd8:	08006b85 	.word	0x08006b85
 8006bdc:	08006def 	.word	0x08006def
 8006be0:	08006b85 	.word	0x08006b85
 8006be4:	08006b85 	.word	0x08006b85
 8006be8:	08006b85 	.word	0x08006b85
 8006bec:	08006b85 	.word	0x08006b85
 8006bf0:	08006b85 	.word	0x08006b85
 8006bf4:	08006b85 	.word	0x08006b85
 8006bf8:	08006b85 	.word	0x08006b85
 8006bfc:	08006dd9 	.word	0x08006dd9
 8006c00:	08006b85 	.word	0x08006b85
 8006c04:	08006b85 	.word	0x08006b85
 8006c08:	08006b85 	.word	0x08006b85
 8006c0c:	08006b85 	.word	0x08006b85
 8006c10:	08006b85 	.word	0x08006b85
 8006c14:	08006b85 	.word	0x08006b85
 8006c18:	08006b85 	.word	0x08006b85
 8006c1c:	08006b85 	.word	0x08006b85
 8006c20:	08006b85 	.word	0x08006b85
 8006c24:	08006b85 	.word	0x08006b85
 8006c28:	08006b85 	.word	0x08006b85
 8006c2c:	08006b85 	.word	0x08006b85
 8006c30:	08006b85 	.word	0x08006b85
 8006c34:	08006b85 	.word	0x08006b85
 8006c38:	08006b85 	.word	0x08006b85
 8006c3c:	08006dad 	.word	0x08006dad
 8006c40:	4b80      	ldr	r3, [pc, #512]	; (8006e44 <UART_SetConfig+0x358>)
 8006c42:	6d5b      	ldr	r3, [r3, #84]	; 0x54
 8006c44:	f003 0307 	and.w	r3, r3, #7
 8006c48:	2b05      	cmp	r3, #5
 8006c4a:	d89b      	bhi.n	8006b84 <UART_SetConfig+0x98>
 8006c4c:	4a7f      	ldr	r2, [pc, #508]	; (8006e4c <UART_SetConfig+0x360>)
 8006c4e:	f5b0 4f00 	cmp.w	r0, #32768	; 0x8000
 8006c52:	5cd3      	ldrb	r3, [r2, r3]
 8006c54:	d1aa      	bne.n	8006bac <UART_SetConfig+0xc0>
 8006c56:	2b20      	cmp	r3, #32
 8006c58:	f200 8169 	bhi.w	8006f2e <UART_SetConfig+0x442>
 8006c5c:	2b20      	cmp	r3, #32
 8006c5e:	d891      	bhi.n	8006b84 <UART_SetConfig+0x98>
 8006c60:	a201      	add	r2, pc, #4	; (adr r2, 8006c68 <UART_SetConfig+0x17c>)
 8006c62:	f852 f023 	ldr.w	pc, [r2, r3, lsl #2]
 8006c66:	bf00      	nop
 8006c68:	08006fc9 	.word	0x08006fc9
 8006c6c:	08006fb9 	.word	0x08006fb9
 8006c70:	08006b85 	.word	0x08006b85
 8006c74:	08006b85 	.word	0x08006b85
 8006c78:	08006fbf 	.word	0x08006fbf
 8006c7c:	08006b85 	.word	0x08006b85
 8006c80:	08006b85 	.word	0x08006b85
 8006c84:	08006b85 	.word	0x08006b85
 8006c88:	08006fa7 	.word	0x08006fa7
 8006c8c:	08006b85 	.word	0x08006b85
 8006c90:	08006b85 	.word	0x08006b85
 8006c94:	08006b85 	.word	0x08006b85
 8006c98:	08006b85 	.word	0x08006b85
 8006c9c:	08006b85 	.word	0x08006b85
 8006ca0:	08006b85 	.word	0x08006b85
 8006ca4:	08006b85 	.word	0x08006b85
 8006ca8:	08006f93 	.word	0x08006f93
 8006cac:	08006b85 	.word	0x08006b85
 8006cb0:	08006b85 	.word	0x08006b85
 8006cb4:	08006b85 	.word	0x08006b85
 8006cb8:	08006b85 	.word	0x08006b85
 8006cbc:	08006b85 	.word	0x08006b85
 8006cc0:	08006b85 	.word	0x08006b85
 8006cc4:	08006b85 	.word	0x08006b85
 8006cc8:	08006b85 	.word	0x08006b85
 8006ccc:	08006b85 	.word	0x08006b85
 8006cd0:	08006b85 	.word	0x08006b85
 8006cd4:	08006b85 	.word	0x08006b85
 8006cd8:	08006b85 	.word	0x08006b85
 8006cdc:	08006b85 	.word	0x08006b85
 8006ce0:	08006b85 	.word	0x08006b85
 8006ce4:	08006b85 	.word	0x08006b85
 8006ce8:	08006ef5 	.word	0x08006ef5
 8006cec:	6899      	ldr	r1, [r3, #8]
 8006cee:	4a4c      	ldr	r2, [pc, #304]	; (8006e20 <UART_SetConfig+0x334>)
 8006cf0:	4854      	ldr	r0, [pc, #336]	; (8006e44 <UART_SetConfig+0x358>)
 8006cf2:	400a      	ands	r2, r1
 8006cf4:	4332      	orrs	r2, r6
 8006cf6:	609a      	str	r2, [r3, #8]
 8006cf8:	6ada      	ldr	r2, [r3, #44]	; 0x2c
 8006cfa:	6a61      	ldr	r1, [r4, #36]	; 0x24
 8006cfc:	f022 020f 	bic.w	r2, r2, #15
 8006d00:	430a      	orrs	r2, r1
 8006d02:	62da      	str	r2, [r3, #44]	; 0x2c
 8006d04:	6d83      	ldr	r3, [r0, #88]	; 0x58
 8006d06:	f003 0307 	and.w	r3, r3, #7
 8006d0a:	2b05      	cmp	r3, #5
 8006d0c:	f63f af3a 	bhi.w	8006b84 <UART_SetConfig+0x98>
 8006d10:	4a4f      	ldr	r2, [pc, #316]	; (8006e50 <UART_SetConfig+0x364>)
 8006d12:	5cd3      	ldrb	r3, [r2, r3]
 8006d14:	2b20      	cmp	r3, #32
 8006d16:	f200 80e7 	bhi.w	8006ee8 <UART_SetConfig+0x3fc>
 8006d1a:	2b01      	cmp	r3, #1
 8006d1c:	f67f af32 	bls.w	8006b84 <UART_SetConfig+0x98>
 8006d20:	3b02      	subs	r3, #2
 8006d22:	2b1e      	cmp	r3, #30
 8006d24:	f63f af2e 	bhi.w	8006b84 <UART_SetConfig+0x98>
 8006d28:	a201      	add	r2, pc, #4	; (adr r2, 8006d30 <UART_SetConfig+0x244>)
 8006d2a:	f852 f023 	ldr.w	pc, [r2, r3, lsl #2]
 8006d2e:	bf00      	nop
 8006d30:	08006f8d 	.word	0x08006f8d
 8006d34:	08006b85 	.word	0x08006b85
 8006d38:	08006f83 	.word	0x08006f83
 8006d3c:	08006b85 	.word	0x08006b85
 8006d40:	08006b85 	.word	0x08006b85
 8006d44:	08006b85 	.word	0x08006b85
 8006d48:	08006f71 	.word	0x08006f71
 8006d4c:	08006b85 	.word	0x08006b85
 8006d50:	08006b85 	.word	0x08006b85
 8006d54:	08006b85 	.word	0x08006b85
 8006d58:	08006b85 	.word	0x08006b85
 8006d5c:	08006b85 	.word	0x08006b85
 8006d60:	08006b85 	.word	0x08006b85
 8006d64:	08006b85 	.word	0x08006b85
 8006d68:	08006f5d 	.word	0x08006f5d
 8006d6c:	08006b85 	.word	0x08006b85
 8006d70:	08006b85 	.word	0x08006b85
 8006d74:	08006b85 	.word	0x08006b85
 8006d78:	08006b85 	.word	0x08006b85
 8006d7c:	08006b85 	.word	0x08006b85
 8006d80:	08006b85 	.word	0x08006b85
 8006d84:	08006b85 	.word	0x08006b85
 8006d88:	08006b85 	.word	0x08006b85
 8006d8c:	08006b85 	.word	0x08006b85
 8006d90:	08006b85 	.word	0x08006b85
 8006d94:	08006b85 	.word	0x08006b85
 8006d98:	08006b85 	.word	0x08006b85
 8006d9c:	08006b85 	.word	0x08006b85
 8006da0:	08006b85 	.word	0x08006b85
 8006da4:	08006b85 	.word	0x08006b85
 8006da8:	08006e61 	.word	0x08006e61
 8006dac:	4829      	ldr	r0, [pc, #164]	; (8006e54 <UART_SetConfig+0x368>)
 8006dae:	4b2a      	ldr	r3, [pc, #168]	; (8006e58 <UART_SetConfig+0x36c>)
 8006db0:	f64f 71ef 	movw	r1, #65519	; 0xffef
 8006db4:	6862      	ldr	r2, [r4, #4]
 8006db6:	f833 3015 	ldrh.w	r3, [r3, r5, lsl #1]
 8006dba:	fbb0 f3f3 	udiv	r3, r0, r3
 8006dbe:	eb03 0352 	add.w	r3, r3, r2, lsr #1
 8006dc2:	fbb3 f3f2 	udiv	r3, r3, r2
 8006dc6:	f1a3 0210 	sub.w	r2, r3, #16
 8006dca:	428a      	cmp	r2, r1
 8006dcc:	f63f aeda 	bhi.w	8006b84 <UART_SetConfig+0x98>
 8006dd0:	6822      	ldr	r2, [r4, #0]
 8006dd2:	2000      	movs	r0, #0
 8006dd4:	60d3      	str	r3, [r2, #12]
 8006dd6:	e6d6      	b.n	8006b86 <UART_SetConfig+0x9a>
 8006dd8:	4b1a      	ldr	r3, [pc, #104]	; (8006e44 <UART_SetConfig+0x358>)
 8006dda:	681a      	ldr	r2, [r3, #0]
 8006ddc:	0692      	lsls	r2, r2, #26
 8006dde:	f140 80f6 	bpl.w	8006fce <UART_SetConfig+0x4e2>
 8006de2:	681b      	ldr	r3, [r3, #0]
 8006de4:	481d      	ldr	r0, [pc, #116]	; (8006e5c <UART_SetConfig+0x370>)
 8006de6:	f3c3 03c1 	ubfx	r3, r3, #3, #2
 8006dea:	40d8      	lsrs	r0, r3
 8006dec:	e7df      	b.n	8006dae <UART_SetConfig+0x2c2>
 8006dee:	a803      	add	r0, sp, #12
 8006df0:	f7fd fd26 	bl	8004840 <HAL_RCCEx_GetPLL3ClockFreq>
 8006df4:	9804      	ldr	r0, [sp, #16]
 8006df6:	b938      	cbnz	r0, 8006e08 <UART_SetConfig+0x31c>
 8006df8:	2000      	movs	r0, #0
 8006dfa:	e6c4      	b.n	8006b86 <UART_SetConfig+0x9a>
 8006dfc:	4668      	mov	r0, sp
 8006dfe:	f7fd fc61 	bl	80046c4 <HAL_RCCEx_GetPLL2ClockFreq>
 8006e02:	9801      	ldr	r0, [sp, #4]
 8006e04:	2800      	cmp	r0, #0
 8006e06:	d0f7      	beq.n	8006df8 <UART_SetConfig+0x30c>
 8006e08:	6a65      	ldr	r5, [r4, #36]	; 0x24
 8006e0a:	e7d0      	b.n	8006dae <UART_SetConfig+0x2c2>
 8006e0c:	f7fc fd86 	bl	800391c <HAL_RCC_GetPCLK2Freq>
 8006e10:	e7f1      	b.n	8006df6 <UART_SetConfig+0x30a>
 8006e12:	f7fc fd3b 	bl	800388c <HAL_RCC_GetPCLK1Freq>
 8006e16:	e7ee      	b.n	8006df6 <UART_SetConfig+0x30a>
 8006e18:	cfff69f3 	.word	0xcfff69f3
 8006e1c:	58000c00 	.word	0x58000c00
 8006e20:	11fff4ff 	.word	0x11fff4ff
 8006e24:	40011000 	.word	0x40011000
 8006e28:	40004400 	.word	0x40004400
 8006e2c:	40004800 	.word	0x40004800
 8006e30:	40004c00 	.word	0x40004c00
 8006e34:	40005000 	.word	0x40005000
 8006e38:	40011400 	.word	0x40011400
 8006e3c:	40007800 	.word	0x40007800
 8006e40:	40007c00 	.word	0x40007c00
 8006e44:	58024400 	.word	0x58024400
 8006e48:	0800b9d4 	.word	0x0800b9d4
 8006e4c:	0800ba00 	.word	0x0800ba00
 8006e50:	0800ba08 	.word	0x0800ba08
 8006e54:	003d0900 	.word	0x003d0900
 8006e58:	0800ba10 	.word	0x0800ba10
 8006e5c:	03d09000 	.word	0x03d09000
 8006e60:	4868      	ldr	r0, [pc, #416]	; (8007004 <UART_SetConfig+0x518>)
 8006e62:	4b69      	ldr	r3, [pc, #420]	; (8007008 <UART_SetConfig+0x51c>)
 8006e64:	6865      	ldr	r5, [r4, #4]
 8006e66:	f833 2011 	ldrh.w	r2, [r3, r1, lsl #1]
 8006e6a:	eb05 0145 	add.w	r1, r5, r5, lsl #1
 8006e6e:	fbb0 f3f2 	udiv	r3, r0, r2
 8006e72:	4299      	cmp	r1, r3
 8006e74:	f63f ae86 	bhi.w	8006b84 <UART_SetConfig+0x98>
 8006e78:	ebb3 3f05 	cmp.w	r3, r5, lsl #12
 8006e7c:	f63f ae82 	bhi.w	8006b84 <UART_SetConfig+0x98>
 8006e80:	2300      	movs	r3, #0
 8006e82:	2100      	movs	r1, #0
 8006e84:	f7f9 fa2c 	bl	80002e0 <__aeabi_uldivmod>
 8006e88:	462a      	mov	r2, r5
 8006e8a:	ea4f 0c55 	mov.w	ip, r5, lsr #1
 8006e8e:	2300      	movs	r3, #0
 8006e90:	020f      	lsls	r7, r1, #8
 8006e92:	0206      	lsls	r6, r0, #8
 8006e94:	ea47 6710 	orr.w	r7, r7, r0, lsr #24
 8006e98:	eb16 000c 	adds.w	r0, r6, ip
 8006e9c:	f147 0100 	adc.w	r1, r7, #0
 8006ea0:	f7f9 fa1e 	bl	80002e0 <__aeabi_uldivmod>
 8006ea4:	4a59      	ldr	r2, [pc, #356]	; (800700c <UART_SetConfig+0x520>)
 8006ea6:	f5a0 7140 	sub.w	r1, r0, #768	; 0x300
 8006eaa:	4603      	mov	r3, r0
 8006eac:	4291      	cmp	r1, r2
 8006eae:	f63f ae69 	bhi.w	8006b84 <UART_SetConfig+0x98>
 8006eb2:	e78d      	b.n	8006dd0 <UART_SetConfig+0x2e4>
 8006eb4:	4b56      	ldr	r3, [pc, #344]	; (8007010 <UART_SetConfig+0x524>)
 8006eb6:	6d5b      	ldr	r3, [r3, #84]	; 0x54
 8006eb8:	f003 0307 	and.w	r3, r3, #7
 8006ebc:	2b05      	cmp	r3, #5
 8006ebe:	f63f ae61 	bhi.w	8006b84 <UART_SetConfig+0x98>
 8006ec2:	4a54      	ldr	r2, [pc, #336]	; (8007014 <UART_SetConfig+0x528>)
 8006ec4:	5cd3      	ldrb	r3, [r2, r3]
 8006ec6:	e66e      	b.n	8006ba6 <UART_SetConfig+0xba>
 8006ec8:	2b40      	cmp	r3, #64	; 0x40
 8006eca:	f47f ae5b 	bne.w	8006b84 <UART_SetConfig+0x98>
 8006ece:	f44f 4000 	mov.w	r0, #32768	; 0x8000
 8006ed2:	e76c      	b.n	8006dae <UART_SetConfig+0x2c2>
 8006ed4:	4b4e      	ldr	r3, [pc, #312]	; (8007010 <UART_SetConfig+0x524>)
 8006ed6:	6d5b      	ldr	r3, [r3, #84]	; 0x54
 8006ed8:	f003 0307 	and.w	r3, r3, #7
 8006edc:	2b05      	cmp	r3, #5
 8006ede:	f63f ae51 	bhi.w	8006b84 <UART_SetConfig+0x98>
 8006ee2:	4a4d      	ldr	r2, [pc, #308]	; (8007018 <UART_SetConfig+0x52c>)
 8006ee4:	5cd3      	ldrb	r3, [r2, r3]
 8006ee6:	e65e      	b.n	8006ba6 <UART_SetConfig+0xba>
 8006ee8:	2b40      	cmp	r3, #64	; 0x40
 8006eea:	f47f ae4b 	bne.w	8006b84 <UART_SetConfig+0x98>
 8006eee:	f44f 4000 	mov.w	r0, #32768	; 0x8000
 8006ef2:	e7b6      	b.n	8006e62 <UART_SetConfig+0x376>
 8006ef4:	4843      	ldr	r0, [pc, #268]	; (8007004 <UART_SetConfig+0x518>)
 8006ef6:	4b44      	ldr	r3, [pc, #272]	; (8007008 <UART_SetConfig+0x51c>)
 8006ef8:	f64f 71ef 	movw	r1, #65519	; 0xffef
 8006efc:	6862      	ldr	r2, [r4, #4]
 8006efe:	f833 5015 	ldrh.w	r5, [r3, r5, lsl #1]
 8006f02:	0853      	lsrs	r3, r2, #1
 8006f04:	fbb0 f0f5 	udiv	r0, r0, r5
 8006f08:	eb03 0040 	add.w	r0, r3, r0, lsl #1
 8006f0c:	fbb0 f0f2 	udiv	r0, r0, r2
 8006f10:	f1a0 0310 	sub.w	r3, r0, #16
 8006f14:	428b      	cmp	r3, r1
 8006f16:	f63f ae35 	bhi.w	8006b84 <UART_SetConfig+0x98>
 8006f1a:	f020 020f 	bic.w	r2, r0, #15
 8006f1e:	f3c0 0342 	ubfx	r3, r0, #1, #3
 8006f22:	6821      	ldr	r1, [r4, #0]
 8006f24:	2000      	movs	r0, #0
 8006f26:	b292      	uxth	r2, r2
 8006f28:	4313      	orrs	r3, r2
 8006f2a:	60cb      	str	r3, [r1, #12]
 8006f2c:	e62b      	b.n	8006b86 <UART_SetConfig+0x9a>
 8006f2e:	2b40      	cmp	r3, #64	; 0x40
 8006f30:	d0e1      	beq.n	8006ef6 <UART_SetConfig+0x40a>
 8006f32:	e627      	b.n	8006b84 <UART_SetConfig+0x98>
 8006f34:	4b36      	ldr	r3, [pc, #216]	; (8007010 <UART_SetConfig+0x524>)
 8006f36:	6d5b      	ldr	r3, [r3, #84]	; 0x54
 8006f38:	f003 0307 	and.w	r3, r3, #7
 8006f3c:	2b05      	cmp	r3, #5
 8006f3e:	f63f ae21 	bhi.w	8006b84 <UART_SetConfig+0x98>
 8006f42:	4a36      	ldr	r2, [pc, #216]	; (800701c <UART_SetConfig+0x530>)
 8006f44:	5cd3      	ldrb	r3, [r2, r3]
 8006f46:	e62e      	b.n	8006ba6 <UART_SetConfig+0xba>
 8006f48:	4b31      	ldr	r3, [pc, #196]	; (8007010 <UART_SetConfig+0x524>)
 8006f4a:	6d5b      	ldr	r3, [r3, #84]	; 0x54
 8006f4c:	f003 0338 	and.w	r3, r3, #56	; 0x38
 8006f50:	2b28      	cmp	r3, #40	; 0x28
 8006f52:	f63f ae17 	bhi.w	8006b84 <UART_SetConfig+0x98>
 8006f56:	4a32      	ldr	r2, [pc, #200]	; (8007020 <UART_SetConfig+0x534>)
 8006f58:	5cd3      	ldrb	r3, [r2, r3]
 8006f5a:	e624      	b.n	8006ba6 <UART_SetConfig+0xba>
 8006f5c:	4b2c      	ldr	r3, [pc, #176]	; (8007010 <UART_SetConfig+0x524>)
 8006f5e:	681a      	ldr	r2, [r3, #0]
 8006f60:	0690      	lsls	r0, r2, #26
 8006f62:	d54a      	bpl.n	8006ffa <UART_SetConfig+0x50e>
 8006f64:	681b      	ldr	r3, [r3, #0]
 8006f66:	482f      	ldr	r0, [pc, #188]	; (8007024 <UART_SetConfig+0x538>)
 8006f68:	f3c3 03c1 	ubfx	r3, r3, #3, #2
 8006f6c:	40d8      	lsrs	r0, r3
 8006f6e:	e778      	b.n	8006e62 <UART_SetConfig+0x376>
 8006f70:	a803      	add	r0, sp, #12
 8006f72:	f7fd fc65 	bl	8004840 <HAL_RCCEx_GetPLL3ClockFreq>
 8006f76:	9804      	ldr	r0, [sp, #16]
 8006f78:	2800      	cmp	r0, #0
 8006f7a:	f43f af3d 	beq.w	8006df8 <UART_SetConfig+0x30c>
 8006f7e:	6a61      	ldr	r1, [r4, #36]	; 0x24
 8006f80:	e76f      	b.n	8006e62 <UART_SetConfig+0x376>
 8006f82:	4668      	mov	r0, sp
 8006f84:	f7fd fb9e 	bl	80046c4 <HAL_RCCEx_GetPLL2ClockFreq>
 8006f88:	9801      	ldr	r0, [sp, #4]
 8006f8a:	e7f5      	b.n	8006f78 <UART_SetConfig+0x48c>
 8006f8c:	f7fd fb88 	bl	80046a0 <HAL_RCCEx_GetD3PCLK1Freq>
 8006f90:	e7f2      	b.n	8006f78 <UART_SetConfig+0x48c>
 8006f92:	4b1f      	ldr	r3, [pc, #124]	; (8007010 <UART_SetConfig+0x524>)
 8006f94:	681a      	ldr	r2, [r3, #0]
 8006f96:	0691      	lsls	r1, r2, #26
 8006f98:	d531      	bpl.n	8006ffe <UART_SetConfig+0x512>
 8006f9a:	681b      	ldr	r3, [r3, #0]
 8006f9c:	4821      	ldr	r0, [pc, #132]	; (8007024 <UART_SetConfig+0x538>)
 8006f9e:	f3c3 03c1 	ubfx	r3, r3, #3, #2
 8006fa2:	40d8      	lsrs	r0, r3
 8006fa4:	e7a7      	b.n	8006ef6 <UART_SetConfig+0x40a>
 8006fa6:	a803      	add	r0, sp, #12
 8006fa8:	f7fd fc4a 	bl	8004840 <HAL_RCCEx_GetPLL3ClockFreq>
 8006fac:	9804      	ldr	r0, [sp, #16]
 8006fae:	2800      	cmp	r0, #0
 8006fb0:	f43f af22 	beq.w	8006df8 <UART_SetConfig+0x30c>
 8006fb4:	6a65      	ldr	r5, [r4, #36]	; 0x24
 8006fb6:	e79e      	b.n	8006ef6 <UART_SetConfig+0x40a>
 8006fb8:	f7fc fcb0 	bl	800391c <HAL_RCC_GetPCLK2Freq>
 8006fbc:	e7f7      	b.n	8006fae <UART_SetConfig+0x4c2>
 8006fbe:	4668      	mov	r0, sp
 8006fc0:	f7fd fb80 	bl	80046c4 <HAL_RCCEx_GetPLL2ClockFreq>
 8006fc4:	9801      	ldr	r0, [sp, #4]
 8006fc6:	e7f2      	b.n	8006fae <UART_SetConfig+0x4c2>
 8006fc8:	f7fc fc60 	bl	800388c <HAL_RCC_GetPCLK1Freq>
 8006fcc:	e7ef      	b.n	8006fae <UART_SetConfig+0x4c2>
 8006fce:	4815      	ldr	r0, [pc, #84]	; (8007024 <UART_SetConfig+0x538>)
 8006fd0:	e6ed      	b.n	8006dae <UART_SetConfig+0x2c2>
 8006fd2:	4b0f      	ldr	r3, [pc, #60]	; (8007010 <UART_SetConfig+0x524>)
 8006fd4:	6d5b      	ldr	r3, [r3, #84]	; 0x54
 8006fd6:	f003 0307 	and.w	r3, r3, #7
 8006fda:	2b05      	cmp	r3, #5
 8006fdc:	f63f add2 	bhi.w	8006b84 <UART_SetConfig+0x98>
 8006fe0:	4a11      	ldr	r2, [pc, #68]	; (8007028 <UART_SetConfig+0x53c>)
 8006fe2:	5cd3      	ldrb	r3, [r2, r3]
 8006fe4:	e5df      	b.n	8006ba6 <UART_SetConfig+0xba>
 8006fe6:	4b0a      	ldr	r3, [pc, #40]	; (8007010 <UART_SetConfig+0x524>)
 8006fe8:	6d5b      	ldr	r3, [r3, #84]	; 0x54
 8006fea:	f003 0307 	and.w	r3, r3, #7
 8006fee:	2b05      	cmp	r3, #5
 8006ff0:	f63f adc8 	bhi.w	8006b84 <UART_SetConfig+0x98>
 8006ff4:	4a0d      	ldr	r2, [pc, #52]	; (800702c <UART_SetConfig+0x540>)
 8006ff6:	5cd3      	ldrb	r3, [r2, r3]
 8006ff8:	e5d5      	b.n	8006ba6 <UART_SetConfig+0xba>
 8006ffa:	480a      	ldr	r0, [pc, #40]	; (8007024 <UART_SetConfig+0x538>)
 8006ffc:	e731      	b.n	8006e62 <UART_SetConfig+0x376>
 8006ffe:	4809      	ldr	r0, [pc, #36]	; (8007024 <UART_SetConfig+0x538>)
 8007000:	e779      	b.n	8006ef6 <UART_SetConfig+0x40a>
 8007002:	bf00      	nop
 8007004:	003d0900 	.word	0x003d0900
 8007008:	0800ba10 	.word	0x0800ba10
 800700c:	000ffcff 	.word	0x000ffcff
 8007010:	58024400 	.word	0x58024400
 8007014:	0800ba00 	.word	0x0800ba00
 8007018:	0800ba00 	.word	0x0800ba00
 800701c:	0800ba00 	.word	0x0800ba00
 8007020:	0800b9d4 	.word	0x0800b9d4
 8007024:	03d09000 	.word	0x03d09000
 8007028:	0800ba00 	.word	0x0800ba00
 800702c:	0800ba00 	.word	0x0800ba00

08007030 <UART_AdvFeatureConfig>:
 8007030:	6a83      	ldr	r3, [r0, #40]	; 0x28
 8007032:	07da      	lsls	r2, r3, #31
 8007034:	b410      	push	{r4}
 8007036:	d506      	bpl.n	8007046 <UART_AdvFeatureConfig+0x16>
 8007038:	6801      	ldr	r1, [r0, #0]
 800703a:	6ac4      	ldr	r4, [r0, #44]	; 0x2c
 800703c:	684a      	ldr	r2, [r1, #4]
 800703e:	f422 3200 	bic.w	r2, r2, #131072	; 0x20000
 8007042:	4322      	orrs	r2, r4
 8007044:	604a      	str	r2, [r1, #4]
 8007046:	079c      	lsls	r4, r3, #30
 8007048:	d506      	bpl.n	8007058 <UART_AdvFeatureConfig+0x28>
 800704a:	6801      	ldr	r1, [r0, #0]
 800704c:	6b04      	ldr	r4, [r0, #48]	; 0x30
 800704e:	684a      	ldr	r2, [r1, #4]
 8007050:	f422 3280 	bic.w	r2, r2, #65536	; 0x10000
 8007054:	4322      	orrs	r2, r4
 8007056:	604a      	str	r2, [r1, #4]
 8007058:	0759      	lsls	r1, r3, #29
 800705a:	d506      	bpl.n	800706a <UART_AdvFeatureConfig+0x3a>
 800705c:	6801      	ldr	r1, [r0, #0]
 800705e:	6b44      	ldr	r4, [r0, #52]	; 0x34
 8007060:	684a      	ldr	r2, [r1, #4]
 8007062:	f422 2280 	bic.w	r2, r2, #262144	; 0x40000
 8007066:	4322      	orrs	r2, r4
 8007068:	604a      	str	r2, [r1, #4]
 800706a:	071a      	lsls	r2, r3, #28
 800706c:	d506      	bpl.n	800707c <UART_AdvFeatureConfig+0x4c>
 800706e:	6801      	ldr	r1, [r0, #0]
 8007070:	6b84      	ldr	r4, [r0, #56]	; 0x38
 8007072:	684a      	ldr	r2, [r1, #4]
 8007074:	f422 4200 	bic.w	r2, r2, #32768	; 0x8000
 8007078:	4322      	orrs	r2, r4
 800707a:	604a      	str	r2, [r1, #4]
 800707c:	06dc      	lsls	r4, r3, #27
 800707e:	d506      	bpl.n	800708e <UART_AdvFeatureConfig+0x5e>
 8007080:	6801      	ldr	r1, [r0, #0]
 8007082:	6bc4      	ldr	r4, [r0, #60]	; 0x3c
 8007084:	688a      	ldr	r2, [r1, #8]
 8007086:	f422 5280 	bic.w	r2, r2, #4096	; 0x1000
 800708a:	4322      	orrs	r2, r4
 800708c:	608a      	str	r2, [r1, #8]
 800708e:	0699      	lsls	r1, r3, #26
 8007090:	d506      	bpl.n	80070a0 <UART_AdvFeatureConfig+0x70>
 8007092:	6801      	ldr	r1, [r0, #0]
 8007094:	6c04      	ldr	r4, [r0, #64]	; 0x40
 8007096:	688a      	ldr	r2, [r1, #8]
 8007098:	f422 5200 	bic.w	r2, r2, #8192	; 0x2000
 800709c:	4322      	orrs	r2, r4
 800709e:	608a      	str	r2, [r1, #8]
 80070a0:	065a      	lsls	r2, r3, #25
 80070a2:	d50a      	bpl.n	80070ba <UART_AdvFeatureConfig+0x8a>
 80070a4:	6801      	ldr	r1, [r0, #0]
 80070a6:	6c44      	ldr	r4, [r0, #68]	; 0x44
 80070a8:	684a      	ldr	r2, [r1, #4]
 80070aa:	f5b4 1f80 	cmp.w	r4, #1048576	; 0x100000
 80070ae:	f422 1280 	bic.w	r2, r2, #1048576	; 0x100000
 80070b2:	ea42 0204 	orr.w	r2, r2, r4
 80070b6:	604a      	str	r2, [r1, #4]
 80070b8:	d00b      	beq.n	80070d2 <UART_AdvFeatureConfig+0xa2>
 80070ba:	061b      	lsls	r3, r3, #24
 80070bc:	d506      	bpl.n	80070cc <UART_AdvFeatureConfig+0x9c>
 80070be:	6802      	ldr	r2, [r0, #0]
 80070c0:	6cc1      	ldr	r1, [r0, #76]	; 0x4c
 80070c2:	6853      	ldr	r3, [r2, #4]
 80070c4:	f423 2300 	bic.w	r3, r3, #524288	; 0x80000
 80070c8:	430b      	orrs	r3, r1
 80070ca:	6053      	str	r3, [r2, #4]
 80070cc:	f85d 4b04 	ldr.w	r4, [sp], #4
 80070d0:	4770      	bx	lr
 80070d2:	684a      	ldr	r2, [r1, #4]
 80070d4:	6c84      	ldr	r4, [r0, #72]	; 0x48
 80070d6:	f422 02c0 	bic.w	r2, r2, #6291456	; 0x600000
 80070da:	4322      	orrs	r2, r4
 80070dc:	604a      	str	r2, [r1, #4]
 80070de:	e7ec      	b.n	80070ba <UART_AdvFeatureConfig+0x8a>

080070e0 <UART_WaitOnFlagUntilTimeout>:
 80070e0:	e92d 43f8 	stmdb	sp!, {r3, r4, r5, r6, r7, r8, r9, lr}
 80070e4:	f8dd 8020 	ldr.w	r8, [sp, #32]
 80070e8:	4607      	mov	r7, r0
 80070ea:	460e      	mov	r6, r1
 80070ec:	4615      	mov	r5, r2
 80070ee:	4699      	mov	r9, r3
 80070f0:	6804      	ldr	r4, [r0, #0]
 80070f2:	f1b8 3fff 	cmp.w	r8, #4294967295
 80070f6:	d10a      	bne.n	800710e <UART_WaitOnFlagUntilTimeout+0x2e>
 80070f8:	69e3      	ldr	r3, [r4, #28]
 80070fa:	ea36 0303 	bics.w	r3, r6, r3
 80070fe:	bf0c      	ite	eq
 8007100:	2301      	moveq	r3, #1
 8007102:	2300      	movne	r3, #0
 8007104:	429d      	cmp	r5, r3
 8007106:	d0f7      	beq.n	80070f8 <UART_WaitOnFlagUntilTimeout+0x18>
 8007108:	2000      	movs	r0, #0
 800710a:	e8bd 83f8 	ldmia.w	sp!, {r3, r4, r5, r6, r7, r8, r9, pc}
 800710e:	69e3      	ldr	r3, [r4, #28]
 8007110:	ea36 0303 	bics.w	r3, r6, r3
 8007114:	bf0c      	ite	eq
 8007116:	2301      	moveq	r3, #1
 8007118:	2300      	movne	r3, #0
 800711a:	42ab      	cmp	r3, r5
 800711c:	d1f4      	bne.n	8007108 <UART_WaitOnFlagUntilTimeout+0x28>
 800711e:	f7f9 fa97 	bl	8000650 <HAL_GetTick>
 8007122:	eba0 0009 	sub.w	r0, r0, r9
 8007126:	4540      	cmp	r0, r8
 8007128:	d833      	bhi.n	8007192 <UART_WaitOnFlagUntilTimeout+0xb2>
 800712a:	f1b8 0f00 	cmp.w	r8, #0
 800712e:	d030      	beq.n	8007192 <UART_WaitOnFlagUntilTimeout+0xb2>
 8007130:	683c      	ldr	r4, [r7, #0]
 8007132:	6823      	ldr	r3, [r4, #0]
 8007134:	4622      	mov	r2, r4
 8007136:	0759      	lsls	r1, r3, #29
 8007138:	d5db      	bpl.n	80070f2 <UART_WaitOnFlagUntilTimeout+0x12>
 800713a:	69e3      	ldr	r3, [r4, #28]
 800713c:	051b      	lsls	r3, r3, #20
 800713e:	d5d8      	bpl.n	80070f2 <UART_WaitOnFlagUntilTimeout+0x12>
 8007140:	f44f 6300 	mov.w	r3, #2048	; 0x800
 8007144:	6223      	str	r3, [r4, #32]
 8007146:	e854 3f00 	ldrex	r3, [r4]
 800714a:	f423 73d0 	bic.w	r3, r3, #416	; 0x1a0
 800714e:	e844 3100 	strex	r1, r3, [r4]
 8007152:	b139      	cbz	r1, 8007164 <UART_WaitOnFlagUntilTimeout+0x84>
 8007154:	e852 3f00 	ldrex	r3, [r2]
 8007158:	f423 73d0 	bic.w	r3, r3, #416	; 0x1a0
 800715c:	e842 3100 	strex	r1, r3, [r2]
 8007160:	2900      	cmp	r1, #0
 8007162:	d1f7      	bne.n	8007154 <UART_WaitOnFlagUntilTimeout+0x74>
 8007164:	f102 0308 	add.w	r3, r2, #8
 8007168:	e853 3f00 	ldrex	r3, [r3]
 800716c:	f023 0301 	bic.w	r3, r3, #1
 8007170:	f102 0008 	add.w	r0, r2, #8
 8007174:	e840 3100 	strex	r1, r3, [r0]
 8007178:	2900      	cmp	r1, #0
 800717a:	d1f3      	bne.n	8007164 <UART_WaitOnFlagUntilTimeout+0x84>
 800717c:	2320      	movs	r3, #32
 800717e:	2003      	movs	r0, #3
 8007180:	f887 1080 	strb.w	r1, [r7, #128]	; 0x80
 8007184:	f8c7 3084 	str.w	r3, [r7, #132]	; 0x84
 8007188:	f8c7 3088 	str.w	r3, [r7, #136]	; 0x88
 800718c:	f8c7 308c 	str.w	r3, [r7, #140]	; 0x8c
 8007190:	e7bb      	b.n	800710a <UART_WaitOnFlagUntilTimeout+0x2a>
 8007192:	683a      	ldr	r2, [r7, #0]
 8007194:	e852 3f00 	ldrex	r3, [r2]
 8007198:	f423 73d0 	bic.w	r3, r3, #416	; 0x1a0
 800719c:	e842 3100 	strex	r1, r3, [r2]
 80071a0:	2900      	cmp	r1, #0
 80071a2:	d1f7      	bne.n	8007194 <UART_WaitOnFlagUntilTimeout+0xb4>
 80071a4:	f102 0308 	add.w	r3, r2, #8
 80071a8:	e853 3f00 	ldrex	r3, [r3]
 80071ac:	f023 0301 	bic.w	r3, r3, #1
 80071b0:	f102 0008 	add.w	r0, r2, #8
 80071b4:	e840 3100 	strex	r1, r3, [r0]
 80071b8:	2900      	cmp	r1, #0
 80071ba:	d1f3      	bne.n	80071a4 <UART_WaitOnFlagUntilTimeout+0xc4>
 80071bc:	2320      	movs	r3, #32
 80071be:	2003      	movs	r0, #3
 80071c0:	f887 1080 	strb.w	r1, [r7, #128]	; 0x80
 80071c4:	f8c7 3084 	str.w	r3, [r7, #132]	; 0x84
 80071c8:	f8c7 3088 	str.w	r3, [r7, #136]	; 0x88
 80071cc:	e79d      	b.n	800710a <UART_WaitOnFlagUntilTimeout+0x2a>
 80071ce:	bf00      	nop

080071d0 <HAL_UART_Init>:
 80071d0:	2800      	cmp	r0, #0
 80071d2:	d066      	beq.n	80072a2 <HAL_UART_Init+0xd2>
 80071d4:	f8d0 3084 	ldr.w	r3, [r0, #132]	; 0x84
 80071d8:	b570      	push	{r4, r5, r6, lr}
 80071da:	4604      	mov	r4, r0
 80071dc:	b082      	sub	sp, #8
 80071de:	2b00      	cmp	r3, #0
 80071e0:	d04c      	beq.n	800727c <HAL_UART_Init+0xac>
 80071e2:	6822      	ldr	r2, [r4, #0]
 80071e4:	2324      	movs	r3, #36	; 0x24
 80071e6:	4620      	mov	r0, r4
 80071e8:	f8c4 3084 	str.w	r3, [r4, #132]	; 0x84
 80071ec:	6813      	ldr	r3, [r2, #0]
 80071ee:	f023 0301 	bic.w	r3, r3, #1
 80071f2:	6013      	str	r3, [r2, #0]
 80071f4:	f7ff fc7a 	bl	8006aec <UART_SetConfig>
 80071f8:	2801      	cmp	r0, #1
 80071fa:	d03c      	beq.n	8007276 <HAL_UART_Init+0xa6>
 80071fc:	6aa3      	ldr	r3, [r4, #40]	; 0x28
 80071fe:	2b00      	cmp	r3, #0
 8007200:	d135      	bne.n	800726e <HAL_UART_Init+0x9e>
 8007202:	6823      	ldr	r3, [r4, #0]
 8007204:	2600      	movs	r6, #0
 8007206:	6859      	ldr	r1, [r3, #4]
 8007208:	f421 4190 	bic.w	r1, r1, #18432	; 0x4800
 800720c:	6059      	str	r1, [r3, #4]
 800720e:	6899      	ldr	r1, [r3, #8]
 8007210:	f021 012a 	bic.w	r1, r1, #42	; 0x2a
 8007214:	6099      	str	r1, [r3, #8]
 8007216:	6819      	ldr	r1, [r3, #0]
 8007218:	f041 0101 	orr.w	r1, r1, #1
 800721c:	6019      	str	r1, [r3, #0]
 800721e:	f8c4 608c 	str.w	r6, [r4, #140]	; 0x8c
 8007222:	f7f9 fa15 	bl	8000650 <HAL_GetTick>
 8007226:	6823      	ldr	r3, [r4, #0]
 8007228:	4605      	mov	r5, r0
 800722a:	681a      	ldr	r2, [r3, #0]
 800722c:	0712      	lsls	r2, r2, #28
 800722e:	d40e      	bmi.n	800724e <HAL_UART_Init+0x7e>
 8007230:	681b      	ldr	r3, [r3, #0]
 8007232:	075b      	lsls	r3, r3, #29
 8007234:	d427      	bmi.n	8007286 <HAL_UART_Init+0xb6>
 8007236:	2300      	movs	r3, #0
 8007238:	2220      	movs	r2, #32
 800723a:	4618      	mov	r0, r3
 800723c:	f8c4 2084 	str.w	r2, [r4, #132]	; 0x84
 8007240:	f884 3080 	strb.w	r3, [r4, #128]	; 0x80
 8007244:	f8c4 2088 	str.w	r2, [r4, #136]	; 0x88
 8007248:	66e3      	str	r3, [r4, #108]	; 0x6c
 800724a:	b002      	add	sp, #8
 800724c:	bd70      	pop	{r4, r5, r6, pc}
 800724e:	f06f 407e 	mvn.w	r0, #4261412864	; 0xfe000000
 8007252:	4632      	mov	r2, r6
 8007254:	462b      	mov	r3, r5
 8007256:	f44f 1100 	mov.w	r1, #2097152	; 0x200000
 800725a:	9000      	str	r0, [sp, #0]
 800725c:	4620      	mov	r0, r4
 800725e:	f7ff ff3f 	bl	80070e0 <UART_WaitOnFlagUntilTimeout>
 8007262:	b9e0      	cbnz	r0, 800729e <HAL_UART_Init+0xce>
 8007264:	6823      	ldr	r3, [r4, #0]
 8007266:	681b      	ldr	r3, [r3, #0]
 8007268:	075b      	lsls	r3, r3, #29
 800726a:	d40c      	bmi.n	8007286 <HAL_UART_Init+0xb6>
 800726c:	e7e3      	b.n	8007236 <HAL_UART_Init+0x66>
 800726e:	4620      	mov	r0, r4
 8007270:	f7ff fede 	bl	8007030 <UART_AdvFeatureConfig>
 8007274:	e7c5      	b.n	8007202 <HAL_UART_Init+0x32>
 8007276:	2001      	movs	r0, #1
 8007278:	b002      	add	sp, #8
 800727a:	bd70      	pop	{r4, r5, r6, pc}
 800727c:	f880 3080 	strb.w	r3, [r0, #128]	; 0x80
 8007280:	f003 fd14 	bl	800acac <HAL_UART_MspInit>
 8007284:	e7ad      	b.n	80071e2 <HAL_UART_Init+0x12>
 8007286:	f06f 407e 	mvn.w	r0, #4261412864	; 0xfe000000
 800728a:	462b      	mov	r3, r5
 800728c:	2200      	movs	r2, #0
 800728e:	f44f 0180 	mov.w	r1, #4194304	; 0x400000
 8007292:	9000      	str	r0, [sp, #0]
 8007294:	4620      	mov	r0, r4
 8007296:	f7ff ff23 	bl	80070e0 <UART_WaitOnFlagUntilTimeout>
 800729a:	2800      	cmp	r0, #0
 800729c:	d0cb      	beq.n	8007236 <HAL_UART_Init+0x66>
 800729e:	2003      	movs	r0, #3
 80072a0:	e7d3      	b.n	800724a <HAL_UART_Init+0x7a>
 80072a2:	2001      	movs	r0, #1
 80072a4:	4770      	bx	lr
 80072a6:	bf00      	nop

080072a8 <UART_Start_Receive_DMA>:
 80072a8:	b5f8      	push	{r3, r4, r5, r6, r7, lr}
 80072aa:	4604      	mov	r4, r0
 80072ac:	2500      	movs	r5, #0
 80072ae:	6fc0      	ldr	r0, [r0, #124]	; 0x7c
 80072b0:	2322      	movs	r3, #34	; 0x22
 80072b2:	f8c4 508c 	str.w	r5, [r4, #140]	; 0x8c
 80072b6:	65a1      	str	r1, [r4, #88]	; 0x58
 80072b8:	f8a4 205c 	strh.w	r2, [r4, #92]	; 0x5c
 80072bc:	f8c4 3088 	str.w	r3, [r4, #136]	; 0x88
 80072c0:	b168      	cbz	r0, 80072de <UART_Start_Receive_DMA+0x36>
 80072c2:	4e20      	ldr	r6, [pc, #128]	; (8007344 <UART_Start_Receive_DMA+0x9c>)
 80072c4:	4613      	mov	r3, r2
 80072c6:	4f20      	ldr	r7, [pc, #128]	; (8007348 <UART_Start_Receive_DMA+0xa0>)
 80072c8:	460a      	mov	r2, r1
 80072ca:	6821      	ldr	r1, [r4, #0]
 80072cc:	6505      	str	r5, [r0, #80]	; 0x50
 80072ce:	3124      	adds	r1, #36	; 0x24
 80072d0:	e9c0 760f 	strd	r7, r6, [r0, #60]	; 0x3c
 80072d4:	4e1d      	ldr	r6, [pc, #116]	; (800734c <UART_Start_Receive_DMA+0xa4>)
 80072d6:	64c6      	str	r6, [r0, #76]	; 0x4c
 80072d8:	f7fa fc2a 	bl	8001b30 <HAL_DMA_Start_IT>
 80072dc:	bb40      	cbnz	r0, 8007330 <UART_Start_Receive_DMA+0x88>
 80072de:	2200      	movs	r2, #0
 80072e0:	6923      	ldr	r3, [r4, #16]
 80072e2:	f884 2080 	strb.w	r2, [r4, #128]	; 0x80
 80072e6:	b14b      	cbz	r3, 80072fc <UART_Start_Receive_DMA+0x54>
 80072e8:	6823      	ldr	r3, [r4, #0]
 80072ea:	e853 2f00 	ldrex	r2, [r3]
 80072ee:	f442 7280 	orr.w	r2, r2, #256	; 0x100
 80072f2:	e843 2100 	strex	r1, r2, [r3]
 80072f6:	2900      	cmp	r1, #0
 80072f8:	d1f7      	bne.n	80072ea <UART_Start_Receive_DMA+0x42>
 80072fa:	e000      	b.n	80072fe <UART_Start_Receive_DMA+0x56>
 80072fc:	6823      	ldr	r3, [r4, #0]
 80072fe:	f103 0208 	add.w	r2, r3, #8
 8007302:	e852 2f00 	ldrex	r2, [r2]
 8007306:	f042 0201 	orr.w	r2, r2, #1
 800730a:	f103 0008 	add.w	r0, r3, #8
 800730e:	e840 2100 	strex	r1, r2, [r0]
 8007312:	2900      	cmp	r1, #0
 8007314:	d1f3      	bne.n	80072fe <UART_Start_Receive_DMA+0x56>
 8007316:	f103 0208 	add.w	r2, r3, #8
 800731a:	e852 2f00 	ldrex	r2, [r2]
 800731e:	f042 0240 	orr.w	r2, r2, #64	; 0x40
 8007322:	f103 0108 	add.w	r1, r3, #8
 8007326:	e841 2000 	strex	r0, r2, [r1]
 800732a:	2800      	cmp	r0, #0
 800732c:	d1f3      	bne.n	8007316 <UART_Start_Receive_DMA+0x6e>
 800732e:	bdf8      	pop	{r3, r4, r5, r6, r7, pc}
 8007330:	2210      	movs	r2, #16
 8007332:	2320      	movs	r3, #32
 8007334:	2001      	movs	r0, #1
 8007336:	f884 5080 	strb.w	r5, [r4, #128]	; 0x80
 800733a:	f8c4 208c 	str.w	r2, [r4, #140]	; 0x8c
 800733e:	f8c4 3088 	str.w	r3, [r4, #136]	; 0x88
 8007342:	bdf8      	pop	{r3, r4, r5, r6, r7, pc}
 8007344:	08006a39 	.word	0x08006a39
 8007348:	08006a55 	.word	0x08006a55
 800734c:	080065e1 	.word	0x080065e1

08007350 <HAL_UART_Receive_DMA>:
 8007350:	f8d0 3088 	ldr.w	r3, [r0, #136]	; 0x88
 8007354:	2b20      	cmp	r3, #32
 8007356:	d121      	bne.n	800739c <HAL_UART_Receive_DMA+0x4c>
 8007358:	b1f1      	cbz	r1, 8007398 <HAL_UART_Receive_DMA+0x48>
 800735a:	fab2 f382 	clz	r3, r2
 800735e:	095b      	lsrs	r3, r3, #5
 8007360:	b1d2      	cbz	r2, 8007398 <HAL_UART_Receive_DMA+0x48>
 8007362:	b430      	push	{r4, r5}
 8007364:	f890 4080 	ldrb.w	r4, [r0, #128]	; 0x80
 8007368:	2c01      	cmp	r4, #1
 800736a:	d019      	beq.n	80073a0 <HAL_UART_Receive_DMA+0x50>
 800736c:	6804      	ldr	r4, [r0, #0]
 800736e:	2501      	movs	r5, #1
 8007370:	66c3      	str	r3, [r0, #108]	; 0x6c
 8007372:	4b0d      	ldr	r3, [pc, #52]	; (80073a8 <HAL_UART_Receive_DMA+0x58>)
 8007374:	f880 5080 	strb.w	r5, [r0, #128]	; 0x80
 8007378:	429c      	cmp	r4, r3
 800737a:	d00a      	beq.n	8007392 <HAL_UART_Receive_DMA+0x42>
 800737c:	6863      	ldr	r3, [r4, #4]
 800737e:	021b      	lsls	r3, r3, #8
 8007380:	d507      	bpl.n	8007392 <HAL_UART_Receive_DMA+0x42>
 8007382:	e854 3f00 	ldrex	r3, [r4]
 8007386:	f043 6380 	orr.w	r3, r3, #67108864	; 0x4000000
 800738a:	e844 3500 	strex	r5, r3, [r4]
 800738e:	2d00      	cmp	r5, #0
 8007390:	d1f7      	bne.n	8007382 <HAL_UART_Receive_DMA+0x32>
 8007392:	bc30      	pop	{r4, r5}
 8007394:	f7ff bf88 	b.w	80072a8 <UART_Start_Receive_DMA>
 8007398:	2001      	movs	r0, #1
 800739a:	4770      	bx	lr
 800739c:	2002      	movs	r0, #2
 800739e:	4770      	bx	lr
 80073a0:	2002      	movs	r0, #2
 80073a2:	bc30      	pop	{r4, r5}
 80073a4:	4770      	bx	lr
 80073a6:	bf00      	nop
 80073a8:	58000c00 	.word	0x58000c00

080073ac <HAL_UARTEx_WakeupCallback>:
 80073ac:	4770      	bx	lr
 80073ae:	bf00      	nop

080073b0 <HAL_UARTEx_RxFifoFullCallback>:
 80073b0:	4770      	bx	lr
 80073b2:	bf00      	nop

080073b4 <HAL_UARTEx_TxFifoEmptyCallback>:
 80073b4:	4770      	bx	lr
 80073b6:	bf00      	nop

080073b8 <HAL_UARTEx_DisableFifoMode>:
 80073b8:	f890 2080 	ldrb.w	r2, [r0, #128]	; 0x80
 80073bc:	2a01      	cmp	r2, #1
 80073be:	d017      	beq.n	80073f0 <HAL_UARTEx_DisableFifoMode+0x38>
 80073c0:	4603      	mov	r3, r0
 80073c2:	2024      	movs	r0, #36	; 0x24
 80073c4:	2100      	movs	r1, #0
 80073c6:	681a      	ldr	r2, [r3, #0]
 80073c8:	b470      	push	{r4, r5, r6}
 80073ca:	f8c3 0084 	str.w	r0, [r3, #132]	; 0x84
 80073ce:	2620      	movs	r6, #32
 80073d0:	6814      	ldr	r4, [r2, #0]
 80073d2:	4608      	mov	r0, r1
 80073d4:	6815      	ldr	r5, [r2, #0]
 80073d6:	f024 5400 	bic.w	r4, r4, #536870912	; 0x20000000
 80073da:	f025 0501 	bic.w	r5, r5, #1
 80073de:	6015      	str	r5, [r2, #0]
 80073e0:	6659      	str	r1, [r3, #100]	; 0x64
 80073e2:	6014      	str	r4, [r2, #0]
 80073e4:	f883 1080 	strb.w	r1, [r3, #128]	; 0x80
 80073e8:	f8c3 6084 	str.w	r6, [r3, #132]	; 0x84
 80073ec:	bc70      	pop	{r4, r5, r6}
 80073ee:	4770      	bx	lr
 80073f0:	2002      	movs	r0, #2
 80073f2:	4770      	bx	lr

080073f4 <HAL_UARTEx_SetTxFifoThreshold>:
 80073f4:	f890 2080 	ldrb.w	r2, [r0, #128]	; 0x80
 80073f8:	2a01      	cmp	r2, #1
 80073fa:	d033      	beq.n	8007464 <HAL_UARTEx_SetTxFifoThreshold+0x70>
 80073fc:	4603      	mov	r3, r0
 80073fe:	2024      	movs	r0, #36	; 0x24
 8007400:	681a      	ldr	r2, [r3, #0]
 8007402:	b4f0      	push	{r4, r5, r6, r7}
 8007404:	f8c3 0084 	str.w	r0, [r3, #132]	; 0x84
 8007408:	6814      	ldr	r4, [r2, #0]
 800740a:	6810      	ldr	r0, [r2, #0]
 800740c:	6e5d      	ldr	r5, [r3, #100]	; 0x64
 800740e:	f020 0001 	bic.w	r0, r0, #1
 8007412:	6010      	str	r0, [r2, #0]
 8007414:	6890      	ldr	r0, [r2, #8]
 8007416:	f020 4060 	bic.w	r0, r0, #3758096384	; 0xe0000000
 800741a:	4301      	orrs	r1, r0
 800741c:	6091      	str	r1, [r2, #8]
 800741e:	b1f5      	cbz	r5, 800745e <HAL_UARTEx_SetTxFifoThreshold+0x6a>
 8007420:	6896      	ldr	r6, [r2, #8]
 8007422:	6895      	ldr	r5, [r2, #8]
 8007424:	f3c6 6642 	ubfx	r6, r6, #25, #3
 8007428:	480f      	ldr	r0, [pc, #60]	; (8007468 <HAL_UARTEx_SetTxFifoThreshold+0x74>)
 800742a:	0f6d      	lsrs	r5, r5, #29
 800742c:	4f0f      	ldr	r7, [pc, #60]	; (800746c <HAL_UARTEx_SetTxFifoThreshold+0x78>)
 800742e:	5d81      	ldrb	r1, [r0, r6]
 8007430:	5d40      	ldrb	r0, [r0, r5]
 8007432:	0109      	lsls	r1, r1, #4
 8007434:	5dbe      	ldrb	r6, [r7, r6]
 8007436:	0100      	lsls	r0, r0, #4
 8007438:	5d7d      	ldrb	r5, [r7, r5]
 800743a:	fbb1 f1f6 	udiv	r1, r1, r6
 800743e:	fbb0 f0f5 	udiv	r0, r0, r5
 8007442:	2520      	movs	r5, #32
 8007444:	f8a3 1068 	strh.w	r1, [r3, #104]	; 0x68
 8007448:	2100      	movs	r1, #0
 800744a:	f8a3 006a 	strh.w	r0, [r3, #106]	; 0x6a
 800744e:	6014      	str	r4, [r2, #0]
 8007450:	4608      	mov	r0, r1
 8007452:	f8c3 5084 	str.w	r5, [r3, #132]	; 0x84
 8007456:	f883 1080 	strb.w	r1, [r3, #128]	; 0x80
 800745a:	bcf0      	pop	{r4, r5, r6, r7}
 800745c:	4770      	bx	lr
 800745e:	2101      	movs	r1, #1
 8007460:	4608      	mov	r0, r1
 8007462:	e7ee      	b.n	8007442 <HAL_UARTEx_SetTxFifoThreshold+0x4e>
 8007464:	2002      	movs	r0, #2
 8007466:	4770      	bx	lr
 8007468:	0800ba30 	.word	0x0800ba30
 800746c:	0800ba28 	.word	0x0800ba28

08007470 <HAL_UARTEx_SetRxFifoThreshold>:
 8007470:	f890 2080 	ldrb.w	r2, [r0, #128]	; 0x80
 8007474:	2a01      	cmp	r2, #1
 8007476:	d033      	beq.n	80074e0 <HAL_UARTEx_SetRxFifoThreshold+0x70>
 8007478:	4603      	mov	r3, r0
 800747a:	2024      	movs	r0, #36	; 0x24
 800747c:	681a      	ldr	r2, [r3, #0]
 800747e:	b4f0      	push	{r4, r5, r6, r7}
 8007480:	f8c3 0084 	str.w	r0, [r3, #132]	; 0x84
 8007484:	6814      	ldr	r4, [r2, #0]
 8007486:	6810      	ldr	r0, [r2, #0]
 8007488:	6e5d      	ldr	r5, [r3, #100]	; 0x64
 800748a:	f020 0001 	bic.w	r0, r0, #1
 800748e:	6010      	str	r0, [r2, #0]
 8007490:	6890      	ldr	r0, [r2, #8]
 8007492:	f020 6060 	bic.w	r0, r0, #234881024	; 0xe000000
 8007496:	4301      	orrs	r1, r0
 8007498:	6091      	str	r1, [r2, #8]
 800749a:	b1f5      	cbz	r5, 80074da <HAL_UARTEx_SetRxFifoThreshold+0x6a>
 800749c:	6896      	ldr	r6, [r2, #8]
 800749e:	6895      	ldr	r5, [r2, #8]
 80074a0:	f3c6 6642 	ubfx	r6, r6, #25, #3
 80074a4:	480f      	ldr	r0, [pc, #60]	; (80074e4 <HAL_UARTEx_SetRxFifoThreshold+0x74>)
 80074a6:	0f6d      	lsrs	r5, r5, #29
 80074a8:	4f0f      	ldr	r7, [pc, #60]	; (80074e8 <HAL_UARTEx_SetRxFifoThreshold+0x78>)
 80074aa:	5d81      	ldrb	r1, [r0, r6]
 80074ac:	5d40      	ldrb	r0, [r0, r5]
 80074ae:	0109      	lsls	r1, r1, #4
 80074b0:	5dbe      	ldrb	r6, [r7, r6]
 80074b2:	0100      	lsls	r0, r0, #4
 80074b4:	5d7d      	ldrb	r5, [r7, r5]
 80074b6:	fbb1 f1f6 	udiv	r1, r1, r6
 80074ba:	fbb0 f0f5 	udiv	r0, r0, r5
 80074be:	2520      	movs	r5, #32
 80074c0:	f8a3 1068 	strh.w	r1, [r3, #104]	; 0x68
 80074c4:	2100      	movs	r1, #0
 80074c6:	f8a3 006a 	strh.w	r0, [r3, #106]	; 0x6a
 80074ca:	6014      	str	r4, [r2, #0]
 80074cc:	4608      	mov	r0, r1
 80074ce:	f8c3 5084 	str.w	r5, [r3, #132]	; 0x84
 80074d2:	f883 1080 	strb.w	r1, [r3, #128]	; 0x80
 80074d6:	bcf0      	pop	{r4, r5, r6, r7}
 80074d8:	4770      	bx	lr
 80074da:	2101      	movs	r1, #1
 80074dc:	4608      	mov	r0, r1
 80074de:	e7ee      	b.n	80074be <HAL_UARTEx_SetRxFifoThreshold+0x4e>
 80074e0:	2002      	movs	r0, #2
 80074e2:	4770      	bx	lr
 80074e4:	0800ba30 	.word	0x0800ba30
 80074e8:	0800ba28 	.word	0x0800ba28

080074ec <osKernelStart>:
 80074ec:	b508      	push	{r3, lr}
 80074ee:	f001 f9db 	bl	80088a8 <vTaskStartScheduler>
 80074f2:	2000      	movs	r0, #0
 80074f4:	bd08      	pop	{r3, pc}
 80074f6:	bf00      	nop

080074f8 <osDelay>:
 80074f8:	2801      	cmp	r0, #1
 80074fa:	b508      	push	{r3, lr}
 80074fc:	bf38      	it	cc
 80074fe:	2001      	movcc	r0, #1
 8007500:	f001 f9a2 	bl	8008848 <vTaskDelay>
 8007504:	2000      	movs	r0, #0
 8007506:	bd08      	pop	{r3, pc}

08007508 <vListInitialise>:
 8007508:	f100 0308 	add.w	r3, r0, #8
 800750c:	f04f 31ff 	mov.w	r1, #4294967295
 8007510:	2200      	movs	r2, #0
 8007512:	6081      	str	r1, [r0, #8]
 8007514:	6002      	str	r2, [r0, #0]
 8007516:	6043      	str	r3, [r0, #4]
 8007518:	e9c0 3303 	strd	r3, r3, [r0, #12]
 800751c:	4770      	bx	lr
 800751e:	bf00      	nop

08007520 <vListInitialiseItem>:
 8007520:	2300      	movs	r3, #0
 8007522:	6103      	str	r3, [r0, #16]
 8007524:	4770      	bx	lr
 8007526:	bf00      	nop

08007528 <vListInsertEnd>:
 8007528:	6843      	ldr	r3, [r0, #4]
 800752a:	6802      	ldr	r2, [r0, #0]
 800752c:	b410      	push	{r4}
 800752e:	689c      	ldr	r4, [r3, #8]
 8007530:	3201      	adds	r2, #1
 8007532:	e9c1 3401 	strd	r3, r4, [r1, #4]
 8007536:	689c      	ldr	r4, [r3, #8]
 8007538:	6061      	str	r1, [r4, #4]
 800753a:	6099      	str	r1, [r3, #8]
 800753c:	f85d 4b04 	ldr.w	r4, [sp], #4
 8007540:	6108      	str	r0, [r1, #16]
 8007542:	6002      	str	r2, [r0, #0]
 8007544:	4770      	bx	lr
 8007546:	bf00      	nop

08007548 <vListInsert>:
 8007548:	b430      	push	{r4, r5}
 800754a:	680d      	ldr	r5, [r1, #0]
 800754c:	1c6b      	adds	r3, r5, #1
 800754e:	d010      	beq.n	8007572 <vListInsert+0x2a>
 8007550:	f100 0308 	add.w	r3, r0, #8
 8007554:	461c      	mov	r4, r3
 8007556:	685b      	ldr	r3, [r3, #4]
 8007558:	681a      	ldr	r2, [r3, #0]
 800755a:	42aa      	cmp	r2, r5
 800755c:	d9fa      	bls.n	8007554 <vListInsert+0xc>
 800755e:	6802      	ldr	r2, [r0, #0]
 8007560:	604b      	str	r3, [r1, #4]
 8007562:	3201      	adds	r2, #1
 8007564:	6099      	str	r1, [r3, #8]
 8007566:	608c      	str	r4, [r1, #8]
 8007568:	6061      	str	r1, [r4, #4]
 800756a:	6108      	str	r0, [r1, #16]
 800756c:	6002      	str	r2, [r0, #0]
 800756e:	bc30      	pop	{r4, r5}
 8007570:	4770      	bx	lr
 8007572:	6904      	ldr	r4, [r0, #16]
 8007574:	6863      	ldr	r3, [r4, #4]
 8007576:	e7f2      	b.n	800755e <vListInsert+0x16>

08007578 <uxListRemove>:
 8007578:	6903      	ldr	r3, [r0, #16]
 800757a:	b410      	push	{r4}
 800757c:	685c      	ldr	r4, [r3, #4]
 800757e:	e9d0 1201 	ldrd	r1, r2, [r0, #4]
 8007582:	4284      	cmp	r4, r0
 8007584:	f85d 4b04 	ldr.w	r4, [sp], #4
 8007588:	608a      	str	r2, [r1, #8]
 800758a:	6051      	str	r1, [r2, #4]
 800758c:	f04f 0100 	mov.w	r1, #0
 8007590:	bf08      	it	eq
 8007592:	605a      	streq	r2, [r3, #4]
 8007594:	681a      	ldr	r2, [r3, #0]
 8007596:	6101      	str	r1, [r0, #16]
 8007598:	3a01      	subs	r2, #1
 800759a:	601a      	str	r2, [r3, #0]
 800759c:	6818      	ldr	r0, [r3, #0]
 800759e:	4770      	bx	lr

080075a0 <prvCopyDataToQueue>:
 80075a0:	b570      	push	{r4, r5, r6, lr}
 80075a2:	4615      	mov	r5, r2
 80075a4:	6c02      	ldr	r2, [r0, #64]	; 0x40
 80075a6:	4604      	mov	r4, r0
 80075a8:	6b86      	ldr	r6, [r0, #56]	; 0x38
 80075aa:	b92a      	cbnz	r2, 80075b8 <prvCopyDataToQueue+0x18>
 80075ac:	6805      	ldr	r5, [r0, #0]
 80075ae:	b365      	cbz	r5, 800760a <prvCopyDataToQueue+0x6a>
 80075b0:	3601      	adds	r6, #1
 80075b2:	4610      	mov	r0, r2
 80075b4:	63a6      	str	r6, [r4, #56]	; 0x38
 80075b6:	bd70      	pop	{r4, r5, r6, pc}
 80075b8:	b97d      	cbnz	r5, 80075da <prvCopyDataToQueue+0x3a>
 80075ba:	6840      	ldr	r0, [r0, #4]
 80075bc:	f004 f91e 	bl	800b7fc <memcpy>
 80075c0:	6863      	ldr	r3, [r4, #4]
 80075c2:	6c21      	ldr	r1, [r4, #64]	; 0x40
 80075c4:	68a2      	ldr	r2, [r4, #8]
 80075c6:	440b      	add	r3, r1
 80075c8:	4293      	cmp	r3, r2
 80075ca:	6063      	str	r3, [r4, #4]
 80075cc:	d319      	bcc.n	8007602 <prvCopyDataToQueue+0x62>
 80075ce:	6822      	ldr	r2, [r4, #0]
 80075d0:	3601      	adds	r6, #1
 80075d2:	4628      	mov	r0, r5
 80075d4:	6062      	str	r2, [r4, #4]
 80075d6:	63a6      	str	r6, [r4, #56]	; 0x38
 80075d8:	bd70      	pop	{r4, r5, r6, pc}
 80075da:	68c0      	ldr	r0, [r0, #12]
 80075dc:	f004 f90e 	bl	800b7fc <memcpy>
 80075e0:	6c22      	ldr	r2, [r4, #64]	; 0x40
 80075e2:	68e3      	ldr	r3, [r4, #12]
 80075e4:	6821      	ldr	r1, [r4, #0]
 80075e6:	4250      	negs	r0, r2
 80075e8:	1a9b      	subs	r3, r3, r2
 80075ea:	428b      	cmp	r3, r1
 80075ec:	60e3      	str	r3, [r4, #12]
 80075ee:	d202      	bcs.n	80075f6 <prvCopyDataToQueue+0x56>
 80075f0:	68a3      	ldr	r3, [r4, #8]
 80075f2:	4403      	add	r3, r0
 80075f4:	60e3      	str	r3, [r4, #12]
 80075f6:	2d02      	cmp	r5, #2
 80075f8:	d00d      	beq.n	8007616 <prvCopyDataToQueue+0x76>
 80075fa:	3601      	adds	r6, #1
 80075fc:	2000      	movs	r0, #0
 80075fe:	63a6      	str	r6, [r4, #56]	; 0x38
 8007600:	bd70      	pop	{r4, r5, r6, pc}
 8007602:	3601      	adds	r6, #1
 8007604:	4628      	mov	r0, r5
 8007606:	63a6      	str	r6, [r4, #56]	; 0x38
 8007608:	bd70      	pop	{r4, r5, r6, pc}
 800760a:	6880      	ldr	r0, [r0, #8]
 800760c:	3601      	adds	r6, #1
 800760e:	f001 fc8f 	bl	8008f30 <xTaskPriorityDisinherit>
 8007612:	60a5      	str	r5, [r4, #8]
 8007614:	e7ce      	b.n	80075b4 <prvCopyDataToQueue+0x14>
 8007616:	2e01      	cmp	r6, #1
 8007618:	f04f 0000 	mov.w	r0, #0
 800761c:	bf38      	it	cc
 800761e:	2601      	movcc	r6, #1
 8007620:	e7c8      	b.n	80075b4 <prvCopyDataToQueue+0x14>
 8007622:	bf00      	nop

08007624 <xQueueGenericCreate>:
 8007624:	b940      	cbnz	r0, 8007638 <xQueueGenericCreate+0x14>
 8007626:	f04f 0350 	mov.w	r3, #80	; 0x50
 800762a:	f383 8811 	msr	BASEPRI, r3
 800762e:	f3bf 8f6f 	isb	sy
 8007632:	f3bf 8f4f 	dsb	sy
 8007636:	e7fe      	b.n	8007636 <xQueueGenericCreate+0x12>
 8007638:	b570      	push	{r4, r5, r6, lr}
 800763a:	4606      	mov	r6, r0
 800763c:	fb01 f000 	mul.w	r0, r1, r0
 8007640:	460d      	mov	r5, r1
 8007642:	3048      	adds	r0, #72	; 0x48
 8007644:	f002 f8f2 	bl	800982c <pvPortMalloc>
 8007648:	4604      	mov	r4, r0
 800764a:	b310      	cbz	r0, 8007692 <xQueueGenericCreate+0x6e>
 800764c:	bb1d      	cbnz	r5, 8007696 <xQueueGenericCreate+0x72>
 800764e:	4603      	mov	r3, r0
 8007650:	6023      	str	r3, [r4, #0]
 8007652:	e9c4 650f 	strd	r6, r5, [r4, #60]	; 0x3c
 8007656:	f001 ff85 	bl	8009564 <vPortEnterCritical>
 800765a:	6822      	ldr	r2, [r4, #0]
 800765c:	2000      	movs	r0, #0
 800765e:	25ff      	movs	r5, #255	; 0xff
 8007660:	6062      	str	r2, [r4, #4]
 8007662:	63a0      	str	r0, [r4, #56]	; 0x38
 8007664:	f104 0010 	add.w	r0, r4, #16
 8007668:	f884 5044 	strb.w	r5, [r4, #68]	; 0x44
 800766c:	f884 5045 	strb.w	r5, [r4, #69]	; 0x45
 8007670:	e9d4 310f 	ldrd	r3, r1, [r4, #60]	; 0x3c
 8007674:	fb03 f301 	mul.w	r3, r3, r1
 8007678:	1a59      	subs	r1, r3, r1
 800767a:	4413      	add	r3, r2
 800767c:	440a      	add	r2, r1
 800767e:	60a3      	str	r3, [r4, #8]
 8007680:	60e2      	str	r2, [r4, #12]
 8007682:	f7ff ff41 	bl	8007508 <vListInitialise>
 8007686:	f104 0024 	add.w	r0, r4, #36	; 0x24
 800768a:	f7ff ff3d 	bl	8007508 <vListInitialise>
 800768e:	f001 ff8b 	bl	80095a8 <vPortExitCritical>
 8007692:	4620      	mov	r0, r4
 8007694:	bd70      	pop	{r4, r5, r6, pc}
 8007696:	f100 0348 	add.w	r3, r0, #72	; 0x48
 800769a:	e7d9      	b.n	8007650 <xQueueGenericCreate+0x2c>

0800769c <xQueueGenericSend>:
 800769c:	e92d 4ff0 	stmdb	sp!, {r4, r5, r6, r7, r8, r9, sl, fp, lr}
 80076a0:	b085      	sub	sp, #20
 80076a2:	9201      	str	r2, [sp, #4]
 80076a4:	2800      	cmp	r0, #0
 80076a6:	f000 8108 	beq.w	80078ba <xQueueGenericSend+0x21e>
 80076aa:	4689      	mov	r9, r1
 80076ac:	4604      	mov	r4, r0
 80076ae:	4698      	mov	r8, r3
 80076b0:	2900      	cmp	r1, #0
 80076b2:	f000 809b 	beq.w	80077ec <xQueueGenericSend+0x150>
 80076b6:	f1b8 0f02 	cmp.w	r8, #2
 80076ba:	d10b      	bne.n	80076d4 <xQueueGenericSend+0x38>
 80076bc:	6be3      	ldr	r3, [r4, #60]	; 0x3c
 80076be:	2b01      	cmp	r3, #1
 80076c0:	d008      	beq.n	80076d4 <xQueueGenericSend+0x38>
 80076c2:	f04f 0350 	mov.w	r3, #80	; 0x50
 80076c6:	f383 8811 	msr	BASEPRI, r3
 80076ca:	f3bf 8f6f 	isb	sy
 80076ce:	f3bf 8f4f 	dsb	sy
 80076d2:	e7fe      	b.n	80076d2 <xQueueGenericSend+0x36>
 80076d4:	f001 fbcc 	bl	8008e70 <xTaskGetSchedulerState>
 80076d8:	2800      	cmp	r0, #0
 80076da:	f000 80f7 	beq.w	80078cc <xQueueGenericSend+0x230>
 80076de:	f1a8 0602 	sub.w	r6, r8, #2
 80076e2:	2500      	movs	r5, #0
 80076e4:	f104 0724 	add.w	r7, r4, #36	; 0x24
 80076e8:	f8df a2bc 	ldr.w	sl, [pc, #700]	; 80079a8 <xQueueGenericSend+0x30c>
 80076ec:	fab6 f686 	clz	r6, r6
 80076f0:	0976      	lsrs	r6, r6, #5
 80076f2:	f001 ff37 	bl	8009564 <vPortEnterCritical>
 80076f6:	6ba2      	ldr	r2, [r4, #56]	; 0x38
 80076f8:	6be3      	ldr	r3, [r4, #60]	; 0x3c
 80076fa:	429a      	cmp	r2, r3
 80076fc:	f0c0 80f3 	bcc.w	80078e6 <xQueueGenericSend+0x24a>
 8007700:	2e00      	cmp	r6, #0
 8007702:	f040 80f0 	bne.w	80078e6 <xQueueGenericSend+0x24a>
 8007706:	9b01      	ldr	r3, [sp, #4]
 8007708:	2b00      	cmp	r3, #0
 800770a:	f000 8109 	beq.w	8007920 <xQueueGenericSend+0x284>
 800770e:	2d00      	cmp	r5, #0
 8007710:	f000 80ce 	beq.w	80078b0 <xQueueGenericSend+0x214>
 8007714:	ad02      	add	r5, sp, #8
 8007716:	f001 ff47 	bl	80095a8 <vPortExitCritical>
 800771a:	f001 f9e1 	bl	8008ae0 <vTaskSuspendAll>
 800771e:	f001 ff21 	bl	8009564 <vPortEnterCritical>
 8007722:	f894 3044 	ldrb.w	r3, [r4, #68]	; 0x44
 8007726:	2bff      	cmp	r3, #255	; 0xff
 8007728:	d102      	bne.n	8007730 <xQueueGenericSend+0x94>
 800772a:	2300      	movs	r3, #0
 800772c:	f884 3044 	strb.w	r3, [r4, #68]	; 0x44
 8007730:	f894 3045 	ldrb.w	r3, [r4, #69]	; 0x45
 8007734:	2bff      	cmp	r3, #255	; 0xff
 8007736:	d102      	bne.n	800773e <xQueueGenericSend+0xa2>
 8007738:	2300      	movs	r3, #0
 800773a:	f884 3045 	strb.w	r3, [r4, #69]	; 0x45
 800773e:	f001 ff33 	bl	80095a8 <vPortExitCritical>
 8007742:	4628      	mov	r0, r5
 8007744:	a901      	add	r1, sp, #4
 8007746:	f001 fb45 	bl	8008dd4 <xTaskCheckForTimeOut>
 800774a:	2800      	cmp	r0, #0
 800774c:	f040 80ec 	bne.w	8007928 <xQueueGenericSend+0x28c>
 8007750:	f001 ff08 	bl	8009564 <vPortEnterCritical>
 8007754:	6ba2      	ldr	r2, [r4, #56]	; 0x38
 8007756:	6be3      	ldr	r3, [r4, #60]	; 0x3c
 8007758:	429a      	cmp	r2, r3
 800775a:	d054      	beq.n	8007806 <xQueueGenericSend+0x16a>
 800775c:	f001 ff24 	bl	80095a8 <vPortExitCritical>
 8007760:	f001 ff00 	bl	8009564 <vPortEnterCritical>
 8007764:	f894 5045 	ldrb.w	r5, [r4, #69]	; 0x45
 8007768:	b26d      	sxtb	r5, r5
 800776a:	2d00      	cmp	r5, #0
 800776c:	dc05      	bgt.n	800777a <xQueueGenericSend+0xde>
 800776e:	e012      	b.n	8007796 <xQueueGenericSend+0xfa>
 8007770:	1e6b      	subs	r3, r5, #1
 8007772:	f013 0fff 	tst.w	r3, #255	; 0xff
 8007776:	b25d      	sxtb	r5, r3
 8007778:	d00d      	beq.n	8007796 <xQueueGenericSend+0xfa>
 800777a:	6a63      	ldr	r3, [r4, #36]	; 0x24
 800777c:	4638      	mov	r0, r7
 800777e:	b153      	cbz	r3, 8007796 <xQueueGenericSend+0xfa>
 8007780:	f001 fad2 	bl	8008d28 <xTaskRemoveFromEventList>
 8007784:	2800      	cmp	r0, #0
 8007786:	d0f3      	beq.n	8007770 <xQueueGenericSend+0xd4>
 8007788:	f001 fb6c 	bl	8008e64 <vTaskMissedYield>
 800778c:	1e6b      	subs	r3, r5, #1
 800778e:	f013 0fff 	tst.w	r3, #255	; 0xff
 8007792:	b25d      	sxtb	r5, r3
 8007794:	d1f1      	bne.n	800777a <xQueueGenericSend+0xde>
 8007796:	23ff      	movs	r3, #255	; 0xff
 8007798:	f884 3045 	strb.w	r3, [r4, #69]	; 0x45
 800779c:	f001 ff04 	bl	80095a8 <vPortExitCritical>
 80077a0:	f001 fee0 	bl	8009564 <vPortEnterCritical>
 80077a4:	f894 5044 	ldrb.w	r5, [r4, #68]	; 0x44
 80077a8:	b26d      	sxtb	r5, r5
 80077aa:	2d00      	cmp	r5, #0
 80077ac:	dd15      	ble.n	80077da <xQueueGenericSend+0x13e>
 80077ae:	f104 0b10 	add.w	fp, r4, #16
 80077b2:	e004      	b.n	80077be <xQueueGenericSend+0x122>
 80077b4:	1e6b      	subs	r3, r5, #1
 80077b6:	f013 0fff 	tst.w	r3, #255	; 0xff
 80077ba:	b25d      	sxtb	r5, r3
 80077bc:	d00d      	beq.n	80077da <xQueueGenericSend+0x13e>
 80077be:	6923      	ldr	r3, [r4, #16]
 80077c0:	4658      	mov	r0, fp
 80077c2:	b153      	cbz	r3, 80077da <xQueueGenericSend+0x13e>
 80077c4:	f001 fab0 	bl	8008d28 <xTaskRemoveFromEventList>
 80077c8:	2800      	cmp	r0, #0
 80077ca:	d0f3      	beq.n	80077b4 <xQueueGenericSend+0x118>
 80077cc:	f001 fb4a 	bl	8008e64 <vTaskMissedYield>
 80077d0:	1e6b      	subs	r3, r5, #1
 80077d2:	f013 0fff 	tst.w	r3, #255	; 0xff
 80077d6:	b25d      	sxtb	r5, r3
 80077d8:	d1f1      	bne.n	80077be <xQueueGenericSend+0x122>
 80077da:	23ff      	movs	r3, #255	; 0xff
 80077dc:	f884 3044 	strb.w	r3, [r4, #68]	; 0x44
 80077e0:	f001 fee2 	bl	80095a8 <vPortExitCritical>
 80077e4:	f001 f984 	bl	8008af0 <xTaskResumeAll>
 80077e8:	2501      	movs	r5, #1
 80077ea:	e782      	b.n	80076f2 <xQueueGenericSend+0x56>
 80077ec:	6c03      	ldr	r3, [r0, #64]	; 0x40
 80077ee:	2b00      	cmp	r3, #0
 80077f0:	f43f af61 	beq.w	80076b6 <xQueueGenericSend+0x1a>
 80077f4:	f04f 0350 	mov.w	r3, #80	; 0x50
 80077f8:	f383 8811 	msr	BASEPRI, r3
 80077fc:	f3bf 8f6f 	isb	sy
 8007800:	f3bf 8f4f 	dsb	sy
 8007804:	e7fe      	b.n	8007804 <xQueueGenericSend+0x168>
 8007806:	f104 0b10 	add.w	fp, r4, #16
 800780a:	f001 fecd 	bl	80095a8 <vPortExitCritical>
 800780e:	9901      	ldr	r1, [sp, #4]
 8007810:	4658      	mov	r0, fp
 8007812:	f001 f9d3 	bl	8008bbc <vTaskPlaceOnEventList>
 8007816:	f001 fea5 	bl	8009564 <vPortEnterCritical>
 800781a:	f894 5045 	ldrb.w	r5, [r4, #69]	; 0x45
 800781e:	b26d      	sxtb	r5, r5
 8007820:	2d00      	cmp	r5, #0
 8007822:	dc05      	bgt.n	8007830 <xQueueGenericSend+0x194>
 8007824:	e012      	b.n	800784c <xQueueGenericSend+0x1b0>
 8007826:	1e6b      	subs	r3, r5, #1
 8007828:	f013 0fff 	tst.w	r3, #255	; 0xff
 800782c:	b25d      	sxtb	r5, r3
 800782e:	d00d      	beq.n	800784c <xQueueGenericSend+0x1b0>
 8007830:	6a63      	ldr	r3, [r4, #36]	; 0x24
 8007832:	4638      	mov	r0, r7
 8007834:	b153      	cbz	r3, 800784c <xQueueGenericSend+0x1b0>
 8007836:	f001 fa77 	bl	8008d28 <xTaskRemoveFromEventList>
 800783a:	2800      	cmp	r0, #0
 800783c:	d0f3      	beq.n	8007826 <xQueueGenericSend+0x18a>
 800783e:	f001 fb11 	bl	8008e64 <vTaskMissedYield>
 8007842:	1e6b      	subs	r3, r5, #1
 8007844:	f013 0fff 	tst.w	r3, #255	; 0xff
 8007848:	b25d      	sxtb	r5, r3
 800784a:	d1f1      	bne.n	8007830 <xQueueGenericSend+0x194>
 800784c:	23ff      	movs	r3, #255	; 0xff
 800784e:	f884 3045 	strb.w	r3, [r4, #69]	; 0x45
 8007852:	f001 fea9 	bl	80095a8 <vPortExitCritical>
 8007856:	f001 fe85 	bl	8009564 <vPortEnterCritical>
 800785a:	f894 5044 	ldrb.w	r5, [r4, #68]	; 0x44
 800785e:	b26d      	sxtb	r5, r5
 8007860:	2d00      	cmp	r5, #0
 8007862:	dc05      	bgt.n	8007870 <xQueueGenericSend+0x1d4>
 8007864:	e012      	b.n	800788c <xQueueGenericSend+0x1f0>
 8007866:	1e6b      	subs	r3, r5, #1
 8007868:	f013 0fff 	tst.w	r3, #255	; 0xff
 800786c:	b25d      	sxtb	r5, r3
 800786e:	d00d      	beq.n	800788c <xQueueGenericSend+0x1f0>
 8007870:	6923      	ldr	r3, [r4, #16]
 8007872:	4658      	mov	r0, fp
 8007874:	b153      	cbz	r3, 800788c <xQueueGenericSend+0x1f0>
 8007876:	f001 fa57 	bl	8008d28 <xTaskRemoveFromEventList>
 800787a:	2800      	cmp	r0, #0
 800787c:	d0f3      	beq.n	8007866 <xQueueGenericSend+0x1ca>
 800787e:	f001 faf1 	bl	8008e64 <vTaskMissedYield>
 8007882:	1e6b      	subs	r3, r5, #1
 8007884:	f013 0fff 	tst.w	r3, #255	; 0xff
 8007888:	b25d      	sxtb	r5, r3
 800788a:	d1f1      	bne.n	8007870 <xQueueGenericSend+0x1d4>
 800788c:	23ff      	movs	r3, #255	; 0xff
 800788e:	f884 3044 	strb.w	r3, [r4, #68]	; 0x44
 8007892:	f001 fe89 	bl	80095a8 <vPortExitCritical>
 8007896:	f001 f92b 	bl	8008af0 <xTaskResumeAll>
 800789a:	2800      	cmp	r0, #0
 800789c:	d1a4      	bne.n	80077e8 <xQueueGenericSend+0x14c>
 800789e:	f04f 5380 	mov.w	r3, #268435456	; 0x10000000
 80078a2:	f8ca 3000 	str.w	r3, [sl]
 80078a6:	f3bf 8f4f 	dsb	sy
 80078aa:	f3bf 8f6f 	isb	sy
 80078ae:	e79b      	b.n	80077e8 <xQueueGenericSend+0x14c>
 80078b0:	ad02      	add	r5, sp, #8
 80078b2:	4628      	mov	r0, r5
 80078b4:	f001 fa82 	bl	8008dbc <vTaskInternalSetTimeOutState>
 80078b8:	e72d      	b.n	8007716 <xQueueGenericSend+0x7a>
 80078ba:	f04f 0350 	mov.w	r3, #80	; 0x50
 80078be:	f383 8811 	msr	BASEPRI, r3
 80078c2:	f3bf 8f6f 	isb	sy
 80078c6:	f3bf 8f4f 	dsb	sy
 80078ca:	e7fe      	b.n	80078ca <xQueueGenericSend+0x22e>
 80078cc:	9b01      	ldr	r3, [sp, #4]
 80078ce:	2b00      	cmp	r3, #0
 80078d0:	f43f af05 	beq.w	80076de <xQueueGenericSend+0x42>
 80078d4:	f04f 0350 	mov.w	r3, #80	; 0x50
 80078d8:	f383 8811 	msr	BASEPRI, r3
 80078dc:	f3bf 8f6f 	isb	sy
 80078e0:	f3bf 8f4f 	dsb	sy
 80078e4:	e7fe      	b.n	80078e4 <xQueueGenericSend+0x248>
 80078e6:	4642      	mov	r2, r8
 80078e8:	4649      	mov	r1, r9
 80078ea:	4620      	mov	r0, r4
 80078ec:	f7ff fe58 	bl	80075a0 <prvCopyDataToQueue>
 80078f0:	6a63      	ldr	r3, [r4, #36]	; 0x24
 80078f2:	b973      	cbnz	r3, 8007912 <xQueueGenericSend+0x276>
 80078f4:	b138      	cbz	r0, 8007906 <xQueueGenericSend+0x26a>
 80078f6:	4b2c      	ldr	r3, [pc, #176]	; (80079a8 <xQueueGenericSend+0x30c>)
 80078f8:	f04f 5280 	mov.w	r2, #268435456	; 0x10000000
 80078fc:	601a      	str	r2, [r3, #0]
 80078fe:	f3bf 8f4f 	dsb	sy
 8007902:	f3bf 8f6f 	isb	sy
 8007906:	f001 fe4f 	bl	80095a8 <vPortExitCritical>
 800790a:	2001      	movs	r0, #1
 800790c:	b005      	add	sp, #20
 800790e:	e8bd 8ff0 	ldmia.w	sp!, {r4, r5, r6, r7, r8, r9, sl, fp, pc}
 8007912:	f104 0024 	add.w	r0, r4, #36	; 0x24
 8007916:	f001 fa07 	bl	8008d28 <xTaskRemoveFromEventList>
 800791a:	2800      	cmp	r0, #0
 800791c:	d0f3      	beq.n	8007906 <xQueueGenericSend+0x26a>
 800791e:	e7ea      	b.n	80078f6 <xQueueGenericSend+0x25a>
 8007920:	f001 fe42 	bl	80095a8 <vPortExitCritical>
 8007924:	4630      	mov	r0, r6
 8007926:	e7f1      	b.n	800790c <xQueueGenericSend+0x270>
 8007928:	f001 fe1c 	bl	8009564 <vPortEnterCritical>
 800792c:	f894 5045 	ldrb.w	r5, [r4, #69]	; 0x45
 8007930:	b26d      	sxtb	r5, r5
 8007932:	2d00      	cmp	r5, #0
 8007934:	dd11      	ble.n	800795a <xQueueGenericSend+0x2be>
 8007936:	f104 0624 	add.w	r6, r4, #36	; 0x24
 800793a:	e004      	b.n	8007946 <xQueueGenericSend+0x2aa>
 800793c:	1e6b      	subs	r3, r5, #1
 800793e:	f013 0fff 	tst.w	r3, #255	; 0xff
 8007942:	b25d      	sxtb	r5, r3
 8007944:	d009      	beq.n	800795a <xQueueGenericSend+0x2be>
 8007946:	6a63      	ldr	r3, [r4, #36]	; 0x24
 8007948:	4630      	mov	r0, r6
 800794a:	b133      	cbz	r3, 800795a <xQueueGenericSend+0x2be>
 800794c:	f001 f9ec 	bl	8008d28 <xTaskRemoveFromEventList>
 8007950:	2800      	cmp	r0, #0
 8007952:	d0f3      	beq.n	800793c <xQueueGenericSend+0x2a0>
 8007954:	f001 fa86 	bl	8008e64 <vTaskMissedYield>
 8007958:	e7f0      	b.n	800793c <xQueueGenericSend+0x2a0>
 800795a:	23ff      	movs	r3, #255	; 0xff
 800795c:	f884 3045 	strb.w	r3, [r4, #69]	; 0x45
 8007960:	f001 fe22 	bl	80095a8 <vPortExitCritical>
 8007964:	f001 fdfe 	bl	8009564 <vPortEnterCritical>
 8007968:	f894 5044 	ldrb.w	r5, [r4, #68]	; 0x44
 800796c:	b26d      	sxtb	r5, r5
 800796e:	2d00      	cmp	r5, #0
 8007970:	dd11      	ble.n	8007996 <xQueueGenericSend+0x2fa>
 8007972:	f104 0610 	add.w	r6, r4, #16
 8007976:	e004      	b.n	8007982 <xQueueGenericSend+0x2e6>
 8007978:	1e6b      	subs	r3, r5, #1
 800797a:	f013 0fff 	tst.w	r3, #255	; 0xff
 800797e:	b25d      	sxtb	r5, r3
 8007980:	d009      	beq.n	8007996 <xQueueGenericSend+0x2fa>
 8007982:	6923      	ldr	r3, [r4, #16]
 8007984:	4630      	mov	r0, r6
 8007986:	b133      	cbz	r3, 8007996 <xQueueGenericSend+0x2fa>
 8007988:	f001 f9ce 	bl	8008d28 <xTaskRemoveFromEventList>
 800798c:	2800      	cmp	r0, #0
 800798e:	d0f3      	beq.n	8007978 <xQueueGenericSend+0x2dc>
 8007990:	f001 fa68 	bl	8008e64 <vTaskMissedYield>
 8007994:	e7f0      	b.n	8007978 <xQueueGenericSend+0x2dc>
 8007996:	23ff      	movs	r3, #255	; 0xff
 8007998:	f884 3044 	strb.w	r3, [r4, #68]	; 0x44
 800799c:	f001 fe04 	bl	80095a8 <vPortExitCritical>
 80079a0:	f001 f8a6 	bl	8008af0 <xTaskResumeAll>
 80079a4:	2000      	movs	r0, #0
 80079a6:	e7b1      	b.n	800790c <xQueueGenericSend+0x270>
 80079a8:	e000ed04 	.word	0xe000ed04

080079ac <xQueueCreateMutex>:
 80079ac:	b570      	push	{r4, r5, r6, lr}
 80079ae:	2048      	movs	r0, #72	; 0x48
 80079b0:	f001 ff3c 	bl	800982c <pvPortMalloc>
 80079b4:	4604      	mov	r4, r0
 80079b6:	b350      	cbz	r0, 8007a0e <xQueueCreateMutex+0x62>
 80079b8:	2500      	movs	r5, #0
 80079ba:	2301      	movs	r3, #1
 80079bc:	6020      	str	r0, [r4, #0]
 80079be:	26ff      	movs	r6, #255	; 0xff
 80079c0:	e9c0 350f 	strd	r3, r5, [r0, #60]	; 0x3c
 80079c4:	f001 fdce 	bl	8009564 <vPortEnterCritical>
 80079c8:	6823      	ldr	r3, [r4, #0]
 80079ca:	63a5      	str	r5, [r4, #56]	; 0x38
 80079cc:	f104 0010 	add.w	r0, r4, #16
 80079d0:	6063      	str	r3, [r4, #4]
 80079d2:	f884 6044 	strb.w	r6, [r4, #68]	; 0x44
 80079d6:	f884 6045 	strb.w	r6, [r4, #69]	; 0x45
 80079da:	e9d4 210f 	ldrd	r2, r1, [r4, #60]	; 0x3c
 80079de:	fb02 f201 	mul.w	r2, r2, r1
 80079e2:	1a51      	subs	r1, r2, r1
 80079e4:	441a      	add	r2, r3
 80079e6:	440b      	add	r3, r1
 80079e8:	60a2      	str	r2, [r4, #8]
 80079ea:	60e3      	str	r3, [r4, #12]
 80079ec:	f7ff fd8c 	bl	8007508 <vListInitialise>
 80079f0:	f104 0024 	add.w	r0, r4, #36	; 0x24
 80079f4:	f7ff fd88 	bl	8007508 <vListInitialise>
 80079f8:	f001 fdd6 	bl	80095a8 <vPortExitCritical>
 80079fc:	462b      	mov	r3, r5
 80079fe:	462a      	mov	r2, r5
 8007a00:	4629      	mov	r1, r5
 8007a02:	4620      	mov	r0, r4
 8007a04:	60a5      	str	r5, [r4, #8]
 8007a06:	6025      	str	r5, [r4, #0]
 8007a08:	60e5      	str	r5, [r4, #12]
 8007a0a:	f7ff fe47 	bl	800769c <xQueueGenericSend>
 8007a0e:	4620      	mov	r0, r4
 8007a10:	bd70      	pop	{r4, r5, r6, pc}
 8007a12:	bf00      	nop

08007a14 <xQueueGiveFromISR>:
 8007a14:	b360      	cbz	r0, 8007a70 <xQueueGiveFromISR+0x5c>
 8007a16:	6c03      	ldr	r3, [r0, #64]	; 0x40
 8007a18:	b570      	push	{r4, r5, r6, lr}
 8007a1a:	4604      	mov	r4, r0
 8007a1c:	b143      	cbz	r3, 8007a30 <xQueueGiveFromISR+0x1c>
 8007a1e:	f04f 0350 	mov.w	r3, #80	; 0x50
 8007a22:	f383 8811 	msr	BASEPRI, r3
 8007a26:	f3bf 8f6f 	isb	sy
 8007a2a:	f3bf 8f4f 	dsb	sy
 8007a2e:	e7fe      	b.n	8007a2e <xQueueGiveFromISR+0x1a>
 8007a30:	6803      	ldr	r3, [r0, #0]
 8007a32:	460d      	mov	r5, r1
 8007a34:	b32b      	cbz	r3, 8007a82 <xQueueGiveFromISR+0x6e>
 8007a36:	f001 fecb 	bl	80097d0 <vPortValidateInterruptPriority>
 8007a3a:	f3ef 8611 	mrs	r6, BASEPRI
 8007a3e:	f04f 0350 	mov.w	r3, #80	; 0x50
 8007a42:	f383 8811 	msr	BASEPRI, r3
 8007a46:	f3bf 8f6f 	isb	sy
 8007a4a:	f3bf 8f4f 	dsb	sy
 8007a4e:	6ba3      	ldr	r3, [r4, #56]	; 0x38
 8007a50:	6be2      	ldr	r2, [r4, #60]	; 0x3c
 8007a52:	429a      	cmp	r2, r3
 8007a54:	d921      	bls.n	8007a9a <xQueueGiveFromISR+0x86>
 8007a56:	f894 2045 	ldrb.w	r2, [r4, #69]	; 0x45
 8007a5a:	3301      	adds	r3, #1
 8007a5c:	2aff      	cmp	r2, #255	; 0xff
 8007a5e:	63a3      	str	r3, [r4, #56]	; 0x38
 8007a60:	b253      	sxtb	r3, r2
 8007a62:	d01e      	beq.n	8007aa2 <xQueueGiveFromISR+0x8e>
 8007a64:	3301      	adds	r3, #1
 8007a66:	2001      	movs	r0, #1
 8007a68:	b25b      	sxtb	r3, r3
 8007a6a:	f884 3045 	strb.w	r3, [r4, #69]	; 0x45
 8007a6e:	e015      	b.n	8007a9c <xQueueGiveFromISR+0x88>
 8007a70:	f04f 0350 	mov.w	r3, #80	; 0x50
 8007a74:	f383 8811 	msr	BASEPRI, r3
 8007a78:	f3bf 8f6f 	isb	sy
 8007a7c:	f3bf 8f4f 	dsb	sy
 8007a80:	e7fe      	b.n	8007a80 <xQueueGiveFromISR+0x6c>
 8007a82:	6883      	ldr	r3, [r0, #8]
 8007a84:	2b00      	cmp	r3, #0
 8007a86:	d0d6      	beq.n	8007a36 <xQueueGiveFromISR+0x22>
 8007a88:	f04f 0350 	mov.w	r3, #80	; 0x50
 8007a8c:	f383 8811 	msr	BASEPRI, r3
 8007a90:	f3bf 8f6f 	isb	sy
 8007a94:	f3bf 8f4f 	dsb	sy
 8007a98:	e7fe      	b.n	8007a98 <xQueueGiveFromISR+0x84>
 8007a9a:	2000      	movs	r0, #0
 8007a9c:	f386 8811 	msr	BASEPRI, r6
 8007aa0:	bd70      	pop	{r4, r5, r6, pc}
 8007aa2:	6a63      	ldr	r3, [r4, #36]	; 0x24
 8007aa4:	b90b      	cbnz	r3, 8007aaa <xQueueGiveFromISR+0x96>
 8007aa6:	2001      	movs	r0, #1
 8007aa8:	e7f8      	b.n	8007a9c <xQueueGiveFromISR+0x88>
 8007aaa:	f104 0024 	add.w	r0, r4, #36	; 0x24
 8007aae:	f001 f93b 	bl	8008d28 <xTaskRemoveFromEventList>
 8007ab2:	2d00      	cmp	r5, #0
 8007ab4:	d0f7      	beq.n	8007aa6 <xQueueGiveFromISR+0x92>
 8007ab6:	2800      	cmp	r0, #0
 8007ab8:	d0f5      	beq.n	8007aa6 <xQueueGiveFromISR+0x92>
 8007aba:	2001      	movs	r0, #1
 8007abc:	6028      	str	r0, [r5, #0]
 8007abe:	e7ed      	b.n	8007a9c <xQueueGiveFromISR+0x88>

08007ac0 <xQueueReceive>:
 8007ac0:	e92d 43f0 	stmdb	sp!, {r4, r5, r6, r7, r8, r9, lr}
 8007ac4:	b085      	sub	sp, #20
 8007ac6:	9201      	str	r2, [sp, #4]
 8007ac8:	2800      	cmp	r0, #0
 8007aca:	f000 80f5 	beq.w	8007cb8 <xQueueReceive+0x1f8>
 8007ace:	460e      	mov	r6, r1
 8007ad0:	4604      	mov	r4, r0
 8007ad2:	2900      	cmp	r1, #0
 8007ad4:	f000 808a 	beq.w	8007bec <xQueueReceive+0x12c>
 8007ad8:	f001 f9ca 	bl	8008e70 <xTaskGetSchedulerState>
 8007adc:	2800      	cmp	r0, #0
 8007ade:	d079      	beq.n	8007bd4 <xQueueReceive+0x114>
 8007ae0:	f001 fd40 	bl	8009564 <vPortEnterCritical>
 8007ae4:	6ba5      	ldr	r5, [r4, #56]	; 0x38
 8007ae6:	2d00      	cmp	r5, #0
 8007ae8:	f040 8148 	bne.w	8007d7c <xQueueReceive+0x2bc>
 8007aec:	9b01      	ldr	r3, [sp, #4]
 8007aee:	2b00      	cmp	r3, #0
 8007af0:	f000 80dc 	beq.w	8007cac <xQueueReceive+0x1ec>
 8007af4:	a802      	add	r0, sp, #8
 8007af6:	f104 0724 	add.w	r7, r4, #36	; 0x24
 8007afa:	f8df 82c8 	ldr.w	r8, [pc, #712]	; 8007dc4 <xQueueReceive+0x304>
 8007afe:	f001 f95d 	bl	8008dbc <vTaskInternalSetTimeOutState>
 8007b02:	f001 fd51 	bl	80095a8 <vPortExitCritical>
 8007b06:	f000 ffeb 	bl	8008ae0 <vTaskSuspendAll>
 8007b0a:	f001 fd2b 	bl	8009564 <vPortEnterCritical>
 8007b0e:	f894 3044 	ldrb.w	r3, [r4, #68]	; 0x44
 8007b12:	2bff      	cmp	r3, #255	; 0xff
 8007b14:	d102      	bne.n	8007b1c <xQueueReceive+0x5c>
 8007b16:	2300      	movs	r3, #0
 8007b18:	f884 3044 	strb.w	r3, [r4, #68]	; 0x44
 8007b1c:	f894 3045 	ldrb.w	r3, [r4, #69]	; 0x45
 8007b20:	2bff      	cmp	r3, #255	; 0xff
 8007b22:	d102      	bne.n	8007b2a <xQueueReceive+0x6a>
 8007b24:	2300      	movs	r3, #0
 8007b26:	f884 3045 	strb.w	r3, [r4, #69]	; 0x45
 8007b2a:	f001 fd3d 	bl	80095a8 <vPortExitCritical>
 8007b2e:	a901      	add	r1, sp, #4
 8007b30:	a802      	add	r0, sp, #8
 8007b32:	f001 f94f 	bl	8008dd4 <xTaskCheckForTimeOut>
 8007b36:	2800      	cmp	r0, #0
 8007b38:	d165      	bne.n	8007c06 <xQueueReceive+0x146>
 8007b3a:	f001 fd13 	bl	8009564 <vPortEnterCritical>
 8007b3e:	6ba3      	ldr	r3, [r4, #56]	; 0x38
 8007b40:	2b00      	cmp	r3, #0
 8007b42:	f000 80c2 	beq.w	8007cca <xQueueReceive+0x20a>
 8007b46:	f001 fd2f 	bl	80095a8 <vPortExitCritical>
 8007b4a:	f001 fd0b 	bl	8009564 <vPortEnterCritical>
 8007b4e:	f894 5045 	ldrb.w	r5, [r4, #69]	; 0x45
 8007b52:	b26d      	sxtb	r5, r5
 8007b54:	2d00      	cmp	r5, #0
 8007b56:	dc05      	bgt.n	8007b64 <xQueueReceive+0xa4>
 8007b58:	e012      	b.n	8007b80 <xQueueReceive+0xc0>
 8007b5a:	1e6b      	subs	r3, r5, #1
 8007b5c:	f013 0fff 	tst.w	r3, #255	; 0xff
 8007b60:	b25d      	sxtb	r5, r3
 8007b62:	d00d      	beq.n	8007b80 <xQueueReceive+0xc0>
 8007b64:	6a63      	ldr	r3, [r4, #36]	; 0x24
 8007b66:	4638      	mov	r0, r7
 8007b68:	b153      	cbz	r3, 8007b80 <xQueueReceive+0xc0>
 8007b6a:	f001 f8dd 	bl	8008d28 <xTaskRemoveFromEventList>
 8007b6e:	2800      	cmp	r0, #0
 8007b70:	d0f3      	beq.n	8007b5a <xQueueReceive+0x9a>
 8007b72:	f001 f977 	bl	8008e64 <vTaskMissedYield>
 8007b76:	1e6b      	subs	r3, r5, #1
 8007b78:	f013 0fff 	tst.w	r3, #255	; 0xff
 8007b7c:	b25d      	sxtb	r5, r3
 8007b7e:	d1f1      	bne.n	8007b64 <xQueueReceive+0xa4>
 8007b80:	23ff      	movs	r3, #255	; 0xff
 8007b82:	f884 3045 	strb.w	r3, [r4, #69]	; 0x45
 8007b86:	f001 fd0f 	bl	80095a8 <vPortExitCritical>
 8007b8a:	f001 fceb 	bl	8009564 <vPortEnterCritical>
 8007b8e:	f894 5044 	ldrb.w	r5, [r4, #68]	; 0x44
 8007b92:	b26d      	sxtb	r5, r5
 8007b94:	2d00      	cmp	r5, #0
 8007b96:	dd15      	ble.n	8007bc4 <xQueueReceive+0x104>
 8007b98:	f104 0910 	add.w	r9, r4, #16
 8007b9c:	e004      	b.n	8007ba8 <xQueueReceive+0xe8>
 8007b9e:	1e6b      	subs	r3, r5, #1
 8007ba0:	f013 0fff 	tst.w	r3, #255	; 0xff
 8007ba4:	b25d      	sxtb	r5, r3
 8007ba6:	d00d      	beq.n	8007bc4 <xQueueReceive+0x104>
 8007ba8:	6923      	ldr	r3, [r4, #16]
 8007baa:	4648      	mov	r0, r9
 8007bac:	b153      	cbz	r3, 8007bc4 <xQueueReceive+0x104>
 8007bae:	f001 f8bb 	bl	8008d28 <xTaskRemoveFromEventList>
 8007bb2:	2800      	cmp	r0, #0
 8007bb4:	d0f3      	beq.n	8007b9e <xQueueReceive+0xde>
 8007bb6:	f001 f955 	bl	8008e64 <vTaskMissedYield>
 8007bba:	1e6b      	subs	r3, r5, #1
 8007bbc:	f013 0fff 	tst.w	r3, #255	; 0xff
 8007bc0:	b25d      	sxtb	r5, r3
 8007bc2:	d1f1      	bne.n	8007ba8 <xQueueReceive+0xe8>
 8007bc4:	23ff      	movs	r3, #255	; 0xff
 8007bc6:	f884 3044 	strb.w	r3, [r4, #68]	; 0x44
 8007bca:	f001 fced 	bl	80095a8 <vPortExitCritical>
 8007bce:	f000 ff8f 	bl	8008af0 <xTaskResumeAll>
 8007bd2:	e062      	b.n	8007c9a <xQueueReceive+0x1da>
 8007bd4:	9b01      	ldr	r3, [sp, #4]
 8007bd6:	2b00      	cmp	r3, #0
 8007bd8:	d082      	beq.n	8007ae0 <xQueueReceive+0x20>
 8007bda:	f04f 0350 	mov.w	r3, #80	; 0x50
 8007bde:	f383 8811 	msr	BASEPRI, r3
 8007be2:	f3bf 8f6f 	isb	sy
 8007be6:	f3bf 8f4f 	dsb	sy
 8007bea:	e7fe      	b.n	8007bea <xQueueReceive+0x12a>
 8007bec:	6c03      	ldr	r3, [r0, #64]	; 0x40
 8007bee:	2b00      	cmp	r3, #0
 8007bf0:	f43f af72 	beq.w	8007ad8 <xQueueReceive+0x18>
 8007bf4:	f04f 0350 	mov.w	r3, #80	; 0x50
 8007bf8:	f383 8811 	msr	BASEPRI, r3
 8007bfc:	f3bf 8f6f 	isb	sy
 8007c00:	f3bf 8f4f 	dsb	sy
 8007c04:	e7fe      	b.n	8007c04 <xQueueReceive+0x144>
 8007c06:	f001 fcad 	bl	8009564 <vPortEnterCritical>
 8007c0a:	f894 5045 	ldrb.w	r5, [r4, #69]	; 0x45
 8007c0e:	b26d      	sxtb	r5, r5
 8007c10:	2d00      	cmp	r5, #0
 8007c12:	dc05      	bgt.n	8007c20 <xQueueReceive+0x160>
 8007c14:	e012      	b.n	8007c3c <xQueueReceive+0x17c>
 8007c16:	1e6b      	subs	r3, r5, #1
 8007c18:	f013 0fff 	tst.w	r3, #255	; 0xff
 8007c1c:	b25d      	sxtb	r5, r3
 8007c1e:	d00d      	beq.n	8007c3c <xQueueReceive+0x17c>
 8007c20:	6a63      	ldr	r3, [r4, #36]	; 0x24
 8007c22:	4638      	mov	r0, r7
 8007c24:	b153      	cbz	r3, 8007c3c <xQueueReceive+0x17c>
 8007c26:	f001 f87f 	bl	8008d28 <xTaskRemoveFromEventList>
 8007c2a:	2800      	cmp	r0, #0
 8007c2c:	d0f3      	beq.n	8007c16 <xQueueReceive+0x156>
 8007c2e:	f001 f919 	bl	8008e64 <vTaskMissedYield>
 8007c32:	1e6b      	subs	r3, r5, #1
 8007c34:	f013 0fff 	tst.w	r3, #255	; 0xff
 8007c38:	b25d      	sxtb	r5, r3
 8007c3a:	d1f1      	bne.n	8007c20 <xQueueReceive+0x160>
 8007c3c:	23ff      	movs	r3, #255	; 0xff
 8007c3e:	f884 3045 	strb.w	r3, [r4, #69]	; 0x45
 8007c42:	f001 fcb1 	bl	80095a8 <vPortExitCritical>
 8007c46:	f001 fc8d 	bl	8009564 <vPortEnterCritical>
 8007c4a:	f894 5044 	ldrb.w	r5, [r4, #68]	; 0x44
 8007c4e:	b26d      	sxtb	r5, r5
 8007c50:	2d00      	cmp	r5, #0
 8007c52:	dd15      	ble.n	8007c80 <xQueueReceive+0x1c0>
 8007c54:	f104 0910 	add.w	r9, r4, #16
 8007c58:	e004      	b.n	8007c64 <xQueueReceive+0x1a4>
 8007c5a:	1e6b      	subs	r3, r5, #1
 8007c5c:	f013 0fff 	tst.w	r3, #255	; 0xff
 8007c60:	b25d      	sxtb	r5, r3
 8007c62:	d00d      	beq.n	8007c80 <xQueueReceive+0x1c0>
 8007c64:	6923      	ldr	r3, [r4, #16]
 8007c66:	4648      	mov	r0, r9
 8007c68:	b153      	cbz	r3, 8007c80 <xQueueReceive+0x1c0>
 8007c6a:	f001 f85d 	bl	8008d28 <xTaskRemoveFromEventList>
 8007c6e:	2800      	cmp	r0, #0
 8007c70:	d0f3      	beq.n	8007c5a <xQueueReceive+0x19a>
 8007c72:	f001 f8f7 	bl	8008e64 <vTaskMissedYield>
 8007c76:	1e6b      	subs	r3, r5, #1
 8007c78:	f013 0fff 	tst.w	r3, #255	; 0xff
 8007c7c:	b25d      	sxtb	r5, r3
 8007c7e:	d1f1      	bne.n	8007c64 <xQueueReceive+0x1a4>
 8007c80:	23ff      	movs	r3, #255	; 0xff
 8007c82:	f884 3044 	strb.w	r3, [r4, #68]	; 0x44
 8007c86:	f001 fc8f 	bl	80095a8 <vPortExitCritical>
 8007c8a:	f000 ff31 	bl	8008af0 <xTaskResumeAll>
 8007c8e:	f001 fc69 	bl	8009564 <vPortEnterCritical>
 8007c92:	6ba3      	ldr	r3, [r4, #56]	; 0x38
 8007c94:	b153      	cbz	r3, 8007cac <xQueueReceive+0x1ec>
 8007c96:	f001 fc87 	bl	80095a8 <vPortExitCritical>
 8007c9a:	f001 fc63 	bl	8009564 <vPortEnterCritical>
 8007c9e:	6ba5      	ldr	r5, [r4, #56]	; 0x38
 8007ca0:	2d00      	cmp	r5, #0
 8007ca2:	d16b      	bne.n	8007d7c <xQueueReceive+0x2bc>
 8007ca4:	9b01      	ldr	r3, [sp, #4]
 8007ca6:	2b00      	cmp	r3, #0
 8007ca8:	f47f af2b 	bne.w	8007b02 <xQueueReceive+0x42>
 8007cac:	f001 fc7c 	bl	80095a8 <vPortExitCritical>
 8007cb0:	2000      	movs	r0, #0
 8007cb2:	b005      	add	sp, #20
 8007cb4:	e8bd 83f0 	ldmia.w	sp!, {r4, r5, r6, r7, r8, r9, pc}
 8007cb8:	f04f 0350 	mov.w	r3, #80	; 0x50
 8007cbc:	f383 8811 	msr	BASEPRI, r3
 8007cc0:	f3bf 8f6f 	isb	sy
 8007cc4:	f3bf 8f4f 	dsb	sy
 8007cc8:	e7fe      	b.n	8007cc8 <xQueueReceive+0x208>
 8007cca:	f001 fc6d 	bl	80095a8 <vPortExitCritical>
 8007cce:	9901      	ldr	r1, [sp, #4]
 8007cd0:	4638      	mov	r0, r7
 8007cd2:	f000 ff73 	bl	8008bbc <vTaskPlaceOnEventList>
 8007cd6:	f001 fc45 	bl	8009564 <vPortEnterCritical>
 8007cda:	f894 5045 	ldrb.w	r5, [r4, #69]	; 0x45
 8007cde:	b26d      	sxtb	r5, r5
 8007ce0:	2d00      	cmp	r5, #0
 8007ce2:	dc05      	bgt.n	8007cf0 <xQueueReceive+0x230>
 8007ce4:	e012      	b.n	8007d0c <xQueueReceive+0x24c>
 8007ce6:	1e6b      	subs	r3, r5, #1
 8007ce8:	f013 0fff 	tst.w	r3, #255	; 0xff
 8007cec:	b25d      	sxtb	r5, r3
 8007cee:	d00d      	beq.n	8007d0c <xQueueReceive+0x24c>
 8007cf0:	6a63      	ldr	r3, [r4, #36]	; 0x24
 8007cf2:	4638      	mov	r0, r7
 8007cf4:	b153      	cbz	r3, 8007d0c <xQueueReceive+0x24c>
 8007cf6:	f001 f817 	bl	8008d28 <xTaskRemoveFromEventList>
 8007cfa:	2800      	cmp	r0, #0
 8007cfc:	d0f3      	beq.n	8007ce6 <xQueueReceive+0x226>
 8007cfe:	f001 f8b1 	bl	8008e64 <vTaskMissedYield>
 8007d02:	1e6b      	subs	r3, r5, #1
 8007d04:	f013 0fff 	tst.w	r3, #255	; 0xff
 8007d08:	b25d      	sxtb	r5, r3
 8007d0a:	d1f1      	bne.n	8007cf0 <xQueueReceive+0x230>
 8007d0c:	23ff      	movs	r3, #255	; 0xff
 8007d0e:	f884 3045 	strb.w	r3, [r4, #69]	; 0x45
 8007d12:	f001 fc49 	bl	80095a8 <vPortExitCritical>
 8007d16:	f001 fc25 	bl	8009564 <vPortEnterCritical>
 8007d1a:	f894 5044 	ldrb.w	r5, [r4, #68]	; 0x44
 8007d1e:	b26d      	sxtb	r5, r5
 8007d20:	2d00      	cmp	r5, #0
 8007d22:	dd15      	ble.n	8007d50 <xQueueReceive+0x290>
 8007d24:	f104 0910 	add.w	r9, r4, #16
 8007d28:	e004      	b.n	8007d34 <xQueueReceive+0x274>
 8007d2a:	1e6b      	subs	r3, r5, #1
 8007d2c:	f013 0fff 	tst.w	r3, #255	; 0xff
 8007d30:	b25d      	sxtb	r5, r3
 8007d32:	d00d      	beq.n	8007d50 <xQueueReceive+0x290>
 8007d34:	6923      	ldr	r3, [r4, #16]
 8007d36:	4648      	mov	r0, r9
 8007d38:	b153      	cbz	r3, 8007d50 <xQueueReceive+0x290>
 8007d3a:	f000 fff5 	bl	8008d28 <xTaskRemoveFromEventList>
 8007d3e:	2800      	cmp	r0, #0
 8007d40:	d0f3      	beq.n	8007d2a <xQueueReceive+0x26a>
 8007d42:	f001 f88f 	bl	8008e64 <vTaskMissedYield>
 8007d46:	1e6b      	subs	r3, r5, #1
 8007d48:	f013 0fff 	tst.w	r3, #255	; 0xff
 8007d4c:	b25d      	sxtb	r5, r3
 8007d4e:	d1f1      	bne.n	8007d34 <xQueueReceive+0x274>
 8007d50:	23ff      	movs	r3, #255	; 0xff
 8007d52:	f884 3044 	strb.w	r3, [r4, #68]	; 0x44
 8007d56:	f001 fc27 	bl	80095a8 <vPortExitCritical>
 8007d5a:	f000 fec9 	bl	8008af0 <xTaskResumeAll>
 8007d5e:	2800      	cmp	r0, #0
 8007d60:	d19b      	bne.n	8007c9a <xQueueReceive+0x1da>
 8007d62:	f04f 5380 	mov.w	r3, #268435456	; 0x10000000
 8007d66:	f8c8 3000 	str.w	r3, [r8]
 8007d6a:	f3bf 8f4f 	dsb	sy
 8007d6e:	f3bf 8f6f 	isb	sy
 8007d72:	f001 fbf7 	bl	8009564 <vPortEnterCritical>
 8007d76:	6ba5      	ldr	r5, [r4, #56]	; 0x38
 8007d78:	2d00      	cmp	r5, #0
 8007d7a:	d093      	beq.n	8007ca4 <xQueueReceive+0x1e4>
 8007d7c:	6c22      	ldr	r2, [r4, #64]	; 0x40
 8007d7e:	b152      	cbz	r2, 8007d96 <xQueueReceive+0x2d6>
 8007d80:	e9d4 0302 	ldrd	r0, r3, [r4, #8]
 8007d84:	1899      	adds	r1, r3, r2
 8007d86:	4281      	cmp	r1, r0
 8007d88:	60e1      	str	r1, [r4, #12]
 8007d8a:	d301      	bcc.n	8007d90 <xQueueReceive+0x2d0>
 8007d8c:	6821      	ldr	r1, [r4, #0]
 8007d8e:	60e1      	str	r1, [r4, #12]
 8007d90:	4630      	mov	r0, r6
 8007d92:	f003 fd33 	bl	800b7fc <memcpy>
 8007d96:	3d01      	subs	r5, #1
 8007d98:	63a5      	str	r5, [r4, #56]	; 0x38
 8007d9a:	6923      	ldr	r3, [r4, #16]
 8007d9c:	b91b      	cbnz	r3, 8007da6 <xQueueReceive+0x2e6>
 8007d9e:	f001 fc03 	bl	80095a8 <vPortExitCritical>
 8007da2:	2001      	movs	r0, #1
 8007da4:	e785      	b.n	8007cb2 <xQueueReceive+0x1f2>
 8007da6:	f104 0010 	add.w	r0, r4, #16
 8007daa:	f000 ffbd 	bl	8008d28 <xTaskRemoveFromEventList>
 8007dae:	2800      	cmp	r0, #0
 8007db0:	d0f5      	beq.n	8007d9e <xQueueReceive+0x2de>
 8007db2:	4b04      	ldr	r3, [pc, #16]	; (8007dc4 <xQueueReceive+0x304>)
 8007db4:	f04f 5280 	mov.w	r2, #268435456	; 0x10000000
 8007db8:	601a      	str	r2, [r3, #0]
 8007dba:	f3bf 8f4f 	dsb	sy
 8007dbe:	f3bf 8f6f 	isb	sy
 8007dc2:	e7ec      	b.n	8007d9e <xQueueReceive+0x2de>
 8007dc4:	e000ed04 	.word	0xe000ed04

08007dc8 <xQueueSemaphoreTake>:
 8007dc8:	e92d 43f0 	stmdb	sp!, {r4, r5, r6, r7, r8, r9, lr}
 8007dcc:	b085      	sub	sp, #20
 8007dce:	9101      	str	r1, [sp, #4]
 8007dd0:	b158      	cbz	r0, 8007dea <xQueueSemaphoreTake+0x22>
 8007dd2:	6c05      	ldr	r5, [r0, #64]	; 0x40
 8007dd4:	4604      	mov	r4, r0
 8007dd6:	b18d      	cbz	r5, 8007dfc <xQueueSemaphoreTake+0x34>
 8007dd8:	f04f 0350 	mov.w	r3, #80	; 0x50
 8007ddc:	f383 8811 	msr	BASEPRI, r3
 8007de0:	f3bf 8f6f 	isb	sy
 8007de4:	f3bf 8f4f 	dsb	sy
 8007de8:	e7fe      	b.n	8007de8 <xQueueSemaphoreTake+0x20>
 8007dea:	f04f 0350 	mov.w	r3, #80	; 0x50
 8007dee:	f383 8811 	msr	BASEPRI, r3
 8007df2:	f3bf 8f6f 	isb	sy
 8007df6:	f3bf 8f4f 	dsb	sy
 8007dfa:	e7fe      	b.n	8007dfa <xQueueSemaphoreTake+0x32>
 8007dfc:	f001 f838 	bl	8008e70 <xTaskGetSchedulerState>
 8007e00:	4606      	mov	r6, r0
 8007e02:	2800      	cmp	r0, #0
 8007e04:	f000 80c7 	beq.w	8007f96 <xQueueSemaphoreTake+0x1ce>
 8007e08:	462e      	mov	r6, r5
 8007e0a:	f104 0724 	add.w	r7, r4, #36	; 0x24
 8007e0e:	f8df 82d0 	ldr.w	r8, [pc, #720]	; 80080e0 <xQueueSemaphoreTake+0x318>
 8007e12:	f001 fba7 	bl	8009564 <vPortEnterCritical>
 8007e16:	6ba3      	ldr	r3, [r4, #56]	; 0x38
 8007e18:	2b00      	cmp	r3, #0
 8007e1a:	f040 8121 	bne.w	8008060 <xQueueSemaphoreTake+0x298>
 8007e1e:	9b01      	ldr	r3, [sp, #4]
 8007e20:	2b00      	cmp	r3, #0
 8007e22:	f000 8152 	beq.w	80080ca <xQueueSemaphoreTake+0x302>
 8007e26:	2e00      	cmp	r6, #0
 8007e28:	f000 80b0 	beq.w	8007f8c <xQueueSemaphoreTake+0x1c4>
 8007e2c:	ae02      	add	r6, sp, #8
 8007e2e:	f001 fbbb 	bl	80095a8 <vPortExitCritical>
 8007e32:	f000 fe55 	bl	8008ae0 <vTaskSuspendAll>
 8007e36:	f001 fb95 	bl	8009564 <vPortEnterCritical>
 8007e3a:	f894 3044 	ldrb.w	r3, [r4, #68]	; 0x44
 8007e3e:	2bff      	cmp	r3, #255	; 0xff
 8007e40:	d102      	bne.n	8007e48 <xQueueSemaphoreTake+0x80>
 8007e42:	2300      	movs	r3, #0
 8007e44:	f884 3044 	strb.w	r3, [r4, #68]	; 0x44
 8007e48:	f894 3045 	ldrb.w	r3, [r4, #69]	; 0x45
 8007e4c:	2bff      	cmp	r3, #255	; 0xff
 8007e4e:	d102      	bne.n	8007e56 <xQueueSemaphoreTake+0x8e>
 8007e50:	2300      	movs	r3, #0
 8007e52:	f884 3045 	strb.w	r3, [r4, #69]	; 0x45
 8007e56:	f001 fba7 	bl	80095a8 <vPortExitCritical>
 8007e5a:	4630      	mov	r0, r6
 8007e5c:	a901      	add	r1, sp, #4
 8007e5e:	f000 ffb9 	bl	8008dd4 <xTaskCheckForTimeOut>
 8007e62:	b9f8      	cbnz	r0, 8007ea4 <xQueueSemaphoreTake+0xdc>
 8007e64:	f001 fb7e 	bl	8009564 <vPortEnterCritical>
 8007e68:	6ba3      	ldr	r3, [r4, #56]	; 0x38
 8007e6a:	2b00      	cmp	r3, #0
 8007e6c:	f000 80a0 	beq.w	8007fb0 <xQueueSemaphoreTake+0x1e8>
 8007e70:	f001 fb9a 	bl	80095a8 <vPortExitCritical>
 8007e74:	f001 fb76 	bl	8009564 <vPortEnterCritical>
 8007e78:	f894 6045 	ldrb.w	r6, [r4, #69]	; 0x45
 8007e7c:	b276      	sxtb	r6, r6
 8007e7e:	2e00      	cmp	r6, #0
 8007e80:	dc05      	bgt.n	8007e8e <xQueueSemaphoreTake+0xc6>
 8007e82:	e05d      	b.n	8007f40 <xQueueSemaphoreTake+0x178>
 8007e84:	1e73      	subs	r3, r6, #1
 8007e86:	f013 0fff 	tst.w	r3, #255	; 0xff
 8007e8a:	b25e      	sxtb	r6, r3
 8007e8c:	d058      	beq.n	8007f40 <xQueueSemaphoreTake+0x178>
 8007e8e:	6a63      	ldr	r3, [r4, #36]	; 0x24
 8007e90:	4638      	mov	r0, r7
 8007e92:	2b00      	cmp	r3, #0
 8007e94:	d054      	beq.n	8007f40 <xQueueSemaphoreTake+0x178>
 8007e96:	f000 ff47 	bl	8008d28 <xTaskRemoveFromEventList>
 8007e9a:	2800      	cmp	r0, #0
 8007e9c:	d0f2      	beq.n	8007e84 <xQueueSemaphoreTake+0xbc>
 8007e9e:	f000 ffe1 	bl	8008e64 <vTaskMissedYield>
 8007ea2:	e7ef      	b.n	8007e84 <xQueueSemaphoreTake+0xbc>
 8007ea4:	f001 fb5e 	bl	8009564 <vPortEnterCritical>
 8007ea8:	f894 6045 	ldrb.w	r6, [r4, #69]	; 0x45
 8007eac:	b276      	sxtb	r6, r6
 8007eae:	2e00      	cmp	r6, #0
 8007eb0:	dc05      	bgt.n	8007ebe <xQueueSemaphoreTake+0xf6>
 8007eb2:	e012      	b.n	8007eda <xQueueSemaphoreTake+0x112>
 8007eb4:	1e73      	subs	r3, r6, #1
 8007eb6:	f013 0fff 	tst.w	r3, #255	; 0xff
 8007eba:	b25e      	sxtb	r6, r3
 8007ebc:	d00d      	beq.n	8007eda <xQueueSemaphoreTake+0x112>
 8007ebe:	6a63      	ldr	r3, [r4, #36]	; 0x24
 8007ec0:	4638      	mov	r0, r7
 8007ec2:	b153      	cbz	r3, 8007eda <xQueueSemaphoreTake+0x112>
 8007ec4:	f000 ff30 	bl	8008d28 <xTaskRemoveFromEventList>
 8007ec8:	2800      	cmp	r0, #0
 8007eca:	d0f3      	beq.n	8007eb4 <xQueueSemaphoreTake+0xec>
 8007ecc:	f000 ffca 	bl	8008e64 <vTaskMissedYield>
 8007ed0:	1e73      	subs	r3, r6, #1
 8007ed2:	f013 0fff 	tst.w	r3, #255	; 0xff
 8007ed6:	b25e      	sxtb	r6, r3
 8007ed8:	d1f1      	bne.n	8007ebe <xQueueSemaphoreTake+0xf6>
 8007eda:	23ff      	movs	r3, #255	; 0xff
 8007edc:	f884 3045 	strb.w	r3, [r4, #69]	; 0x45
 8007ee0:	f001 fb62 	bl	80095a8 <vPortExitCritical>
 8007ee4:	f001 fb3e 	bl	8009564 <vPortEnterCritical>
 8007ee8:	f894 6044 	ldrb.w	r6, [r4, #68]	; 0x44
 8007eec:	b276      	sxtb	r6, r6
 8007eee:	2e00      	cmp	r6, #0
 8007ef0:	dd15      	ble.n	8007f1e <xQueueSemaphoreTake+0x156>
 8007ef2:	f104 0910 	add.w	r9, r4, #16
 8007ef6:	e004      	b.n	8007f02 <xQueueSemaphoreTake+0x13a>
 8007ef8:	1e73      	subs	r3, r6, #1
 8007efa:	f013 0fff 	tst.w	r3, #255	; 0xff
 8007efe:	b25e      	sxtb	r6, r3
 8007f00:	d00d      	beq.n	8007f1e <xQueueSemaphoreTake+0x156>
 8007f02:	6923      	ldr	r3, [r4, #16]
 8007f04:	4648      	mov	r0, r9
 8007f06:	b153      	cbz	r3, 8007f1e <xQueueSemaphoreTake+0x156>
 8007f08:	f000 ff0e 	bl	8008d28 <xTaskRemoveFromEventList>
 8007f0c:	2800      	cmp	r0, #0
 8007f0e:	d0f3      	beq.n	8007ef8 <xQueueSemaphoreTake+0x130>
 8007f10:	f000 ffa8 	bl	8008e64 <vTaskMissedYield>
 8007f14:	1e73      	subs	r3, r6, #1
 8007f16:	f013 0fff 	tst.w	r3, #255	; 0xff
 8007f1a:	b25e      	sxtb	r6, r3
 8007f1c:	d1f1      	bne.n	8007f02 <xQueueSemaphoreTake+0x13a>
 8007f1e:	23ff      	movs	r3, #255	; 0xff
 8007f20:	f884 3044 	strb.w	r3, [r4, #68]	; 0x44
 8007f24:	f001 fb40 	bl	80095a8 <vPortExitCritical>
 8007f28:	f000 fde2 	bl	8008af0 <xTaskResumeAll>
 8007f2c:	f001 fb1a 	bl	8009564 <vPortEnterCritical>
 8007f30:	6ba3      	ldr	r3, [r4, #56]	; 0x38
 8007f32:	2b00      	cmp	r3, #0
 8007f34:	f000 808d 	beq.w	8008052 <xQueueSemaphoreTake+0x28a>
 8007f38:	f001 fb36 	bl	80095a8 <vPortExitCritical>
 8007f3c:	2601      	movs	r6, #1
 8007f3e:	e768      	b.n	8007e12 <xQueueSemaphoreTake+0x4a>
 8007f40:	23ff      	movs	r3, #255	; 0xff
 8007f42:	f884 3045 	strb.w	r3, [r4, #69]	; 0x45
 8007f46:	f001 fb2f 	bl	80095a8 <vPortExitCritical>
 8007f4a:	f001 fb0b 	bl	8009564 <vPortEnterCritical>
 8007f4e:	f894 6044 	ldrb.w	r6, [r4, #68]	; 0x44
 8007f52:	b276      	sxtb	r6, r6
 8007f54:	2e00      	cmp	r6, #0
 8007f56:	dd11      	ble.n	8007f7c <xQueueSemaphoreTake+0x1b4>
 8007f58:	f104 0910 	add.w	r9, r4, #16
 8007f5c:	e004      	b.n	8007f68 <xQueueSemaphoreTake+0x1a0>
 8007f5e:	1e73      	subs	r3, r6, #1
 8007f60:	f013 0fff 	tst.w	r3, #255	; 0xff
 8007f64:	b25e      	sxtb	r6, r3
 8007f66:	d009      	beq.n	8007f7c <xQueueSemaphoreTake+0x1b4>
 8007f68:	6923      	ldr	r3, [r4, #16]
 8007f6a:	4648      	mov	r0, r9
 8007f6c:	b133      	cbz	r3, 8007f7c <xQueueSemaphoreTake+0x1b4>
 8007f6e:	f000 fedb 	bl	8008d28 <xTaskRemoveFromEventList>
 8007f72:	2800      	cmp	r0, #0
 8007f74:	d0f3      	beq.n	8007f5e <xQueueSemaphoreTake+0x196>
 8007f76:	f000 ff75 	bl	8008e64 <vTaskMissedYield>
 8007f7a:	e7f0      	b.n	8007f5e <xQueueSemaphoreTake+0x196>
 8007f7c:	23ff      	movs	r3, #255	; 0xff
 8007f7e:	f884 3044 	strb.w	r3, [r4, #68]	; 0x44
 8007f82:	f001 fb11 	bl	80095a8 <vPortExitCritical>
 8007f86:	f000 fdb3 	bl	8008af0 <xTaskResumeAll>
 8007f8a:	e7d7      	b.n	8007f3c <xQueueSemaphoreTake+0x174>
 8007f8c:	ae02      	add	r6, sp, #8
 8007f8e:	4630      	mov	r0, r6
 8007f90:	f000 ff14 	bl	8008dbc <vTaskInternalSetTimeOutState>
 8007f94:	e74b      	b.n	8007e2e <xQueueSemaphoreTake+0x66>
 8007f96:	9b01      	ldr	r3, [sp, #4]
 8007f98:	b143      	cbz	r3, 8007fac <xQueueSemaphoreTake+0x1e4>
 8007f9a:	f04f 0350 	mov.w	r3, #80	; 0x50
 8007f9e:	f383 8811 	msr	BASEPRI, r3
 8007fa2:	f3bf 8f6f 	isb	sy
 8007fa6:	f3bf 8f4f 	dsb	sy
 8007faa:	e7fe      	b.n	8007faa <xQueueSemaphoreTake+0x1e2>
 8007fac:	4605      	mov	r5, r0
 8007fae:	e72c      	b.n	8007e0a <xQueueSemaphoreTake+0x42>
 8007fb0:	f001 fafa 	bl	80095a8 <vPortExitCritical>
 8007fb4:	6823      	ldr	r3, [r4, #0]
 8007fb6:	2b00      	cmp	r3, #0
 8007fb8:	d07e      	beq.n	80080b8 <xQueueSemaphoreTake+0x2f0>
 8007fba:	9901      	ldr	r1, [sp, #4]
 8007fbc:	4638      	mov	r0, r7
 8007fbe:	f000 fdfd 	bl	8008bbc <vTaskPlaceOnEventList>
 8007fc2:	f001 facf 	bl	8009564 <vPortEnterCritical>
 8007fc6:	f894 6045 	ldrb.w	r6, [r4, #69]	; 0x45
 8007fca:	b276      	sxtb	r6, r6
 8007fcc:	2e00      	cmp	r6, #0
 8007fce:	dc05      	bgt.n	8007fdc <xQueueSemaphoreTake+0x214>
 8007fd0:	e00e      	b.n	8007ff0 <xQueueSemaphoreTake+0x228>
 8007fd2:	1e73      	subs	r3, r6, #1
 8007fd4:	f013 0fff 	tst.w	r3, #255	; 0xff
 8007fd8:	b25e      	sxtb	r6, r3
 8007fda:	d009      	beq.n	8007ff0 <xQueueSemaphoreTake+0x228>
 8007fdc:	6a63      	ldr	r3, [r4, #36]	; 0x24
 8007fde:	4638      	mov	r0, r7
 8007fe0:	b133      	cbz	r3, 8007ff0 <xQueueSemaphoreTake+0x228>
 8007fe2:	f000 fea1 	bl	8008d28 <xTaskRemoveFromEventList>
 8007fe6:	2800      	cmp	r0, #0
 8007fe8:	d0f3      	beq.n	8007fd2 <xQueueSemaphoreTake+0x20a>
 8007fea:	f000 ff3b 	bl	8008e64 <vTaskMissedYield>
 8007fee:	e7f0      	b.n	8007fd2 <xQueueSemaphoreTake+0x20a>
 8007ff0:	23ff      	movs	r3, #255	; 0xff
 8007ff2:	f884 3045 	strb.w	r3, [r4, #69]	; 0x45
 8007ff6:	f001 fad7 	bl	80095a8 <vPortExitCritical>
 8007ffa:	f001 fab3 	bl	8009564 <vPortEnterCritical>
 8007ffe:	f894 6044 	ldrb.w	r6, [r4, #68]	; 0x44
 8008002:	b276      	sxtb	r6, r6
 8008004:	2e00      	cmp	r6, #0
 8008006:	dd11      	ble.n	800802c <xQueueSemaphoreTake+0x264>
 8008008:	f104 0910 	add.w	r9, r4, #16
 800800c:	e004      	b.n	8008018 <xQueueSemaphoreTake+0x250>
 800800e:	1e73      	subs	r3, r6, #1
 8008010:	f013 0fff 	tst.w	r3, #255	; 0xff
 8008014:	b25e      	sxtb	r6, r3
 8008016:	d009      	beq.n	800802c <xQueueSemaphoreTake+0x264>
 8008018:	6923      	ldr	r3, [r4, #16]
 800801a:	4648      	mov	r0, r9
 800801c:	b133      	cbz	r3, 800802c <xQueueSemaphoreTake+0x264>
 800801e:	f000 fe83 	bl	8008d28 <xTaskRemoveFromEventList>
 8008022:	2800      	cmp	r0, #0
 8008024:	d0f3      	beq.n	800800e <xQueueSemaphoreTake+0x246>
 8008026:	f000 ff1d 	bl	8008e64 <vTaskMissedYield>
 800802a:	e7f0      	b.n	800800e <xQueueSemaphoreTake+0x246>
 800802c:	23ff      	movs	r3, #255	; 0xff
 800802e:	f884 3044 	strb.w	r3, [r4, #68]	; 0x44
 8008032:	f001 fab9 	bl	80095a8 <vPortExitCritical>
 8008036:	f000 fd5b 	bl	8008af0 <xTaskResumeAll>
 800803a:	2800      	cmp	r0, #0
 800803c:	f47f af7e 	bne.w	8007f3c <xQueueSemaphoreTake+0x174>
 8008040:	f04f 5380 	mov.w	r3, #268435456	; 0x10000000
 8008044:	f8c8 3000 	str.w	r3, [r8]
 8008048:	f3bf 8f4f 	dsb	sy
 800804c:	f3bf 8f6f 	isb	sy
 8008050:	e774      	b.n	8007f3c <xQueueSemaphoreTake+0x174>
 8008052:	f001 faa9 	bl	80095a8 <vPortExitCritical>
 8008056:	b96d      	cbnz	r5, 8008074 <xQueueSemaphoreTake+0x2ac>
 8008058:	4628      	mov	r0, r5
 800805a:	b005      	add	sp, #20
 800805c:	e8bd 83f0 	ldmia.w	sp!, {r4, r5, r6, r7, r8, r9, pc}
 8008060:	3b01      	subs	r3, #1
 8008062:	6822      	ldr	r2, [r4, #0]
 8008064:	63a3      	str	r3, [r4, #56]	; 0x38
 8008066:	b31a      	cbz	r2, 80080b0 <xQueueSemaphoreTake+0x2e8>
 8008068:	6923      	ldr	r3, [r4, #16]
 800806a:	b993      	cbnz	r3, 8008092 <xQueueSemaphoreTake+0x2ca>
 800806c:	2501      	movs	r5, #1
 800806e:	f001 fa9b 	bl	80095a8 <vPortExitCritical>
 8008072:	e7f1      	b.n	8008058 <xQueueSemaphoreTake+0x290>
 8008074:	f001 fa76 	bl	8009564 <vPortEnterCritical>
 8008078:	6a61      	ldr	r1, [r4, #36]	; 0x24
 800807a:	b119      	cbz	r1, 8008084 <xQueueSemaphoreTake+0x2bc>
 800807c:	6b23      	ldr	r3, [r4, #48]	; 0x30
 800807e:	6819      	ldr	r1, [r3, #0]
 8008080:	f1c1 0107 	rsb	r1, r1, #7
 8008084:	68a0      	ldr	r0, [r4, #8]
 8008086:	2500      	movs	r5, #0
 8008088:	f000 ffae 	bl	8008fe8 <vTaskPriorityDisinheritAfterTimeout>
 800808c:	f001 fa8c 	bl	80095a8 <vPortExitCritical>
 8008090:	e7e2      	b.n	8008058 <xQueueSemaphoreTake+0x290>
 8008092:	f104 0010 	add.w	r0, r4, #16
 8008096:	f000 fe47 	bl	8008d28 <xTaskRemoveFromEventList>
 800809a:	2800      	cmp	r0, #0
 800809c:	d0e6      	beq.n	800806c <xQueueSemaphoreTake+0x2a4>
 800809e:	4b10      	ldr	r3, [pc, #64]	; (80080e0 <xQueueSemaphoreTake+0x318>)
 80080a0:	f04f 5280 	mov.w	r2, #268435456	; 0x10000000
 80080a4:	601a      	str	r2, [r3, #0]
 80080a6:	f3bf 8f4f 	dsb	sy
 80080aa:	f3bf 8f6f 	isb	sy
 80080ae:	e7dd      	b.n	800806c <xQueueSemaphoreTake+0x2a4>
 80080b0:	f000 fff8 	bl	80090a4 <pvTaskIncrementMutexHeldCount>
 80080b4:	60a0      	str	r0, [r4, #8]
 80080b6:	e7d7      	b.n	8008068 <xQueueSemaphoreTake+0x2a0>
 80080b8:	f001 fa54 	bl	8009564 <vPortEnterCritical>
 80080bc:	68a0      	ldr	r0, [r4, #8]
 80080be:	f000 fee7 	bl	8008e90 <xTaskPriorityInherit>
 80080c2:	4605      	mov	r5, r0
 80080c4:	f001 fa70 	bl	80095a8 <vPortExitCritical>
 80080c8:	e777      	b.n	8007fba <xQueueSemaphoreTake+0x1f2>
 80080ca:	2d00      	cmp	r5, #0
 80080cc:	d0de      	beq.n	800808c <xQueueSemaphoreTake+0x2c4>
 80080ce:	f04f 0350 	mov.w	r3, #80	; 0x50
 80080d2:	f383 8811 	msr	BASEPRI, r3
 80080d6:	f3bf 8f6f 	isb	sy
 80080da:	f3bf 8f4f 	dsb	sy
 80080de:	e7fe      	b.n	80080de <xQueueSemaphoreTake+0x316>
 80080e0:	e000ed04 	.word	0xe000ed04

080080e4 <vQueueAddToRegistry>:
 80080e4:	4b13      	ldr	r3, [pc, #76]	; (8008134 <vQueueAddToRegistry+0x50>)
 80080e6:	681a      	ldr	r2, [r3, #0]
 80080e8:	b17a      	cbz	r2, 800810a <vQueueAddToRegistry+0x26>
 80080ea:	689a      	ldr	r2, [r3, #8]
 80080ec:	b1b2      	cbz	r2, 800811c <vQueueAddToRegistry+0x38>
 80080ee:	691a      	ldr	r2, [r3, #16]
 80080f0:	b1b2      	cbz	r2, 8008120 <vQueueAddToRegistry+0x3c>
 80080f2:	699a      	ldr	r2, [r3, #24]
 80080f4:	b1b2      	cbz	r2, 8008124 <vQueueAddToRegistry+0x40>
 80080f6:	6a1a      	ldr	r2, [r3, #32]
 80080f8:	b1b2      	cbz	r2, 8008128 <vQueueAddToRegistry+0x44>
 80080fa:	6a9a      	ldr	r2, [r3, #40]	; 0x28
 80080fc:	b1b2      	cbz	r2, 800812c <vQueueAddToRegistry+0x48>
 80080fe:	6b1a      	ldr	r2, [r3, #48]	; 0x30
 8008100:	b112      	cbz	r2, 8008108 <vQueueAddToRegistry+0x24>
 8008102:	6b9a      	ldr	r2, [r3, #56]	; 0x38
 8008104:	b1a2      	cbz	r2, 8008130 <vQueueAddToRegistry+0x4c>
 8008106:	4770      	bx	lr
 8008108:	2206      	movs	r2, #6
 800810a:	b410      	push	{r4}
 800810c:	eb03 04c2 	add.w	r4, r3, r2, lsl #3
 8008110:	f843 1032 	str.w	r1, [r3, r2, lsl #3]
 8008114:	6060      	str	r0, [r4, #4]
 8008116:	f85d 4b04 	ldr.w	r4, [sp], #4
 800811a:	4770      	bx	lr
 800811c:	2201      	movs	r2, #1
 800811e:	e7f4      	b.n	800810a <vQueueAddToRegistry+0x26>
 8008120:	2202      	movs	r2, #2
 8008122:	e7f2      	b.n	800810a <vQueueAddToRegistry+0x26>
 8008124:	2203      	movs	r2, #3
 8008126:	e7f0      	b.n	800810a <vQueueAddToRegistry+0x26>
 8008128:	2204      	movs	r2, #4
 800812a:	e7ee      	b.n	800810a <vQueueAddToRegistry+0x26>
 800812c:	2205      	movs	r2, #5
 800812e:	e7ec      	b.n	800810a <vQueueAddToRegistry+0x26>
 8008130:	2207      	movs	r2, #7
 8008132:	e7ea      	b.n	800810a <vQueueAddToRegistry+0x26>
 8008134:	24027380 	.word	0x24027380

08008138 <vQueueWaitForMessageRestricted>:
 8008138:	b570      	push	{r4, r5, r6, lr}
 800813a:	4604      	mov	r4, r0
 800813c:	460e      	mov	r6, r1
 800813e:	4615      	mov	r5, r2
 8008140:	f001 fa10 	bl	8009564 <vPortEnterCritical>
 8008144:	f894 3044 	ldrb.w	r3, [r4, #68]	; 0x44
 8008148:	2bff      	cmp	r3, #255	; 0xff
 800814a:	d102      	bne.n	8008152 <vQueueWaitForMessageRestricted+0x1a>
 800814c:	2300      	movs	r3, #0
 800814e:	f884 3044 	strb.w	r3, [r4, #68]	; 0x44
 8008152:	f894 3045 	ldrb.w	r3, [r4, #69]	; 0x45
 8008156:	2bff      	cmp	r3, #255	; 0xff
 8008158:	d102      	bne.n	8008160 <vQueueWaitForMessageRestricted+0x28>
 800815a:	2300      	movs	r3, #0
 800815c:	f884 3045 	strb.w	r3, [r4, #69]	; 0x45
 8008160:	f001 fa22 	bl	80095a8 <vPortExitCritical>
 8008164:	6ba3      	ldr	r3, [r4, #56]	; 0x38
 8008166:	2b00      	cmp	r3, #0
 8008168:	d045      	beq.n	80081f6 <vQueueWaitForMessageRestricted+0xbe>
 800816a:	f001 f9fb 	bl	8009564 <vPortEnterCritical>
 800816e:	f894 5045 	ldrb.w	r5, [r4, #69]	; 0x45
 8008172:	b26d      	sxtb	r5, r5
 8008174:	2d00      	cmp	r5, #0
 8008176:	dd15      	ble.n	80081a4 <vQueueWaitForMessageRestricted+0x6c>
 8008178:	f104 0624 	add.w	r6, r4, #36	; 0x24
 800817c:	e004      	b.n	8008188 <vQueueWaitForMessageRestricted+0x50>
 800817e:	1e6b      	subs	r3, r5, #1
 8008180:	f013 0fff 	tst.w	r3, #255	; 0xff
 8008184:	b25d      	sxtb	r5, r3
 8008186:	d00d      	beq.n	80081a4 <vQueueWaitForMessageRestricted+0x6c>
 8008188:	6a63      	ldr	r3, [r4, #36]	; 0x24
 800818a:	4630      	mov	r0, r6
 800818c:	b153      	cbz	r3, 80081a4 <vQueueWaitForMessageRestricted+0x6c>
 800818e:	f000 fdcb 	bl	8008d28 <xTaskRemoveFromEventList>
 8008192:	2800      	cmp	r0, #0
 8008194:	d0f3      	beq.n	800817e <vQueueWaitForMessageRestricted+0x46>
 8008196:	f000 fe65 	bl	8008e64 <vTaskMissedYield>
 800819a:	1e6b      	subs	r3, r5, #1
 800819c:	f013 0fff 	tst.w	r3, #255	; 0xff
 80081a0:	b25d      	sxtb	r5, r3
 80081a2:	d1f1      	bne.n	8008188 <vQueueWaitForMessageRestricted+0x50>
 80081a4:	23ff      	movs	r3, #255	; 0xff
 80081a6:	f884 3045 	strb.w	r3, [r4, #69]	; 0x45
 80081aa:	f001 f9fd 	bl	80095a8 <vPortExitCritical>
 80081ae:	f001 f9d9 	bl	8009564 <vPortEnterCritical>
 80081b2:	f894 5044 	ldrb.w	r5, [r4, #68]	; 0x44
 80081b6:	b26d      	sxtb	r5, r5
 80081b8:	2d00      	cmp	r5, #0
 80081ba:	dd15      	ble.n	80081e8 <vQueueWaitForMessageRestricted+0xb0>
 80081bc:	f104 0610 	add.w	r6, r4, #16
 80081c0:	e004      	b.n	80081cc <vQueueWaitForMessageRestricted+0x94>
 80081c2:	1e6b      	subs	r3, r5, #1
 80081c4:	f013 0fff 	tst.w	r3, #255	; 0xff
 80081c8:	b25d      	sxtb	r5, r3
 80081ca:	d00d      	beq.n	80081e8 <vQueueWaitForMessageRestricted+0xb0>
 80081cc:	6923      	ldr	r3, [r4, #16]
 80081ce:	4630      	mov	r0, r6
 80081d0:	b153      	cbz	r3, 80081e8 <vQueueWaitForMessageRestricted+0xb0>
 80081d2:	f000 fda9 	bl	8008d28 <xTaskRemoveFromEventList>
 80081d6:	2800      	cmp	r0, #0
 80081d8:	d0f3      	beq.n	80081c2 <vQueueWaitForMessageRestricted+0x8a>
 80081da:	f000 fe43 	bl	8008e64 <vTaskMissedYield>
 80081de:	1e6b      	subs	r3, r5, #1
 80081e0:	f013 0fff 	tst.w	r3, #255	; 0xff
 80081e4:	b25d      	sxtb	r5, r3
 80081e6:	d1f1      	bne.n	80081cc <vQueueWaitForMessageRestricted+0x94>
 80081e8:	23ff      	movs	r3, #255	; 0xff
 80081ea:	f884 3044 	strb.w	r3, [r4, #68]	; 0x44
 80081ee:	e8bd 4070 	ldmia.w	sp!, {r4, r5, r6, lr}
 80081f2:	f001 b9d9 	b.w	80095a8 <vPortExitCritical>
 80081f6:	462a      	mov	r2, r5
 80081f8:	4631      	mov	r1, r6
 80081fa:	f104 0024 	add.w	r0, r4, #36	; 0x24
 80081fe:	f000 fd2d 	bl	8008c5c <vTaskPlaceOnEventListRestricted>
 8008202:	e7b2      	b.n	800816a <vQueueWaitForMessageRestricted+0x32>

08008204 <prvAddCurrentTaskToDelayedList>:
 8008204:	b5f8      	push	{r3, r4, r5, r6, r7, lr}
 8008206:	4b1a      	ldr	r3, [pc, #104]	; (8008270 <prvAddCurrentTaskToDelayedList+0x6c>)
 8008208:	4604      	mov	r4, r0
 800820a:	4e1a      	ldr	r6, [pc, #104]	; (8008274 <prvAddCurrentTaskToDelayedList+0x70>)
 800820c:	460f      	mov	r7, r1
 800820e:	681d      	ldr	r5, [r3, #0]
 8008210:	6830      	ldr	r0, [r6, #0]
 8008212:	3004      	adds	r0, #4
 8008214:	f7ff f9b0 	bl	8007578 <uxListRemove>
 8008218:	b940      	cbnz	r0, 800822c <prvAddCurrentTaskToDelayedList+0x28>
 800821a:	6833      	ldr	r3, [r6, #0]
 800821c:	2201      	movs	r2, #1
 800821e:	4916      	ldr	r1, [pc, #88]	; (8008278 <prvAddCurrentTaskToDelayedList+0x74>)
 8008220:	6ad8      	ldr	r0, [r3, #44]	; 0x2c
 8008222:	680b      	ldr	r3, [r1, #0]
 8008224:	4082      	lsls	r2, r0
 8008226:	ea23 0302 	bic.w	r3, r3, r2
 800822a:	600b      	str	r3, [r1, #0]
 800822c:	1c63      	adds	r3, r4, #1
 800822e:	d100      	bne.n	8008232 <prvAddCurrentTaskToDelayedList+0x2e>
 8008230:	b9bf      	cbnz	r7, 8008262 <prvAddCurrentTaskToDelayedList+0x5e>
 8008232:	192c      	adds	r4, r5, r4
 8008234:	6833      	ldr	r3, [r6, #0]
 8008236:	605c      	str	r4, [r3, #4]
 8008238:	d307      	bcc.n	800824a <prvAddCurrentTaskToDelayedList+0x46>
 800823a:	4b10      	ldr	r3, [pc, #64]	; (800827c <prvAddCurrentTaskToDelayedList+0x78>)
 800823c:	6818      	ldr	r0, [r3, #0]
 800823e:	6831      	ldr	r1, [r6, #0]
 8008240:	e8bd 40f8 	ldmia.w	sp!, {r3, r4, r5, r6, r7, lr}
 8008244:	3104      	adds	r1, #4
 8008246:	f7ff b97f 	b.w	8007548 <vListInsert>
 800824a:	4b0d      	ldr	r3, [pc, #52]	; (8008280 <prvAddCurrentTaskToDelayedList+0x7c>)
 800824c:	6818      	ldr	r0, [r3, #0]
 800824e:	6831      	ldr	r1, [r6, #0]
 8008250:	3104      	adds	r1, #4
 8008252:	f7ff f979 	bl	8007548 <vListInsert>
 8008256:	4b0b      	ldr	r3, [pc, #44]	; (8008284 <prvAddCurrentTaskToDelayedList+0x80>)
 8008258:	681a      	ldr	r2, [r3, #0]
 800825a:	42a2      	cmp	r2, r4
 800825c:	d900      	bls.n	8008260 <prvAddCurrentTaskToDelayedList+0x5c>
 800825e:	601c      	str	r4, [r3, #0]
 8008260:	bdf8      	pop	{r3, r4, r5, r6, r7, pc}
 8008262:	6831      	ldr	r1, [r6, #0]
 8008264:	4808      	ldr	r0, [pc, #32]	; (8008288 <prvAddCurrentTaskToDelayedList+0x84>)
 8008266:	3104      	adds	r1, #4
 8008268:	e8bd 40f8 	ldmia.w	sp!, {r3, r4, r5, r6, r7, lr}
 800826c:	f7ff b95c 	b.w	8007528 <vListInsertEnd>
 8008270:	240001b8 	.word	0x240001b8
 8008274:	24000094 	.word	0x24000094
 8008278:	2400013c 	.word	0x2400013c
 800827c:	2400009c 	.word	0x2400009c
 8008280:	24000098 	.word	0x24000098
 8008284:	2400016c 	.word	0x2400016c
 8008288:	24000190 	.word	0x24000190

0800828c <prvIdleTask>:
 800828c:	b580      	push	{r7, lr}
 800828e:	4d18      	ldr	r5, [pc, #96]	; (80082f0 <prvIdleTask+0x64>)
 8008290:	f04f 5a80 	mov.w	sl, #268435456	; 0x10000000
 8008294:	4f17      	ldr	r7, [pc, #92]	; (80082f4 <prvIdleTask+0x68>)
 8008296:	4e18      	ldr	r6, [pc, #96]	; (80082f8 <prvIdleTask+0x6c>)
 8008298:	f8df 8060 	ldr.w	r8, [pc, #96]	; 80082fc <prvIdleTask+0x70>
 800829c:	f8df 9060 	ldr.w	r9, [pc, #96]	; 8008300 <prvIdleTask+0x74>
 80082a0:	e018      	b.n	80082d4 <prvIdleTask+0x48>
 80082a2:	f001 f95f 	bl	8009564 <vPortEnterCritical>
 80082a6:	68fb      	ldr	r3, [r7, #12]
 80082a8:	68dc      	ldr	r4, [r3, #12]
 80082aa:	1d20      	adds	r0, r4, #4
 80082ac:	f7ff f964 	bl	8007578 <uxListRemove>
 80082b0:	6833      	ldr	r3, [r6, #0]
 80082b2:	3b01      	subs	r3, #1
 80082b4:	6033      	str	r3, [r6, #0]
 80082b6:	682b      	ldr	r3, [r5, #0]
 80082b8:	3b01      	subs	r3, #1
 80082ba:	602b      	str	r3, [r5, #0]
 80082bc:	f001 f974 	bl	80095a8 <vPortExitCritical>
 80082c0:	f104 004c 	add.w	r0, r4, #76	; 0x4c
 80082c4:	f003 fabe 	bl	800b844 <_reclaim_reent>
 80082c8:	6b20      	ldr	r0, [r4, #48]	; 0x30
 80082ca:	f001 fb6d 	bl	80099a8 <vPortFree>
 80082ce:	4620      	mov	r0, r4
 80082d0:	f001 fb6a 	bl	80099a8 <vPortFree>
 80082d4:	682b      	ldr	r3, [r5, #0]
 80082d6:	2b00      	cmp	r3, #0
 80082d8:	d1e3      	bne.n	80082a2 <prvIdleTask+0x16>
 80082da:	f8d8 3000 	ldr.w	r3, [r8]
 80082de:	2b01      	cmp	r3, #1
 80082e0:	d9f8      	bls.n	80082d4 <prvIdleTask+0x48>
 80082e2:	f8c9 a000 	str.w	sl, [r9]
 80082e6:	f3bf 8f4f 	dsb	sy
 80082ea:	f3bf 8f6f 	isb	sy
 80082ee:	e7f1      	b.n	80082d4 <prvIdleTask+0x48>
 80082f0:	24000130 	.word	0x24000130
 80082f4:	240001a4 	.word	0x240001a4
 80082f8:	2400012c 	.word	0x2400012c
 80082fc:	240000a0 	.word	0x240000a0
 8008300:	e000ed04 	.word	0xe000ed04

08008304 <xTaskIncrementTick.part.0>:
 8008304:	4b49      	ldr	r3, [pc, #292]	; (800842c <xTaskIncrementTick.part.0+0x128>)
 8008306:	e92d 4ff0 	stmdb	sp!, {r4, r5, r6, r7, r8, r9, sl, fp, lr}
 800830a:	681e      	ldr	r6, [r3, #0]
 800830c:	b083      	sub	sp, #12
 800830e:	3601      	adds	r6, #1
 8008310:	601e      	str	r6, [r3, #0]
 8008312:	2e00      	cmp	r6, #0
 8008314:	d047      	beq.n	80083a6 <xTaskIncrementTick.part.0+0xa2>
 8008316:	4d46      	ldr	r5, [pc, #280]	; (8008430 <xTaskIncrementTick.part.0+0x12c>)
 8008318:	682b      	ldr	r3, [r5, #0]
 800831a:	429e      	cmp	r6, r3
 800831c:	d350      	bcc.n	80083c0 <xTaskIncrementTick.part.0+0xbc>
 800831e:	f8df 9118 	ldr.w	r9, [pc, #280]	; 8008438 <xTaskIncrementTick.part.0+0x134>
 8008322:	f8d9 3000 	ldr.w	r3, [r9]
 8008326:	681c      	ldr	r4, [r3, #0]
 8008328:	2c00      	cmp	r4, #0
 800832a:	d078      	beq.n	800841e <xTaskIncrementTick.part.0+0x11a>
 800832c:	2400      	movs	r4, #0
 800832e:	4f41      	ldr	r7, [pc, #260]	; (8008434 <xTaskIncrementTick.part.0+0x130>)
 8008330:	f8df 8114 	ldr.w	r8, [pc, #276]	; 8008448 <xTaskIncrementTick.part.0+0x144>
 8008334:	f8df a114 	ldr.w	sl, [pc, #276]	; 800844c <xTaskIncrementTick.part.0+0x148>
 8008338:	e027      	b.n	800838a <xTaskIncrementTick.part.0+0x86>
 800833a:	9101      	str	r1, [sp, #4]
 800833c:	f7ff f91c 	bl	8007578 <uxListRemove>
 8008340:	f8db 2028 	ldr.w	r2, [fp, #40]	; 0x28
 8008344:	f10b 0018 	add.w	r0, fp, #24
 8008348:	9901      	ldr	r1, [sp, #4]
 800834a:	b112      	cbz	r2, 8008352 <xTaskIncrementTick.part.0+0x4e>
 800834c:	f7ff f914 	bl	8007578 <uxListRemove>
 8008350:	9901      	ldr	r1, [sp, #4]
 8008352:	f8db 002c 	ldr.w	r0, [fp, #44]	; 0x2c
 8008356:	2201      	movs	r2, #1
 8008358:	f8da 3000 	ldr.w	r3, [sl]
 800835c:	4082      	lsls	r2, r0
 800835e:	eb00 0080 	add.w	r0, r0, r0, lsl #2
 8008362:	431a      	orrs	r2, r3
 8008364:	eb07 0080 	add.w	r0, r7, r0, lsl #2
 8008368:	f8ca 2000 	str.w	r2, [sl]
 800836c:	f7ff f8dc 	bl	8007528 <vListInsertEnd>
 8008370:	f8d8 2000 	ldr.w	r2, [r8]
 8008374:	f8d9 0000 	ldr.w	r0, [r9]
 8008378:	f8db 102c 	ldr.w	r1, [fp, #44]	; 0x2c
 800837c:	6ad2      	ldr	r2, [r2, #44]	; 0x2c
 800837e:	6803      	ldr	r3, [r0, #0]
 8008380:	4291      	cmp	r1, r2
 8008382:	bf28      	it	cs
 8008384:	2401      	movcs	r4, #1
 8008386:	2b00      	cmp	r3, #0
 8008388:	d04c      	beq.n	8008424 <xTaskIncrementTick.part.0+0x120>
 800838a:	f8d9 3000 	ldr.w	r3, [r9]
 800838e:	68db      	ldr	r3, [r3, #12]
 8008390:	f8d3 b00c 	ldr.w	fp, [r3, #12]
 8008394:	f8db 2004 	ldr.w	r2, [fp, #4]
 8008398:	f10b 0104 	add.w	r1, fp, #4
 800839c:	4296      	cmp	r6, r2
 800839e:	4608      	mov	r0, r1
 80083a0:	d2cb      	bcs.n	800833a <xTaskIncrementTick.part.0+0x36>
 80083a2:	602a      	str	r2, [r5, #0]
 80083a4:	e010      	b.n	80083c8 <xTaskIncrementTick.part.0+0xc4>
 80083a6:	4b24      	ldr	r3, [pc, #144]	; (8008438 <xTaskIncrementTick.part.0+0x134>)
 80083a8:	681a      	ldr	r2, [r3, #0]
 80083aa:	6812      	ldr	r2, [r2, #0]
 80083ac:	b1fa      	cbz	r2, 80083ee <xTaskIncrementTick.part.0+0xea>
 80083ae:	f04f 0350 	mov.w	r3, #80	; 0x50
 80083b2:	f383 8811 	msr	BASEPRI, r3
 80083b6:	f3bf 8f6f 	isb	sy
 80083ba:	f3bf 8f4f 	dsb	sy
 80083be:	e7fe      	b.n	80083be <xTaskIncrementTick.part.0+0xba>
 80083c0:	2400      	movs	r4, #0
 80083c2:	4f1c      	ldr	r7, [pc, #112]	; (8008434 <xTaskIncrementTick.part.0+0x130>)
 80083c4:	f8df 8080 	ldr.w	r8, [pc, #128]	; 8008448 <xTaskIncrementTick.part.0+0x144>
 80083c8:	f8d8 3000 	ldr.w	r3, [r8]
 80083cc:	491b      	ldr	r1, [pc, #108]	; (800843c <xTaskIncrementTick.part.0+0x138>)
 80083ce:	6adb      	ldr	r3, [r3, #44]	; 0x2c
 80083d0:	eb03 0383 	add.w	r3, r3, r3, lsl #2
 80083d4:	009b      	lsls	r3, r3, #2
 80083d6:	58fa      	ldr	r2, [r7, r3]
 80083d8:	680b      	ldr	r3, [r1, #0]
 80083da:	2a02      	cmp	r2, #2
 80083dc:	bf28      	it	cs
 80083de:	2401      	movcs	r4, #1
 80083e0:	2b00      	cmp	r3, #0
 80083e2:	bf0c      	ite	eq
 80083e4:	4620      	moveq	r0, r4
 80083e6:	2001      	movne	r0, #1
 80083e8:	b003      	add	sp, #12
 80083ea:	e8bd 8ff0 	ldmia.w	sp!, {r4, r5, r6, r7, r8, r9, sl, fp, pc}
 80083ee:	4a14      	ldr	r2, [pc, #80]	; (8008440 <xTaskIncrementTick.part.0+0x13c>)
 80083f0:	6818      	ldr	r0, [r3, #0]
 80083f2:	4914      	ldr	r1, [pc, #80]	; (8008444 <xTaskIncrementTick.part.0+0x140>)
 80083f4:	6814      	ldr	r4, [r2, #0]
 80083f6:	601c      	str	r4, [r3, #0]
 80083f8:	6010      	str	r0, [r2, #0]
 80083fa:	680a      	ldr	r2, [r1, #0]
 80083fc:	3201      	adds	r2, #1
 80083fe:	600a      	str	r2, [r1, #0]
 8008400:	681a      	ldr	r2, [r3, #0]
 8008402:	6812      	ldr	r2, [r2, #0]
 8008404:	b922      	cbnz	r2, 8008410 <xTaskIncrementTick.part.0+0x10c>
 8008406:	4d0a      	ldr	r5, [pc, #40]	; (8008430 <xTaskIncrementTick.part.0+0x12c>)
 8008408:	f04f 33ff 	mov.w	r3, #4294967295
 800840c:	602b      	str	r3, [r5, #0]
 800840e:	e783      	b.n	8008318 <xTaskIncrementTick.part.0+0x14>
 8008410:	681b      	ldr	r3, [r3, #0]
 8008412:	4d07      	ldr	r5, [pc, #28]	; (8008430 <xTaskIncrementTick.part.0+0x12c>)
 8008414:	68db      	ldr	r3, [r3, #12]
 8008416:	68db      	ldr	r3, [r3, #12]
 8008418:	685b      	ldr	r3, [r3, #4]
 800841a:	602b      	str	r3, [r5, #0]
 800841c:	e77c      	b.n	8008318 <xTaskIncrementTick.part.0+0x14>
 800841e:	4f05      	ldr	r7, [pc, #20]	; (8008434 <xTaskIncrementTick.part.0+0x130>)
 8008420:	f8df 8024 	ldr.w	r8, [pc, #36]	; 8008448 <xTaskIncrementTick.part.0+0x144>
 8008424:	f04f 33ff 	mov.w	r3, #4294967295
 8008428:	602b      	str	r3, [r5, #0]
 800842a:	e7cd      	b.n	80083c8 <xTaskIncrementTick.part.0+0xc4>
 800842c:	240001b8 	.word	0x240001b8
 8008430:	2400016c 	.word	0x2400016c
 8008434:	240000a0 	.word	0x240000a0
 8008438:	24000098 	.word	0x24000098
 800843c:	240001bc 	.word	0x240001bc
 8008440:	2400009c 	.word	0x2400009c
 8008444:	24000170 	.word	0x24000170
 8008448:	24000094 	.word	0x24000094
 800844c:	2400013c 	.word	0x2400013c

08008450 <xTaskResumeAll.part.0>:
 8008450:	e92d 4ff0 	stmdb	sp!, {r4, r5, r6, r7, r8, r9, sl, fp, lr}
 8008454:	4c44      	ldr	r4, [pc, #272]	; (8008568 <xTaskResumeAll.part.0+0x118>)
 8008456:	b083      	sub	sp, #12
 8008458:	f001 f884 	bl	8009564 <vPortEnterCritical>
 800845c:	6823      	ldr	r3, [r4, #0]
 800845e:	3b01      	subs	r3, #1
 8008460:	6023      	str	r3, [r4, #0]
 8008462:	6823      	ldr	r3, [r4, #0]
 8008464:	2b00      	cmp	r3, #0
 8008466:	d165      	bne.n	8008534 <xTaskResumeAll.part.0+0xe4>
 8008468:	4b40      	ldr	r3, [pc, #256]	; (800856c <xTaskResumeAll.part.0+0x11c>)
 800846a:	681b      	ldr	r3, [r3, #0]
 800846c:	2b00      	cmp	r3, #0
 800846e:	d061      	beq.n	8008534 <xTaskResumeAll.part.0+0xe4>
 8008470:	f8df b118 	ldr.w	fp, [pc, #280]	; 800858c <xTaskResumeAll.part.0+0x13c>
 8008474:	f8db 3000 	ldr.w	r3, [fp]
 8008478:	2b00      	cmp	r3, #0
 800847a:	d071      	beq.n	8008560 <xTaskResumeAll.part.0+0x110>
 800847c:	4b3c      	ldr	r3, [pc, #240]	; (8008570 <xTaskResumeAll.part.0+0x120>)
 800847e:	2601      	movs	r6, #1
 8008480:	4d3c      	ldr	r5, [pc, #240]	; (8008574 <xTaskResumeAll.part.0+0x124>)
 8008482:	f8df 810c 	ldr.w	r8, [pc, #268]	; 8008590 <xTaskResumeAll.part.0+0x140>
 8008486:	4f3c      	ldr	r7, [pc, #240]	; (8008578 <xTaskResumeAll.part.0+0x128>)
 8008488:	9301      	str	r3, [sp, #4]
 800848a:	f8db 300c 	ldr.w	r3, [fp, #12]
 800848e:	f8d3 a00c 	ldr.w	sl, [r3, #12]
 8008492:	f10a 0904 	add.w	r9, sl, #4
 8008496:	f10a 0018 	add.w	r0, sl, #24
 800849a:	f7ff f86d 	bl	8007578 <uxListRemove>
 800849e:	4648      	mov	r0, r9
 80084a0:	f7ff f86a 	bl	8007578 <uxListRemove>
 80084a4:	f8da 002c 	ldr.w	r0, [sl, #44]	; 0x2c
 80084a8:	682a      	ldr	r2, [r5, #0]
 80084aa:	4649      	mov	r1, r9
 80084ac:	fa06 f300 	lsl.w	r3, r6, r0
 80084b0:	eb00 0080 	add.w	r0, r0, r0, lsl #2
 80084b4:	4313      	orrs	r3, r2
 80084b6:	eb08 0080 	add.w	r0, r8, r0, lsl #2
 80084ba:	602b      	str	r3, [r5, #0]
 80084bc:	f7ff f834 	bl	8007528 <vListInsertEnd>
 80084c0:	683b      	ldr	r3, [r7, #0]
 80084c2:	f8da 202c 	ldr.w	r2, [sl, #44]	; 0x2c
 80084c6:	6adb      	ldr	r3, [r3, #44]	; 0x2c
 80084c8:	429a      	cmp	r2, r3
 80084ca:	d33b      	bcc.n	8008544 <xTaskResumeAll.part.0+0xf4>
 80084cc:	9b01      	ldr	r3, [sp, #4]
 80084ce:	601e      	str	r6, [r3, #0]
 80084d0:	f8db 3000 	ldr.w	r3, [fp]
 80084d4:	2b00      	cmp	r3, #0
 80084d6:	d1d8      	bne.n	800848a <xTaskResumeAll.part.0+0x3a>
 80084d8:	4b28      	ldr	r3, [pc, #160]	; (800857c <xTaskResumeAll.part.0+0x12c>)
 80084da:	681a      	ldr	r2, [r3, #0]
 80084dc:	6812      	ldr	r2, [r2, #0]
 80084de:	2a00      	cmp	r2, #0
 80084e0:	d039      	beq.n	8008556 <xTaskResumeAll.part.0+0x106>
 80084e2:	681a      	ldr	r2, [r3, #0]
 80084e4:	4b26      	ldr	r3, [pc, #152]	; (8008580 <xTaskResumeAll.part.0+0x130>)
 80084e6:	68d2      	ldr	r2, [r2, #12]
 80084e8:	68d2      	ldr	r2, [r2, #12]
 80084ea:	6852      	ldr	r2, [r2, #4]
 80084ec:	601a      	str	r2, [r3, #0]
 80084ee:	4e25      	ldr	r6, [pc, #148]	; (8008584 <xTaskResumeAll.part.0+0x134>)
 80084f0:	6835      	ldr	r5, [r6, #0]
 80084f2:	b195      	cbz	r5, 800851a <xTaskResumeAll.part.0+0xca>
 80084f4:	2701      	movs	r7, #1
 80084f6:	e006      	b.n	8008506 <xTaskResumeAll.part.0+0xb6>
 80084f8:	f7ff ff04 	bl	8008304 <xTaskIncrementTick.part.0>
 80084fc:	b108      	cbz	r0, 8008502 <xTaskResumeAll.part.0+0xb2>
 80084fe:	9b01      	ldr	r3, [sp, #4]
 8008500:	601f      	str	r7, [r3, #0]
 8008502:	3d01      	subs	r5, #1
 8008504:	d008      	beq.n	8008518 <xTaskResumeAll.part.0+0xc8>
 8008506:	6823      	ldr	r3, [r4, #0]
 8008508:	2b00      	cmp	r3, #0
 800850a:	d0f5      	beq.n	80084f8 <xTaskResumeAll.part.0+0xa8>
 800850c:	6833      	ldr	r3, [r6, #0]
 800850e:	3d01      	subs	r5, #1
 8008510:	f103 0301 	add.w	r3, r3, #1
 8008514:	6033      	str	r3, [r6, #0]
 8008516:	d1f6      	bne.n	8008506 <xTaskResumeAll.part.0+0xb6>
 8008518:	6035      	str	r5, [r6, #0]
 800851a:	9b01      	ldr	r3, [sp, #4]
 800851c:	681b      	ldr	r3, [r3, #0]
 800851e:	b14b      	cbz	r3, 8008534 <xTaskResumeAll.part.0+0xe4>
 8008520:	4b19      	ldr	r3, [pc, #100]	; (8008588 <xTaskResumeAll.part.0+0x138>)
 8008522:	f04f 5280 	mov.w	r2, #268435456	; 0x10000000
 8008526:	601a      	str	r2, [r3, #0]
 8008528:	f3bf 8f4f 	dsb	sy
 800852c:	f3bf 8f6f 	isb	sy
 8008530:	2001      	movs	r0, #1
 8008532:	e000      	b.n	8008536 <xTaskResumeAll.part.0+0xe6>
 8008534:	2000      	movs	r0, #0
 8008536:	9001      	str	r0, [sp, #4]
 8008538:	f001 f836 	bl	80095a8 <vPortExitCritical>
 800853c:	9801      	ldr	r0, [sp, #4]
 800853e:	b003      	add	sp, #12
 8008540:	e8bd 8ff0 	ldmia.w	sp!, {r4, r5, r6, r7, r8, r9, sl, fp, pc}
 8008544:	f8db 3000 	ldr.w	r3, [fp]
 8008548:	2b00      	cmp	r3, #0
 800854a:	d19e      	bne.n	800848a <xTaskResumeAll.part.0+0x3a>
 800854c:	4b0b      	ldr	r3, [pc, #44]	; (800857c <xTaskResumeAll.part.0+0x12c>)
 800854e:	681a      	ldr	r2, [r3, #0]
 8008550:	6812      	ldr	r2, [r2, #0]
 8008552:	2a00      	cmp	r2, #0
 8008554:	d1c5      	bne.n	80084e2 <xTaskResumeAll.part.0+0x92>
 8008556:	4b0a      	ldr	r3, [pc, #40]	; (8008580 <xTaskResumeAll.part.0+0x130>)
 8008558:	f04f 32ff 	mov.w	r2, #4294967295
 800855c:	601a      	str	r2, [r3, #0]
 800855e:	e7c6      	b.n	80084ee <xTaskResumeAll.part.0+0x9e>
 8008560:	4b03      	ldr	r3, [pc, #12]	; (8008570 <xTaskResumeAll.part.0+0x120>)
 8008562:	9301      	str	r3, [sp, #4]
 8008564:	e7c3      	b.n	80084ee <xTaskResumeAll.part.0+0x9e>
 8008566:	bf00      	nop
 8008568:	24000134 	.word	0x24000134
 800856c:	2400012c 	.word	0x2400012c
 8008570:	240001bc 	.word	0x240001bc
 8008574:	2400013c 	.word	0x2400013c
 8008578:	24000094 	.word	0x24000094
 800857c:	24000098 	.word	0x24000098
 8008580:	2400016c 	.word	0x2400016c
 8008584:	24000174 	.word	0x24000174
 8008588:	e000ed04 	.word	0xe000ed04
 800858c:	24000178 	.word	0x24000178
 8008590:	240000a0 	.word	0x240000a0

08008594 <xTaskCreate>:
 8008594:	e92d 4ff8 	stmdb	sp!, {r3, r4, r5, r6, r7, r8, r9, sl, fp, lr}
 8008598:	0097      	lsls	r7, r2, #2
 800859a:	4680      	mov	r8, r0
 800859c:	460d      	mov	r5, r1
 800859e:	4699      	mov	r9, r3
 80085a0:	4638      	mov	r0, r7
 80085a2:	f001 f943 	bl	800982c <pvPortMalloc>
 80085a6:	2800      	cmp	r0, #0
 80085a8:	f000 80d4 	beq.w	8008754 <xTaskCreate+0x1c0>
 80085ac:	4606      	mov	r6, r0
 80085ae:	20b4      	movs	r0, #180	; 0xb4
 80085b0:	f001 f93c 	bl	800982c <pvPortMalloc>
 80085b4:	4604      	mov	r4, r0
 80085b6:	2800      	cmp	r0, #0
 80085b8:	f000 80d7 	beq.w	800876a <xTaskCreate+0x1d6>
 80085bc:	6306      	str	r6, [r0, #48]	; 0x30
 80085be:	2d00      	cmp	r5, #0
 80085c0:	f000 80e3 	beq.w	800878a <xTaskCreate+0x1f6>
 80085c4:	782b      	ldrb	r3, [r5, #0]
 80085c6:	f880 3034 	strb.w	r3, [r0, #52]	; 0x34
 80085ca:	782b      	ldrb	r3, [r5, #0]
 80085cc:	2b00      	cmp	r3, #0
 80085ce:	d04d      	beq.n	800866c <xTaskCreate+0xd8>
 80085d0:	786b      	ldrb	r3, [r5, #1]
 80085d2:	f880 3035 	strb.w	r3, [r0, #53]	; 0x35
 80085d6:	786b      	ldrb	r3, [r5, #1]
 80085d8:	2b00      	cmp	r3, #0
 80085da:	d047      	beq.n	800866c <xTaskCreate+0xd8>
 80085dc:	78ab      	ldrb	r3, [r5, #2]
 80085de:	f880 3036 	strb.w	r3, [r0, #54]	; 0x36
 80085e2:	78ab      	ldrb	r3, [r5, #2]
 80085e4:	2b00      	cmp	r3, #0
 80085e6:	d041      	beq.n	800866c <xTaskCreate+0xd8>
 80085e8:	78eb      	ldrb	r3, [r5, #3]
 80085ea:	f880 3037 	strb.w	r3, [r0, #55]	; 0x37
 80085ee:	78eb      	ldrb	r3, [r5, #3]
 80085f0:	2b00      	cmp	r3, #0
 80085f2:	d03b      	beq.n	800866c <xTaskCreate+0xd8>
 80085f4:	792b      	ldrb	r3, [r5, #4]
 80085f6:	f880 3038 	strb.w	r3, [r0, #56]	; 0x38
 80085fa:	792b      	ldrb	r3, [r5, #4]
 80085fc:	2b00      	cmp	r3, #0
 80085fe:	d035      	beq.n	800866c <xTaskCreate+0xd8>
 8008600:	796b      	ldrb	r3, [r5, #5]
 8008602:	f880 3039 	strb.w	r3, [r0, #57]	; 0x39
 8008606:	796b      	ldrb	r3, [r5, #5]
 8008608:	2b00      	cmp	r3, #0
 800860a:	d02f      	beq.n	800866c <xTaskCreate+0xd8>
 800860c:	79ab      	ldrb	r3, [r5, #6]
 800860e:	f880 303a 	strb.w	r3, [r0, #58]	; 0x3a
 8008612:	79ab      	ldrb	r3, [r5, #6]
 8008614:	b353      	cbz	r3, 800866c <xTaskCreate+0xd8>
 8008616:	79eb      	ldrb	r3, [r5, #7]
 8008618:	f880 303b 	strb.w	r3, [r0, #59]	; 0x3b
 800861c:	79eb      	ldrb	r3, [r5, #7]
 800861e:	b32b      	cbz	r3, 800866c <xTaskCreate+0xd8>
 8008620:	7a2b      	ldrb	r3, [r5, #8]
 8008622:	f880 303c 	strb.w	r3, [r0, #60]	; 0x3c
 8008626:	7a2b      	ldrb	r3, [r5, #8]
 8008628:	b303      	cbz	r3, 800866c <xTaskCreate+0xd8>
 800862a:	7a6b      	ldrb	r3, [r5, #9]
 800862c:	f880 303d 	strb.w	r3, [r0, #61]	; 0x3d
 8008630:	7a6b      	ldrb	r3, [r5, #9]
 8008632:	b1db      	cbz	r3, 800866c <xTaskCreate+0xd8>
 8008634:	7aab      	ldrb	r3, [r5, #10]
 8008636:	f880 303e 	strb.w	r3, [r0, #62]	; 0x3e
 800863a:	7aab      	ldrb	r3, [r5, #10]
 800863c:	b1b3      	cbz	r3, 800866c <xTaskCreate+0xd8>
 800863e:	7aeb      	ldrb	r3, [r5, #11]
 8008640:	f880 303f 	strb.w	r3, [r0, #63]	; 0x3f
 8008644:	7aeb      	ldrb	r3, [r5, #11]
 8008646:	b18b      	cbz	r3, 800866c <xTaskCreate+0xd8>
 8008648:	7b2b      	ldrb	r3, [r5, #12]
 800864a:	f880 3040 	strb.w	r3, [r0, #64]	; 0x40
 800864e:	7b2b      	ldrb	r3, [r5, #12]
 8008650:	b163      	cbz	r3, 800866c <xTaskCreate+0xd8>
 8008652:	7b6b      	ldrb	r3, [r5, #13]
 8008654:	f880 3041 	strb.w	r3, [r0, #65]	; 0x41
 8008658:	7b6b      	ldrb	r3, [r5, #13]
 800865a:	b13b      	cbz	r3, 800866c <xTaskCreate+0xd8>
 800865c:	7bab      	ldrb	r3, [r5, #14]
 800865e:	f880 3042 	strb.w	r3, [r0, #66]	; 0x42
 8008662:	7bab      	ldrb	r3, [r5, #14]
 8008664:	b113      	cbz	r3, 800866c <xTaskCreate+0xd8>
 8008666:	7beb      	ldrb	r3, [r5, #15]
 8008668:	f880 3043 	strb.w	r3, [r0, #67]	; 0x43
 800866c:	2300      	movs	r3, #0
 800866e:	f884 3043 	strb.w	r3, [r4, #67]	; 0x43
 8008672:	9d0a      	ldr	r5, [sp, #40]	; 0x28
 8008674:	f04f 0b00 	mov.w	fp, #0
 8008678:	f104 0a04 	add.w	sl, r4, #4
 800867c:	3f04      	subs	r7, #4
 800867e:	2d06      	cmp	r5, #6
 8008680:	f8c4 b048 	str.w	fp, [r4, #72]	; 0x48
 8008684:	4650      	mov	r0, sl
 8008686:	443e      	add	r6, r7
 8008688:	bf28      	it	cs
 800868a:	2506      	movcs	r5, #6
 800868c:	62e5      	str	r5, [r4, #44]	; 0x2c
 800868e:	6465      	str	r5, [r4, #68]	; 0x44
 8008690:	f1c5 0507 	rsb	r5, r5, #7
 8008694:	f7fe ff44 	bl	8007520 <vListInitialiseItem>
 8008698:	f104 0018 	add.w	r0, r4, #24
 800869c:	f7fe ff40 	bl	8007520 <vListInitialiseItem>
 80086a0:	4659      	mov	r1, fp
 80086a2:	2260      	movs	r2, #96	; 0x60
 80086a4:	f8c4 b0ac 	str.w	fp, [r4, #172]	; 0xac
 80086a8:	61a5      	str	r5, [r4, #24]
 80086aa:	f104 004c 	add.w	r0, r4, #76	; 0x4c
 80086ae:	f884 b0b0 	strb.w	fp, [r4, #176]	; 0xb0
 80086b2:	6124      	str	r4, [r4, #16]
 80086b4:	6264      	str	r4, [r4, #36]	; 0x24
 80086b6:	f003 f8af 	bl	800b818 <memset>
 80086ba:	4d4c      	ldr	r5, [pc, #304]	; (80087ec <xTaskCreate+0x258>)
 80086bc:	4b4c      	ldr	r3, [pc, #304]	; (80087f0 <xTaskCreate+0x25c>)
 80086be:	464a      	mov	r2, r9
 80086c0:	f8df c178 	ldr.w	ip, [pc, #376]	; 800883c <xTaskCreate+0x2a8>
 80086c4:	4641      	mov	r1, r8
 80086c6:	65a3      	str	r3, [r4, #88]	; 0x58
 80086c8:	f026 0007 	bic.w	r0, r6, #7
 80086cc:	e9c4 c514 	strd	ip, r5, [r4, #80]	; 0x50
 80086d0:	f000 ff1c 	bl	800950c <pxPortInitialiseStack>
 80086d4:	9b0b      	ldr	r3, [sp, #44]	; 0x2c
 80086d6:	6020      	str	r0, [r4, #0]
 80086d8:	b103      	cbz	r3, 80086dc <xTaskCreate+0x148>
 80086da:	601c      	str	r4, [r3, #0]
 80086dc:	f000 ff42 	bl	8009564 <vPortEnterCritical>
 80086e0:	4a44      	ldr	r2, [pc, #272]	; (80087f4 <xTaskCreate+0x260>)
 80086e2:	4e45      	ldr	r6, [pc, #276]	; (80087f8 <xTaskCreate+0x264>)
 80086e4:	6813      	ldr	r3, [r2, #0]
 80086e6:	3301      	adds	r3, #1
 80086e8:	6013      	str	r3, [r2, #0]
 80086ea:	6833      	ldr	r3, [r6, #0]
 80086ec:	2b00      	cmp	r3, #0
 80086ee:	d045      	beq.n	800877c <xTaskCreate+0x1e8>
 80086f0:	4f42      	ldr	r7, [pc, #264]	; (80087fc <xTaskCreate+0x268>)
 80086f2:	683b      	ldr	r3, [r7, #0]
 80086f4:	b393      	cbz	r3, 800875c <xTaskCreate+0x1c8>
 80086f6:	6ae0      	ldr	r0, [r4, #44]	; 0x2c
 80086f8:	f8df c144 	ldr.w	ip, [pc, #324]	; 8008840 <xTaskCreate+0x2ac>
 80086fc:	2501      	movs	r5, #1
 80086fe:	f8df e144 	ldr.w	lr, [pc, #324]	; 8008844 <xTaskCreate+0x2b0>
 8008702:	4651      	mov	r1, sl
 8008704:	f8dc 8000 	ldr.w	r8, [ip]
 8008708:	fa05 f300 	lsl.w	r3, r5, r0
 800870c:	f8de 2000 	ldr.w	r2, [lr]
 8008710:	eb00 0080 	add.w	r0, r0, r0, lsl #2
 8008714:	ea43 0308 	orr.w	r3, r3, r8
 8008718:	f8df 80e8 	ldr.w	r8, [pc, #232]	; 8008804 <xTaskCreate+0x270>
 800871c:	442a      	add	r2, r5
 800871e:	eb08 0080 	add.w	r0, r8, r0, lsl #2
 8008722:	f8cc 3000 	str.w	r3, [ip]
 8008726:	f8ce 2000 	str.w	r2, [lr]
 800872a:	f7fe fefd 	bl	8007528 <vListInsertEnd>
 800872e:	f000 ff3b 	bl	80095a8 <vPortExitCritical>
 8008732:	683b      	ldr	r3, [r7, #0]
 8008734:	b1fb      	cbz	r3, 8008776 <xTaskCreate+0x1e2>
 8008736:	6832      	ldr	r2, [r6, #0]
 8008738:	6ae3      	ldr	r3, [r4, #44]	; 0x2c
 800873a:	6ad2      	ldr	r2, [r2, #44]	; 0x2c
 800873c:	429a      	cmp	r2, r3
 800873e:	d21a      	bcs.n	8008776 <xTaskCreate+0x1e2>
 8008740:	4b2f      	ldr	r3, [pc, #188]	; (8008800 <xTaskCreate+0x26c>)
 8008742:	f04f 5280 	mov.w	r2, #268435456	; 0x10000000
 8008746:	601a      	str	r2, [r3, #0]
 8008748:	f3bf 8f4f 	dsb	sy
 800874c:	f3bf 8f6f 	isb	sy
 8008750:	4628      	mov	r0, r5
 8008752:	e001      	b.n	8008758 <xTaskCreate+0x1c4>
 8008754:	f04f 30ff 	mov.w	r0, #4294967295
 8008758:	e8bd 8ff8 	ldmia.w	sp!, {r3, r4, r5, r6, r7, r8, r9, sl, fp, pc}
 800875c:	6833      	ldr	r3, [r6, #0]
 800875e:	6ae0      	ldr	r0, [r4, #44]	; 0x2c
 8008760:	6adb      	ldr	r3, [r3, #44]	; 0x2c
 8008762:	4283      	cmp	r3, r0
 8008764:	d8c8      	bhi.n	80086f8 <xTaskCreate+0x164>
 8008766:	6034      	str	r4, [r6, #0]
 8008768:	e7c6      	b.n	80086f8 <xTaskCreate+0x164>
 800876a:	4630      	mov	r0, r6
 800876c:	f001 f91c 	bl	80099a8 <vPortFree>
 8008770:	f04f 30ff 	mov.w	r0, #4294967295
 8008774:	e7f0      	b.n	8008758 <xTaskCreate+0x1c4>
 8008776:	4628      	mov	r0, r5
 8008778:	e8bd 8ff8 	ldmia.w	sp!, {r3, r4, r5, r6, r7, r8, r9, sl, fp, pc}
 800877c:	6034      	str	r4, [r6, #0]
 800877e:	6813      	ldr	r3, [r2, #0]
 8008780:	2b01      	cmp	r3, #1
 8008782:	d005      	beq.n	8008790 <xTaskCreate+0x1fc>
 8008784:	6ae0      	ldr	r0, [r4, #44]	; 0x2c
 8008786:	4f1d      	ldr	r7, [pc, #116]	; (80087fc <xTaskCreate+0x268>)
 8008788:	e7b6      	b.n	80086f8 <xTaskCreate+0x164>
 800878a:	f880 5034 	strb.w	r5, [r0, #52]	; 0x34
 800878e:	e770      	b.n	8008672 <xTaskCreate+0xde>
 8008790:	481c      	ldr	r0, [pc, #112]	; (8008804 <xTaskCreate+0x270>)
 8008792:	f7fe feb9 	bl	8007508 <vListInitialise>
 8008796:	481c      	ldr	r0, [pc, #112]	; (8008808 <xTaskCreate+0x274>)
 8008798:	f7fe feb6 	bl	8007508 <vListInitialise>
 800879c:	481b      	ldr	r0, [pc, #108]	; (800880c <xTaskCreate+0x278>)
 800879e:	f7fe feb3 	bl	8007508 <vListInitialise>
 80087a2:	481b      	ldr	r0, [pc, #108]	; (8008810 <xTaskCreate+0x27c>)
 80087a4:	f7fe feb0 	bl	8007508 <vListInitialise>
 80087a8:	481a      	ldr	r0, [pc, #104]	; (8008814 <xTaskCreate+0x280>)
 80087aa:	f7fe fead 	bl	8007508 <vListInitialise>
 80087ae:	4f1a      	ldr	r7, [pc, #104]	; (8008818 <xTaskCreate+0x284>)
 80087b0:	481a      	ldr	r0, [pc, #104]	; (800881c <xTaskCreate+0x288>)
 80087b2:	f7fe fea9 	bl	8007508 <vListInitialise>
 80087b6:	4d1a      	ldr	r5, [pc, #104]	; (8008820 <xTaskCreate+0x28c>)
 80087b8:	481a      	ldr	r0, [pc, #104]	; (8008824 <xTaskCreate+0x290>)
 80087ba:	f7fe fea5 	bl	8007508 <vListInitialise>
 80087be:	4638      	mov	r0, r7
 80087c0:	f7fe fea2 	bl	8007508 <vListInitialise>
 80087c4:	4628      	mov	r0, r5
 80087c6:	f7fe fe9f 	bl	8007508 <vListInitialise>
 80087ca:	4817      	ldr	r0, [pc, #92]	; (8008828 <xTaskCreate+0x294>)
 80087cc:	f7fe fe9c 	bl	8007508 <vListInitialise>
 80087d0:	4816      	ldr	r0, [pc, #88]	; (800882c <xTaskCreate+0x298>)
 80087d2:	f7fe fe99 	bl	8007508 <vListInitialise>
 80087d6:	4816      	ldr	r0, [pc, #88]	; (8008830 <xTaskCreate+0x29c>)
 80087d8:	f7fe fe96 	bl	8007508 <vListInitialise>
 80087dc:	4a15      	ldr	r2, [pc, #84]	; (8008834 <xTaskCreate+0x2a0>)
 80087de:	4b16      	ldr	r3, [pc, #88]	; (8008838 <xTaskCreate+0x2a4>)
 80087e0:	6017      	str	r7, [r2, #0]
 80087e2:	6ae0      	ldr	r0, [r4, #44]	; 0x2c
 80087e4:	4f05      	ldr	r7, [pc, #20]	; (80087fc <xTaskCreate+0x268>)
 80087e6:	601d      	str	r5, [r3, #0]
 80087e8:	e786      	b.n	80086f8 <xTaskCreate+0x164>
 80087ea:	bf00      	nop
 80087ec:	0800bac8 	.word	0x0800bac8
 80087f0:	0800ba88 	.word	0x0800ba88
 80087f4:	2400012c 	.word	0x2400012c
 80087f8:	24000094 	.word	0x24000094
 80087fc:	2400018c 	.word	0x2400018c
 8008800:	e000ed04 	.word	0xe000ed04
 8008804:	240000a0 	.word	0x240000a0
 8008808:	240000b4 	.word	0x240000b4
 800880c:	240000c8 	.word	0x240000c8
 8008810:	240000dc 	.word	0x240000dc
 8008814:	240000f0 	.word	0x240000f0
 8008818:	24000140 	.word	0x24000140
 800881c:	24000104 	.word	0x24000104
 8008820:	24000154 	.word	0x24000154
 8008824:	24000118 	.word	0x24000118
 8008828:	24000178 	.word	0x24000178
 800882c:	240001a4 	.word	0x240001a4
 8008830:	24000190 	.word	0x24000190
 8008834:	24000098 	.word	0x24000098
 8008838:	2400009c 	.word	0x2400009c
 800883c:	0800baa8 	.word	0x0800baa8
 8008840:	2400013c 	.word	0x2400013c
 8008844:	24000138 	.word	0x24000138

08008848 <vTaskDelay>:
 8008848:	b510      	push	{r4, lr}
 800884a:	b940      	cbnz	r0, 800885e <vTaskDelay+0x16>
 800884c:	4b14      	ldr	r3, [pc, #80]	; (80088a0 <vTaskDelay+0x58>)
 800884e:	f04f 5280 	mov.w	r2, #268435456	; 0x10000000
 8008852:	601a      	str	r2, [r3, #0]
 8008854:	f3bf 8f4f 	dsb	sy
 8008858:	f3bf 8f6f 	isb	sy
 800885c:	bd10      	pop	{r4, pc}
 800885e:	4c11      	ldr	r4, [pc, #68]	; (80088a4 <vTaskDelay+0x5c>)
 8008860:	6821      	ldr	r1, [r4, #0]
 8008862:	b141      	cbz	r1, 8008876 <vTaskDelay+0x2e>
 8008864:	f04f 0350 	mov.w	r3, #80	; 0x50
 8008868:	f383 8811 	msr	BASEPRI, r3
 800886c:	f3bf 8f6f 	isb	sy
 8008870:	f3bf 8f4f 	dsb	sy
 8008874:	e7fe      	b.n	8008874 <vTaskDelay+0x2c>
 8008876:	6823      	ldr	r3, [r4, #0]
 8008878:	3301      	adds	r3, #1
 800887a:	6023      	str	r3, [r4, #0]
 800887c:	f7ff fcc2 	bl	8008204 <prvAddCurrentTaskToDelayedList>
 8008880:	6823      	ldr	r3, [r4, #0]
 8008882:	b943      	cbnz	r3, 8008896 <vTaskDelay+0x4e>
 8008884:	f04f 0350 	mov.w	r3, #80	; 0x50
 8008888:	f383 8811 	msr	BASEPRI, r3
 800888c:	f3bf 8f6f 	isb	sy
 8008890:	f3bf 8f4f 	dsb	sy
 8008894:	e7fe      	b.n	8008894 <vTaskDelay+0x4c>
 8008896:	f7ff fddb 	bl	8008450 <xTaskResumeAll.part.0>
 800889a:	2800      	cmp	r0, #0
 800889c:	d0d6      	beq.n	800884c <vTaskDelay+0x4>
 800889e:	bd10      	pop	{r4, pc}
 80088a0:	e000ed04 	.word	0xe000ed04
 80088a4:	24000134 	.word	0x24000134

080088a8 <vTaskStartScheduler>:
 80088a8:	e92d 41f0 	stmdb	sp!, {r4, r5, r6, r7, r8, lr}
 80088ac:	f44f 6080 	mov.w	r0, #1024	; 0x400
 80088b0:	f000 ffbc 	bl	800982c <pvPortMalloc>
 80088b4:	2800      	cmp	r0, #0
 80088b6:	d04f      	beq.n	8008958 <vTaskStartScheduler+0xb0>
 80088b8:	4606      	mov	r6, r0
 80088ba:	20b4      	movs	r0, #180	; 0xb4
 80088bc:	f000 ffb6 	bl	800982c <pvPortMalloc>
 80088c0:	4604      	mov	r4, r0
 80088c2:	2800      	cmp	r0, #0
 80088c4:	d045      	beq.n	8008952 <vTaskStartScheduler+0xaa>
 80088c6:	2500      	movs	r5, #0
 80088c8:	4b68      	ldr	r3, [pc, #416]	; (8008a6c <vTaskStartScheduler+0x1c4>)
 80088ca:	1d07      	adds	r7, r0, #4
 80088cc:	f880 5038 	strb.w	r5, [r0, #56]	; 0x38
 80088d0:	e9c0 630c 	strd	r6, r3, [r0, #48]	; 0x30
 80088d4:	4638      	mov	r0, r7
 80088d6:	f884 5043 	strb.w	r5, [r4, #67]	; 0x43
 80088da:	62e5      	str	r5, [r4, #44]	; 0x2c
 80088dc:	e9c4 5511 	strd	r5, r5, [r4, #68]	; 0x44
 80088e0:	f7fe fe1e 	bl	8007520 <vListInitialiseItem>
 80088e4:	f104 0018 	add.w	r0, r4, #24
 80088e8:	f7fe fe1a 	bl	8007520 <vListInitialiseItem>
 80088ec:	2307      	movs	r3, #7
 80088ee:	4629      	mov	r1, r5
 80088f0:	f8c4 50ac 	str.w	r5, [r4, #172]	; 0xac
 80088f4:	2260      	movs	r2, #96	; 0x60
 80088f6:	f884 50b0 	strb.w	r5, [r4, #176]	; 0xb0
 80088fa:	61a3      	str	r3, [r4, #24]
 80088fc:	f104 004c 	add.w	r0, r4, #76	; 0x4c
 8008900:	6124      	str	r4, [r4, #16]
 8008902:	6264      	str	r4, [r4, #36]	; 0x24
 8008904:	f002 ff88 	bl	800b818 <memset>
 8008908:	4b59      	ldr	r3, [pc, #356]	; (8008a70 <vTaskStartScheduler+0x1c8>)
 800890a:	f506 707f 	add.w	r0, r6, #1020	; 0x3fc
 800890e:	4959      	ldr	r1, [pc, #356]	; (8008a74 <vTaskStartScheduler+0x1cc>)
 8008910:	4e59      	ldr	r6, [pc, #356]	; (8008a78 <vTaskStartScheduler+0x1d0>)
 8008912:	462a      	mov	r2, r5
 8008914:	65a3      	str	r3, [r4, #88]	; 0x58
 8008916:	f020 0007 	bic.w	r0, r0, #7
 800891a:	4d58      	ldr	r5, [pc, #352]	; (8008a7c <vTaskStartScheduler+0x1d4>)
 800891c:	e9c4 6114 	strd	r6, r1, [r4, #80]	; 0x50
 8008920:	4957      	ldr	r1, [pc, #348]	; (8008a80 <vTaskStartScheduler+0x1d8>)
 8008922:	f000 fdf3 	bl	800950c <pxPortInitialiseStack>
 8008926:	4b57      	ldr	r3, [pc, #348]	; (8008a84 <vTaskStartScheduler+0x1dc>)
 8008928:	6020      	str	r0, [r4, #0]
 800892a:	601c      	str	r4, [r3, #0]
 800892c:	f000 fe1a 	bl	8009564 <vPortEnterCritical>
 8008930:	4b55      	ldr	r3, [pc, #340]	; (8008a88 <vTaskStartScheduler+0x1e0>)
 8008932:	681a      	ldr	r2, [r3, #0]
 8008934:	3201      	adds	r2, #1
 8008936:	601a      	str	r2, [r3, #0]
 8008938:	682a      	ldr	r2, [r5, #0]
 800893a:	b1b2      	cbz	r2, 800896a <vTaskStartScheduler+0xc2>
 800893c:	4e53      	ldr	r6, [pc, #332]	; (8008a8c <vTaskStartScheduler+0x1e4>)
 800893e:	6833      	ldr	r3, [r6, #0]
 8008940:	2b00      	cmp	r3, #0
 8008942:	d161      	bne.n	8008a08 <vTaskStartScheduler+0x160>
 8008944:	682b      	ldr	r3, [r5, #0]
 8008946:	6ae0      	ldr	r0, [r4, #44]	; 0x2c
 8008948:	6adb      	ldr	r3, [r3, #44]	; 0x2c
 800894a:	4283      	cmp	r3, r0
 800894c:	d813      	bhi.n	8008976 <vTaskStartScheduler+0xce>
 800894e:	602c      	str	r4, [r5, #0]
 8008950:	e011      	b.n	8008976 <vTaskStartScheduler+0xce>
 8008952:	4630      	mov	r0, r6
 8008954:	f001 f828 	bl	80099a8 <vPortFree>
 8008958:	f04f 0350 	mov.w	r3, #80	; 0x50
 800895c:	f383 8811 	msr	BASEPRI, r3
 8008960:	f3bf 8f6f 	isb	sy
 8008964:	f3bf 8f4f 	dsb	sy
 8008968:	e7fe      	b.n	8008968 <vTaskStartScheduler+0xc0>
 800896a:	602c      	str	r4, [r5, #0]
 800896c:	681b      	ldr	r3, [r3, #0]
 800896e:	2b01      	cmp	r3, #1
 8008970:	d04c      	beq.n	8008a0c <vTaskStartScheduler+0x164>
 8008972:	6ae0      	ldr	r0, [r4, #44]	; 0x2c
 8008974:	4e45      	ldr	r6, [pc, #276]	; (8008a8c <vTaskStartScheduler+0x1e4>)
 8008976:	f8df c15c 	ldr.w	ip, [pc, #348]	; 8008ad4 <vTaskStartScheduler+0x22c>
 800897a:	2301      	movs	r3, #1
 800897c:	f8df e158 	ldr.w	lr, [pc, #344]	; 8008ad8 <vTaskStartScheduler+0x230>
 8008980:	4639      	mov	r1, r7
 8008982:	4083      	lsls	r3, r0
 8008984:	f8dc 7000 	ldr.w	r7, [ip]
 8008988:	f8de 2000 	ldr.w	r2, [lr]
 800898c:	eb00 0080 	add.w	r0, r0, r0, lsl #2
 8008990:	433b      	orrs	r3, r7
 8008992:	4f3f      	ldr	r7, [pc, #252]	; (8008a90 <vTaskStartScheduler+0x1e8>)
 8008994:	3201      	adds	r2, #1
 8008996:	eb07 0080 	add.w	r0, r7, r0, lsl #2
 800899a:	f8cc 3000 	str.w	r3, [ip]
 800899e:	f8ce 2000 	str.w	r2, [lr]
 80089a2:	f7fe fdc1 	bl	8007528 <vListInsertEnd>
 80089a6:	f000 fdff 	bl	80095a8 <vPortExitCritical>
 80089aa:	6833      	ldr	r3, [r6, #0]
 80089ac:	b163      	cbz	r3, 80089c8 <vTaskStartScheduler+0x120>
 80089ae:	682a      	ldr	r2, [r5, #0]
 80089b0:	6ae3      	ldr	r3, [r4, #44]	; 0x2c
 80089b2:	6ad2      	ldr	r2, [r2, #44]	; 0x2c
 80089b4:	429a      	cmp	r2, r3
 80089b6:	d207      	bcs.n	80089c8 <vTaskStartScheduler+0x120>
 80089b8:	4b36      	ldr	r3, [pc, #216]	; (8008a94 <vTaskStartScheduler+0x1ec>)
 80089ba:	f04f 5280 	mov.w	r2, #268435456	; 0x10000000
 80089be:	601a      	str	r2, [r3, #0]
 80089c0:	f3bf 8f4f 	dsb	sy
 80089c4:	f3bf 8f6f 	isb	sy
 80089c8:	f000 fd16 	bl	80093f8 <xTimerCreateTimerTask>
 80089cc:	2801      	cmp	r0, #1
 80089ce:	d003      	beq.n	80089d8 <vTaskStartScheduler+0x130>
 80089d0:	3001      	adds	r0, #1
 80089d2:	d0c1      	beq.n	8008958 <vTaskStartScheduler+0xb0>
 80089d4:	e8bd 81f0 	ldmia.w	sp!, {r4, r5, r6, r7, r8, pc}
 80089d8:	f04f 0350 	mov.w	r3, #80	; 0x50
 80089dc:	f383 8811 	msr	BASEPRI, r3
 80089e0:	f3bf 8f6f 	isb	sy
 80089e4:	f3bf 8f4f 	dsb	sy
 80089e8:	682b      	ldr	r3, [r5, #0]
 80089ea:	f04f 34ff 	mov.w	r4, #4294967295
 80089ee:	4d2a      	ldr	r5, [pc, #168]	; (8008a98 <vTaskStartScheduler+0x1f0>)
 80089f0:	2200      	movs	r2, #0
 80089f2:	334c      	adds	r3, #76	; 0x4c
 80089f4:	4929      	ldr	r1, [pc, #164]	; (8008a9c <vTaskStartScheduler+0x1f4>)
 80089f6:	602b      	str	r3, [r5, #0]
 80089f8:	4b29      	ldr	r3, [pc, #164]	; (8008aa0 <vTaskStartScheduler+0x1f8>)
 80089fa:	600c      	str	r4, [r1, #0]
 80089fc:	6030      	str	r0, [r6, #0]
 80089fe:	601a      	str	r2, [r3, #0]
 8008a00:	e8bd 41f0 	ldmia.w	sp!, {r4, r5, r6, r7, r8, lr}
 8008a04:	f000 be4a 	b.w	800969c <xPortStartScheduler>
 8008a08:	6ae0      	ldr	r0, [r4, #44]	; 0x2c
 8008a0a:	e7b4      	b.n	8008976 <vTaskStartScheduler+0xce>
 8008a0c:	4820      	ldr	r0, [pc, #128]	; (8008a90 <vTaskStartScheduler+0x1e8>)
 8008a0e:	f7fe fd7b 	bl	8007508 <vListInitialise>
 8008a12:	4824      	ldr	r0, [pc, #144]	; (8008aa4 <vTaskStartScheduler+0x1fc>)
 8008a14:	f7fe fd78 	bl	8007508 <vListInitialise>
 8008a18:	4823      	ldr	r0, [pc, #140]	; (8008aa8 <vTaskStartScheduler+0x200>)
 8008a1a:	f7fe fd75 	bl	8007508 <vListInitialise>
 8008a1e:	4823      	ldr	r0, [pc, #140]	; (8008aac <vTaskStartScheduler+0x204>)
 8008a20:	f7fe fd72 	bl	8007508 <vListInitialise>
 8008a24:	4822      	ldr	r0, [pc, #136]	; (8008ab0 <vTaskStartScheduler+0x208>)
 8008a26:	f7fe fd6f 	bl	8007508 <vListInitialise>
 8008a2a:	f8df 80b0 	ldr.w	r8, [pc, #176]	; 8008adc <vTaskStartScheduler+0x234>
 8008a2e:	4821      	ldr	r0, [pc, #132]	; (8008ab4 <vTaskStartScheduler+0x20c>)
 8008a30:	f7fe fd6a 	bl	8007508 <vListInitialise>
 8008a34:	4e20      	ldr	r6, [pc, #128]	; (8008ab8 <vTaskStartScheduler+0x210>)
 8008a36:	4821      	ldr	r0, [pc, #132]	; (8008abc <vTaskStartScheduler+0x214>)
 8008a38:	f7fe fd66 	bl	8007508 <vListInitialise>
 8008a3c:	4640      	mov	r0, r8
 8008a3e:	f7fe fd63 	bl	8007508 <vListInitialise>
 8008a42:	4630      	mov	r0, r6
 8008a44:	f7fe fd60 	bl	8007508 <vListInitialise>
 8008a48:	481d      	ldr	r0, [pc, #116]	; (8008ac0 <vTaskStartScheduler+0x218>)
 8008a4a:	f7fe fd5d 	bl	8007508 <vListInitialise>
 8008a4e:	481d      	ldr	r0, [pc, #116]	; (8008ac4 <vTaskStartScheduler+0x21c>)
 8008a50:	f7fe fd5a 	bl	8007508 <vListInitialise>
 8008a54:	481c      	ldr	r0, [pc, #112]	; (8008ac8 <vTaskStartScheduler+0x220>)
 8008a56:	f7fe fd57 	bl	8007508 <vListInitialise>
 8008a5a:	4a1c      	ldr	r2, [pc, #112]	; (8008acc <vTaskStartScheduler+0x224>)
 8008a5c:	4b1c      	ldr	r3, [pc, #112]	; (8008ad0 <vTaskStartScheduler+0x228>)
 8008a5e:	f8c2 8000 	str.w	r8, [r2]
 8008a62:	6ae0      	ldr	r0, [r4, #44]	; 0x2c
 8008a64:	601e      	str	r6, [r3, #0]
 8008a66:	4e09      	ldr	r6, [pc, #36]	; (8008a8c <vTaskStartScheduler+0x1e4>)
 8008a68:	e785      	b.n	8008976 <vTaskStartScheduler+0xce>
 8008a6a:	bf00      	nop
 8008a6c:	454c4449 	.word	0x454c4449
 8008a70:	0800ba88 	.word	0x0800ba88
 8008a74:	0800bac8 	.word	0x0800bac8
 8008a78:	0800baa8 	.word	0x0800baa8
 8008a7c:	24000094 	.word	0x24000094
 8008a80:	0800828d 	.word	0x0800828d
 8008a84:	24000168 	.word	0x24000168
 8008a88:	2400012c 	.word	0x2400012c
 8008a8c:	2400018c 	.word	0x2400018c
 8008a90:	240000a0 	.word	0x240000a0
 8008a94:	e000ed04 	.word	0xe000ed04
 8008a98:	24000014 	.word	0x24000014
 8008a9c:	2400016c 	.word	0x2400016c
 8008aa0:	240001b8 	.word	0x240001b8
 8008aa4:	240000b4 	.word	0x240000b4
 8008aa8:	240000c8 	.word	0x240000c8
 8008aac:	240000dc 	.word	0x240000dc
 8008ab0:	240000f0 	.word	0x240000f0
 8008ab4:	24000104 	.word	0x24000104
 8008ab8:	24000154 	.word	0x24000154
 8008abc:	24000118 	.word	0x24000118
 8008ac0:	24000178 	.word	0x24000178
 8008ac4:	240001a4 	.word	0x240001a4
 8008ac8:	24000190 	.word	0x24000190
 8008acc:	24000098 	.word	0x24000098
 8008ad0:	2400009c 	.word	0x2400009c
 8008ad4:	2400013c 	.word	0x2400013c
 8008ad8:	24000138 	.word	0x24000138
 8008adc:	24000140 	.word	0x24000140

08008ae0 <vTaskSuspendAll>:
 8008ae0:	4a02      	ldr	r2, [pc, #8]	; (8008aec <vTaskSuspendAll+0xc>)
 8008ae2:	6813      	ldr	r3, [r2, #0]
 8008ae4:	3301      	adds	r3, #1
 8008ae6:	6013      	str	r3, [r2, #0]
 8008ae8:	4770      	bx	lr
 8008aea:	bf00      	nop
 8008aec:	24000134 	.word	0x24000134

08008af0 <xTaskResumeAll>:
 8008af0:	4b06      	ldr	r3, [pc, #24]	; (8008b0c <xTaskResumeAll+0x1c>)
 8008af2:	681b      	ldr	r3, [r3, #0]
 8008af4:	b943      	cbnz	r3, 8008b08 <xTaskResumeAll+0x18>
 8008af6:	f04f 0350 	mov.w	r3, #80	; 0x50
 8008afa:	f383 8811 	msr	BASEPRI, r3
 8008afe:	f3bf 8f6f 	isb	sy
 8008b02:	f3bf 8f4f 	dsb	sy
 8008b06:	e7fe      	b.n	8008b06 <xTaskResumeAll+0x16>
 8008b08:	f7ff bca2 	b.w	8008450 <xTaskResumeAll.part.0>
 8008b0c:	24000134 	.word	0x24000134

08008b10 <xTaskGetTickCount>:
 8008b10:	4b01      	ldr	r3, [pc, #4]	; (8008b18 <xTaskGetTickCount+0x8>)
 8008b12:	6818      	ldr	r0, [r3, #0]
 8008b14:	4770      	bx	lr
 8008b16:	bf00      	nop
 8008b18:	240001b8 	.word	0x240001b8

08008b1c <xTaskIncrementTick>:
 8008b1c:	4b05      	ldr	r3, [pc, #20]	; (8008b34 <xTaskIncrementTick+0x18>)
 8008b1e:	681b      	ldr	r3, [r3, #0]
 8008b20:	b90b      	cbnz	r3, 8008b26 <xTaskIncrementTick+0xa>
 8008b22:	f7ff bbef 	b.w	8008304 <xTaskIncrementTick.part.0>
 8008b26:	4a04      	ldr	r2, [pc, #16]	; (8008b38 <xTaskIncrementTick+0x1c>)
 8008b28:	2000      	movs	r0, #0
 8008b2a:	6813      	ldr	r3, [r2, #0]
 8008b2c:	3301      	adds	r3, #1
 8008b2e:	6013      	str	r3, [r2, #0]
 8008b30:	4770      	bx	lr
 8008b32:	bf00      	nop
 8008b34:	24000134 	.word	0x24000134
 8008b38:	24000174 	.word	0x24000174

08008b3c <vTaskSwitchContext>:
 8008b3c:	4b19      	ldr	r3, [pc, #100]	; (8008ba4 <vTaskSwitchContext+0x68>)
 8008b3e:	681b      	ldr	r3, [r3, #0]
 8008b40:	b11b      	cbz	r3, 8008b4a <vTaskSwitchContext+0xe>
 8008b42:	4b19      	ldr	r3, [pc, #100]	; (8008ba8 <vTaskSwitchContext+0x6c>)
 8008b44:	2201      	movs	r2, #1
 8008b46:	601a      	str	r2, [r3, #0]
 8008b48:	4770      	bx	lr
 8008b4a:	4917      	ldr	r1, [pc, #92]	; (8008ba8 <vTaskSwitchContext+0x6c>)
 8008b4c:	4a17      	ldr	r2, [pc, #92]	; (8008bac <vTaskSwitchContext+0x70>)
 8008b4e:	600b      	str	r3, [r1, #0]
 8008b50:	6813      	ldr	r3, [r2, #0]
 8008b52:	fab3 f383 	clz	r3, r3
 8008b56:	b2db      	uxtb	r3, r3
 8008b58:	4a15      	ldr	r2, [pc, #84]	; (8008bb0 <vTaskSwitchContext+0x74>)
 8008b5a:	f1c3 031f 	rsb	r3, r3, #31
 8008b5e:	eb03 0383 	add.w	r3, r3, r3, lsl #2
 8008b62:	0099      	lsls	r1, r3, #2
 8008b64:	eb02 0383 	add.w	r3, r2, r3, lsl #2
 8008b68:	5850      	ldr	r0, [r2, r1]
 8008b6a:	b940      	cbnz	r0, 8008b7e <vTaskSwitchContext+0x42>
 8008b6c:	f04f 0350 	mov.w	r3, #80	; 0x50
 8008b70:	f383 8811 	msr	BASEPRI, r3
 8008b74:	f3bf 8f6f 	isb	sy
 8008b78:	f3bf 8f4f 	dsb	sy
 8008b7c:	e7fe      	b.n	8008b7c <vTaskSwitchContext+0x40>
 8008b7e:	6858      	ldr	r0, [r3, #4]
 8008b80:	3108      	adds	r1, #8
 8008b82:	4411      	add	r1, r2
 8008b84:	6842      	ldr	r2, [r0, #4]
 8008b86:	428a      	cmp	r2, r1
 8008b88:	605a      	str	r2, [r3, #4]
 8008b8a:	d007      	beq.n	8008b9c <vTaskSwitchContext+0x60>
 8008b8c:	68d1      	ldr	r1, [r2, #12]
 8008b8e:	4b09      	ldr	r3, [pc, #36]	; (8008bb4 <vTaskSwitchContext+0x78>)
 8008b90:	4a09      	ldr	r2, [pc, #36]	; (8008bb8 <vTaskSwitchContext+0x7c>)
 8008b92:	6019      	str	r1, [r3, #0]
 8008b94:	681b      	ldr	r3, [r3, #0]
 8008b96:	334c      	adds	r3, #76	; 0x4c
 8008b98:	6013      	str	r3, [r2, #0]
 8008b9a:	4770      	bx	lr
 8008b9c:	6852      	ldr	r2, [r2, #4]
 8008b9e:	605a      	str	r2, [r3, #4]
 8008ba0:	e7f4      	b.n	8008b8c <vTaskSwitchContext+0x50>
 8008ba2:	bf00      	nop
 8008ba4:	24000134 	.word	0x24000134
 8008ba8:	240001bc 	.word	0x240001bc
 8008bac:	2400013c 	.word	0x2400013c
 8008bb0:	240000a0 	.word	0x240000a0
 8008bb4:	24000094 	.word	0x24000094
 8008bb8:	24000014 	.word	0x24000014

08008bbc <vTaskPlaceOnEventList>:
 8008bbc:	b340      	cbz	r0, 8008c10 <vTaskPlaceOnEventList+0x54>
 8008bbe:	b570      	push	{r4, r5, r6, lr}
 8008bc0:	4d1f      	ldr	r5, [pc, #124]	; (8008c40 <vTaskPlaceOnEventList+0x84>)
 8008bc2:	460c      	mov	r4, r1
 8008bc4:	6829      	ldr	r1, [r5, #0]
 8008bc6:	3118      	adds	r1, #24
 8008bc8:	f7fe fcbe 	bl	8007548 <vListInsert>
 8008bcc:	4b1d      	ldr	r3, [pc, #116]	; (8008c44 <vTaskPlaceOnEventList+0x88>)
 8008bce:	681e      	ldr	r6, [r3, #0]
 8008bd0:	6828      	ldr	r0, [r5, #0]
 8008bd2:	3004      	adds	r0, #4
 8008bd4:	f7fe fcd0 	bl	8007578 <uxListRemove>
 8008bd8:	b940      	cbnz	r0, 8008bec <vTaskPlaceOnEventList+0x30>
 8008bda:	682b      	ldr	r3, [r5, #0]
 8008bdc:	2201      	movs	r2, #1
 8008bde:	491a      	ldr	r1, [pc, #104]	; (8008c48 <vTaskPlaceOnEventList+0x8c>)
 8008be0:	6ad8      	ldr	r0, [r3, #44]	; 0x2c
 8008be2:	680b      	ldr	r3, [r1, #0]
 8008be4:	4082      	lsls	r2, r0
 8008be6:	ea23 0302 	bic.w	r3, r3, r2
 8008bea:	600b      	str	r3, [r1, #0]
 8008bec:	1c63      	adds	r3, r4, #1
 8008bee:	d020      	beq.n	8008c32 <vTaskPlaceOnEventList+0x76>
 8008bf0:	19a4      	adds	r4, r4, r6
 8008bf2:	682b      	ldr	r3, [r5, #0]
 8008bf4:	605c      	str	r4, [r3, #4]
 8008bf6:	d214      	bcs.n	8008c22 <vTaskPlaceOnEventList+0x66>
 8008bf8:	4b14      	ldr	r3, [pc, #80]	; (8008c4c <vTaskPlaceOnEventList+0x90>)
 8008bfa:	6818      	ldr	r0, [r3, #0]
 8008bfc:	6829      	ldr	r1, [r5, #0]
 8008bfe:	3104      	adds	r1, #4
 8008c00:	f7fe fca2 	bl	8007548 <vListInsert>
 8008c04:	4b12      	ldr	r3, [pc, #72]	; (8008c50 <vTaskPlaceOnEventList+0x94>)
 8008c06:	681a      	ldr	r2, [r3, #0]
 8008c08:	4294      	cmp	r4, r2
 8008c0a:	d200      	bcs.n	8008c0e <vTaskPlaceOnEventList+0x52>
 8008c0c:	601c      	str	r4, [r3, #0]
 8008c0e:	bd70      	pop	{r4, r5, r6, pc}
 8008c10:	f04f 0350 	mov.w	r3, #80	; 0x50
 8008c14:	f383 8811 	msr	BASEPRI, r3
 8008c18:	f3bf 8f6f 	isb	sy
 8008c1c:	f3bf 8f4f 	dsb	sy
 8008c20:	e7fe      	b.n	8008c20 <vTaskPlaceOnEventList+0x64>
 8008c22:	4b0c      	ldr	r3, [pc, #48]	; (8008c54 <vTaskPlaceOnEventList+0x98>)
 8008c24:	6818      	ldr	r0, [r3, #0]
 8008c26:	6829      	ldr	r1, [r5, #0]
 8008c28:	e8bd 4070 	ldmia.w	sp!, {r4, r5, r6, lr}
 8008c2c:	3104      	adds	r1, #4
 8008c2e:	f7fe bc8b 	b.w	8007548 <vListInsert>
 8008c32:	6829      	ldr	r1, [r5, #0]
 8008c34:	4808      	ldr	r0, [pc, #32]	; (8008c58 <vTaskPlaceOnEventList+0x9c>)
 8008c36:	3104      	adds	r1, #4
 8008c38:	e8bd 4070 	ldmia.w	sp!, {r4, r5, r6, lr}
 8008c3c:	f7fe bc74 	b.w	8007528 <vListInsertEnd>
 8008c40:	24000094 	.word	0x24000094
 8008c44:	240001b8 	.word	0x240001b8
 8008c48:	2400013c 	.word	0x2400013c
 8008c4c:	24000098 	.word	0x24000098
 8008c50:	2400016c 	.word	0x2400016c
 8008c54:	2400009c 	.word	0x2400009c
 8008c58:	24000190 	.word	0x24000190

08008c5c <vTaskPlaceOnEventListRestricted>:
 8008c5c:	2800      	cmp	r0, #0
 8008c5e:	d036      	beq.n	8008cce <vTaskPlaceOnEventListRestricted+0x72>
 8008c60:	b570      	push	{r4, r5, r6, lr}
 8008c62:	4c2a      	ldr	r4, [pc, #168]	; (8008d0c <vTaskPlaceOnEventListRestricted+0xb0>)
 8008c64:	460e      	mov	r6, r1
 8008c66:	4615      	mov	r5, r2
 8008c68:	6821      	ldr	r1, [r4, #0]
 8008c6a:	3118      	adds	r1, #24
 8008c6c:	f7fe fc5c 	bl	8007528 <vListInsertEnd>
 8008c70:	b1b5      	cbz	r5, 8008ca0 <vTaskPlaceOnEventListRestricted+0x44>
 8008c72:	4b27      	ldr	r3, [pc, #156]	; (8008d10 <vTaskPlaceOnEventListRestricted+0xb4>)
 8008c74:	681b      	ldr	r3, [r3, #0]
 8008c76:	6820      	ldr	r0, [r4, #0]
 8008c78:	3004      	adds	r0, #4
 8008c7a:	f7fe fc7d 	bl	8007578 <uxListRemove>
 8008c7e:	b940      	cbnz	r0, 8008c92 <vTaskPlaceOnEventListRestricted+0x36>
 8008c80:	6823      	ldr	r3, [r4, #0]
 8008c82:	2201      	movs	r2, #1
 8008c84:	4923      	ldr	r1, [pc, #140]	; (8008d14 <vTaskPlaceOnEventListRestricted+0xb8>)
 8008c86:	6ad8      	ldr	r0, [r3, #44]	; 0x2c
 8008c88:	680b      	ldr	r3, [r1, #0]
 8008c8a:	4082      	lsls	r2, r0
 8008c8c:	ea23 0302 	bic.w	r3, r3, r2
 8008c90:	600b      	str	r3, [r1, #0]
 8008c92:	6821      	ldr	r1, [r4, #0]
 8008c94:	4820      	ldr	r0, [pc, #128]	; (8008d18 <vTaskPlaceOnEventListRestricted+0xbc>)
 8008c96:	3104      	adds	r1, #4
 8008c98:	e8bd 4070 	ldmia.w	sp!, {r4, r5, r6, lr}
 8008c9c:	f7fe bc44 	b.w	8007528 <vListInsertEnd>
 8008ca0:	4b1b      	ldr	r3, [pc, #108]	; (8008d10 <vTaskPlaceOnEventListRestricted+0xb4>)
 8008ca2:	681d      	ldr	r5, [r3, #0]
 8008ca4:	6820      	ldr	r0, [r4, #0]
 8008ca6:	3004      	adds	r0, #4
 8008ca8:	f7fe fc66 	bl	8007578 <uxListRemove>
 8008cac:	b1c0      	cbz	r0, 8008ce0 <vTaskPlaceOnEventListRestricted+0x84>
 8008cae:	1975      	adds	r5, r6, r5
 8008cb0:	6823      	ldr	r3, [r4, #0]
 8008cb2:	605d      	str	r5, [r3, #4]
 8008cb4:	d222      	bcs.n	8008cfc <vTaskPlaceOnEventListRestricted+0xa0>
 8008cb6:	4b19      	ldr	r3, [pc, #100]	; (8008d1c <vTaskPlaceOnEventListRestricted+0xc0>)
 8008cb8:	6818      	ldr	r0, [r3, #0]
 8008cba:	6821      	ldr	r1, [r4, #0]
 8008cbc:	3104      	adds	r1, #4
 8008cbe:	f7fe fc43 	bl	8007548 <vListInsert>
 8008cc2:	4b17      	ldr	r3, [pc, #92]	; (8008d20 <vTaskPlaceOnEventListRestricted+0xc4>)
 8008cc4:	681a      	ldr	r2, [r3, #0]
 8008cc6:	4295      	cmp	r5, r2
 8008cc8:	d200      	bcs.n	8008ccc <vTaskPlaceOnEventListRestricted+0x70>
 8008cca:	601d      	str	r5, [r3, #0]
 8008ccc:	bd70      	pop	{r4, r5, r6, pc}
 8008cce:	f04f 0350 	mov.w	r3, #80	; 0x50
 8008cd2:	f383 8811 	msr	BASEPRI, r3
 8008cd6:	f3bf 8f6f 	isb	sy
 8008cda:	f3bf 8f4f 	dsb	sy
 8008cde:	e7fe      	b.n	8008cde <vTaskPlaceOnEventListRestricted+0x82>
 8008ce0:	6823      	ldr	r3, [r4, #0]
 8008ce2:	2201      	movs	r2, #1
 8008ce4:	490b      	ldr	r1, [pc, #44]	; (8008d14 <vTaskPlaceOnEventListRestricted+0xb8>)
 8008ce6:	1975      	adds	r5, r6, r5
 8008ce8:	6ad8      	ldr	r0, [r3, #44]	; 0x2c
 8008cea:	680b      	ldr	r3, [r1, #0]
 8008cec:	fa02 f200 	lsl.w	r2, r2, r0
 8008cf0:	ea23 0302 	bic.w	r3, r3, r2
 8008cf4:	600b      	str	r3, [r1, #0]
 8008cf6:	6823      	ldr	r3, [r4, #0]
 8008cf8:	605d      	str	r5, [r3, #4]
 8008cfa:	d3dc      	bcc.n	8008cb6 <vTaskPlaceOnEventListRestricted+0x5a>
 8008cfc:	4b09      	ldr	r3, [pc, #36]	; (8008d24 <vTaskPlaceOnEventListRestricted+0xc8>)
 8008cfe:	6818      	ldr	r0, [r3, #0]
 8008d00:	6821      	ldr	r1, [r4, #0]
 8008d02:	e8bd 4070 	ldmia.w	sp!, {r4, r5, r6, lr}
 8008d06:	3104      	adds	r1, #4
 8008d08:	f7fe bc1e 	b.w	8007548 <vListInsert>
 8008d0c:	24000094 	.word	0x24000094
 8008d10:	240001b8 	.word	0x240001b8
 8008d14:	2400013c 	.word	0x2400013c
 8008d18:	24000190 	.word	0x24000190
 8008d1c:	24000098 	.word	0x24000098
 8008d20:	2400016c 	.word	0x2400016c
 8008d24:	2400009c 	.word	0x2400009c

08008d28 <xTaskRemoveFromEventList>:
 8008d28:	68c3      	ldr	r3, [r0, #12]
 8008d2a:	b570      	push	{r4, r5, r6, lr}
 8008d2c:	68dc      	ldr	r4, [r3, #12]
 8008d2e:	b082      	sub	sp, #8
 8008d30:	b364      	cbz	r4, 8008d8c <xTaskRemoveFromEventList+0x64>
 8008d32:	f104 0118 	add.w	r1, r4, #24
 8008d36:	4608      	mov	r0, r1
 8008d38:	9101      	str	r1, [sp, #4]
 8008d3a:	f7fe fc1d 	bl	8007578 <uxListRemove>
 8008d3e:	4b19      	ldr	r3, [pc, #100]	; (8008da4 <xTaskRemoveFromEventList+0x7c>)
 8008d40:	9901      	ldr	r1, [sp, #4]
 8008d42:	681b      	ldr	r3, [r3, #0]
 8008d44:	b16b      	cbz	r3, 8008d62 <xTaskRemoveFromEventList+0x3a>
 8008d46:	4818      	ldr	r0, [pc, #96]	; (8008da8 <xTaskRemoveFromEventList+0x80>)
 8008d48:	f7fe fbee 	bl	8007528 <vListInsertEnd>
 8008d4c:	4b17      	ldr	r3, [pc, #92]	; (8008dac <xTaskRemoveFromEventList+0x84>)
 8008d4e:	6ae2      	ldr	r2, [r4, #44]	; 0x2c
 8008d50:	681b      	ldr	r3, [r3, #0]
 8008d52:	6adb      	ldr	r3, [r3, #44]	; 0x2c
 8008d54:	429a      	cmp	r2, r3
 8008d56:	d922      	bls.n	8008d9e <xTaskRemoveFromEventList+0x76>
 8008d58:	2001      	movs	r0, #1
 8008d5a:	4b15      	ldr	r3, [pc, #84]	; (8008db0 <xTaskRemoveFromEventList+0x88>)
 8008d5c:	6018      	str	r0, [r3, #0]
 8008d5e:	b002      	add	sp, #8
 8008d60:	bd70      	pop	{r4, r5, r6, pc}
 8008d62:	1d21      	adds	r1, r4, #4
 8008d64:	4d13      	ldr	r5, [pc, #76]	; (8008db4 <xTaskRemoveFromEventList+0x8c>)
 8008d66:	4608      	mov	r0, r1
 8008d68:	9101      	str	r1, [sp, #4]
 8008d6a:	f7fe fc05 	bl	8007578 <uxListRemove>
 8008d6e:	6ae2      	ldr	r2, [r4, #44]	; 0x2c
 8008d70:	2301      	movs	r3, #1
 8008d72:	682e      	ldr	r6, [r5, #0]
 8008d74:	eb02 0082 	add.w	r0, r2, r2, lsl #2
 8008d78:	9901      	ldr	r1, [sp, #4]
 8008d7a:	4093      	lsls	r3, r2
 8008d7c:	4a0e      	ldr	r2, [pc, #56]	; (8008db8 <xTaskRemoveFromEventList+0x90>)
 8008d7e:	4333      	orrs	r3, r6
 8008d80:	eb02 0080 	add.w	r0, r2, r0, lsl #2
 8008d84:	602b      	str	r3, [r5, #0]
 8008d86:	f7fe fbcf 	bl	8007528 <vListInsertEnd>
 8008d8a:	e7df      	b.n	8008d4c <xTaskRemoveFromEventList+0x24>
 8008d8c:	f04f 0350 	mov.w	r3, #80	; 0x50
 8008d90:	f383 8811 	msr	BASEPRI, r3
 8008d94:	f3bf 8f6f 	isb	sy
 8008d98:	f3bf 8f4f 	dsb	sy
 8008d9c:	e7fe      	b.n	8008d9c <xTaskRemoveFromEventList+0x74>
 8008d9e:	2000      	movs	r0, #0
 8008da0:	b002      	add	sp, #8
 8008da2:	bd70      	pop	{r4, r5, r6, pc}
 8008da4:	24000134 	.word	0x24000134
 8008da8:	24000178 	.word	0x24000178
 8008dac:	24000094 	.word	0x24000094
 8008db0:	240001bc 	.word	0x240001bc
 8008db4:	2400013c 	.word	0x2400013c
 8008db8:	240000a0 	.word	0x240000a0

08008dbc <vTaskInternalSetTimeOutState>:
 8008dbc:	4a03      	ldr	r2, [pc, #12]	; (8008dcc <vTaskInternalSetTimeOutState+0x10>)
 8008dbe:	4b04      	ldr	r3, [pc, #16]	; (8008dd0 <vTaskInternalSetTimeOutState+0x14>)
 8008dc0:	6812      	ldr	r2, [r2, #0]
 8008dc2:	681b      	ldr	r3, [r3, #0]
 8008dc4:	e9c0 2300 	strd	r2, r3, [r0]
 8008dc8:	4770      	bx	lr
 8008dca:	bf00      	nop
 8008dcc:	24000170 	.word	0x24000170
 8008dd0:	240001b8 	.word	0x240001b8

08008dd4 <xTaskCheckForTimeOut>:
 8008dd4:	b5f8      	push	{r3, r4, r5, r6, r7, lr}
 8008dd6:	b308      	cbz	r0, 8008e1c <xTaskCheckForTimeOut+0x48>
 8008dd8:	460d      	mov	r5, r1
 8008dda:	b1b1      	cbz	r1, 8008e0a <xTaskCheckForTimeOut+0x36>
 8008ddc:	4604      	mov	r4, r0
 8008dde:	f000 fbc1 	bl	8009564 <vPortEnterCritical>
 8008de2:	682b      	ldr	r3, [r5, #0]
 8008de4:	f8df c078 	ldr.w	ip, [pc, #120]	; 8008e60 <xTaskCheckForTimeOut+0x8c>
 8008de8:	1c5a      	adds	r2, r3, #1
 8008dea:	f8dc 1000 	ldr.w	r1, [ip]
 8008dee:	d02b      	beq.n	8008e48 <xTaskCheckForTimeOut+0x74>
 8008df0:	4e1a      	ldr	r6, [pc, #104]	; (8008e5c <xTaskCheckForTimeOut+0x88>)
 8008df2:	e9d4 0200 	ldrd	r0, r2, [r4]
 8008df6:	6837      	ldr	r7, [r6, #0]
 8008df8:	42b8      	cmp	r0, r7
 8008dfa:	d018      	beq.n	8008e2e <xTaskCheckForTimeOut+0x5a>
 8008dfc:	428a      	cmp	r2, r1
 8008dfe:	d816      	bhi.n	8008e2e <xTaskCheckForTimeOut+0x5a>
 8008e00:	2601      	movs	r6, #1
 8008e02:	f000 fbd1 	bl	80095a8 <vPortExitCritical>
 8008e06:	4630      	mov	r0, r6
 8008e08:	bdf8      	pop	{r3, r4, r5, r6, r7, pc}
 8008e0a:	f04f 0350 	mov.w	r3, #80	; 0x50
 8008e0e:	f383 8811 	msr	BASEPRI, r3
 8008e12:	f3bf 8f6f 	isb	sy
 8008e16:	f3bf 8f4f 	dsb	sy
 8008e1a:	e7fe      	b.n	8008e1a <xTaskCheckForTimeOut+0x46>
 8008e1c:	f04f 0350 	mov.w	r3, #80	; 0x50
 8008e20:	f383 8811 	msr	BASEPRI, r3
 8008e24:	f3bf 8f6f 	isb	sy
 8008e28:	f3bf 8f4f 	dsb	sy
 8008e2c:	e7fe      	b.n	8008e2c <xTaskCheckForTimeOut+0x58>
 8008e2e:	1a8f      	subs	r7, r1, r2
 8008e30:	42bb      	cmp	r3, r7
 8008e32:	d90e      	bls.n	8008e52 <xTaskCheckForTimeOut+0x7e>
 8008e34:	1a5b      	subs	r3, r3, r1
 8008e36:	6837      	ldr	r7, [r6, #0]
 8008e38:	f8dc 1000 	ldr.w	r1, [ip]
 8008e3c:	2600      	movs	r6, #0
 8008e3e:	4413      	add	r3, r2
 8008e40:	602b      	str	r3, [r5, #0]
 8008e42:	e9c4 7100 	strd	r7, r1, [r4]
 8008e46:	e7dc      	b.n	8008e02 <xTaskCheckForTimeOut+0x2e>
 8008e48:	2600      	movs	r6, #0
 8008e4a:	f000 fbad 	bl	80095a8 <vPortExitCritical>
 8008e4e:	4630      	mov	r0, r6
 8008e50:	bdf8      	pop	{r3, r4, r5, r6, r7, pc}
 8008e52:	2300      	movs	r3, #0
 8008e54:	2601      	movs	r6, #1
 8008e56:	602b      	str	r3, [r5, #0]
 8008e58:	e7d3      	b.n	8008e02 <xTaskCheckForTimeOut+0x2e>
 8008e5a:	bf00      	nop
 8008e5c:	24000170 	.word	0x24000170
 8008e60:	240001b8 	.word	0x240001b8

08008e64 <vTaskMissedYield>:
 8008e64:	4b01      	ldr	r3, [pc, #4]	; (8008e6c <vTaskMissedYield+0x8>)
 8008e66:	2201      	movs	r2, #1
 8008e68:	601a      	str	r2, [r3, #0]
 8008e6a:	4770      	bx	lr
 8008e6c:	240001bc 	.word	0x240001bc

08008e70 <xTaskGetSchedulerState>:
 8008e70:	4b05      	ldr	r3, [pc, #20]	; (8008e88 <xTaskGetSchedulerState+0x18>)
 8008e72:	681b      	ldr	r3, [r3, #0]
 8008e74:	b133      	cbz	r3, 8008e84 <xTaskGetSchedulerState+0x14>
 8008e76:	4b05      	ldr	r3, [pc, #20]	; (8008e8c <xTaskGetSchedulerState+0x1c>)
 8008e78:	681b      	ldr	r3, [r3, #0]
 8008e7a:	2b00      	cmp	r3, #0
 8008e7c:	bf0c      	ite	eq
 8008e7e:	2002      	moveq	r0, #2
 8008e80:	2000      	movne	r0, #0
 8008e82:	4770      	bx	lr
 8008e84:	2001      	movs	r0, #1
 8008e86:	4770      	bx	lr
 8008e88:	2400018c 	.word	0x2400018c
 8008e8c:	24000134 	.word	0x24000134

08008e90 <xTaskPriorityInherit>:
 8008e90:	b5f0      	push	{r4, r5, r6, r7, lr}
 8008e92:	4604      	mov	r4, r0
 8008e94:	b083      	sub	sp, #12
 8008e96:	b1c8      	cbz	r0, 8008ecc <xTaskPriorityInherit+0x3c>
 8008e98:	4d22      	ldr	r5, [pc, #136]	; (8008f24 <xTaskPriorityInherit+0x94>)
 8008e9a:	6ac3      	ldr	r3, [r0, #44]	; 0x2c
 8008e9c:	682a      	ldr	r2, [r5, #0]
 8008e9e:	6ad2      	ldr	r2, [r2, #44]	; 0x2c
 8008ea0:	4293      	cmp	r3, r2
 8008ea2:	d215      	bcs.n	8008ed0 <xTaskPriorityInherit+0x40>
 8008ea4:	6982      	ldr	r2, [r0, #24]
 8008ea6:	2a00      	cmp	r2, #0
 8008ea8:	db04      	blt.n	8008eb4 <xTaskPriorityInherit+0x24>
 8008eaa:	682a      	ldr	r2, [r5, #0]
 8008eac:	6ad2      	ldr	r2, [r2, #44]	; 0x2c
 8008eae:	f1c2 0207 	rsb	r2, r2, #7
 8008eb2:	6182      	str	r2, [r0, #24]
 8008eb4:	eb03 0383 	add.w	r3, r3, r3, lsl #2
 8008eb8:	4e1b      	ldr	r6, [pc, #108]	; (8008f28 <xTaskPriorityInherit+0x98>)
 8008eba:	6962      	ldr	r2, [r4, #20]
 8008ebc:	eb06 0383 	add.w	r3, r6, r3, lsl #2
 8008ec0:	429a      	cmp	r2, r3
 8008ec2:	d00e      	beq.n	8008ee2 <xTaskPriorityInherit+0x52>
 8008ec4:	682b      	ldr	r3, [r5, #0]
 8008ec6:	2001      	movs	r0, #1
 8008ec8:	6adb      	ldr	r3, [r3, #44]	; 0x2c
 8008eca:	62e3      	str	r3, [r4, #44]	; 0x2c
 8008ecc:	b003      	add	sp, #12
 8008ece:	bdf0      	pop	{r4, r5, r6, r7, pc}
 8008ed0:	682b      	ldr	r3, [r5, #0]
 8008ed2:	6c40      	ldr	r0, [r0, #68]	; 0x44
 8008ed4:	6adb      	ldr	r3, [r3, #44]	; 0x2c
 8008ed6:	4298      	cmp	r0, r3
 8008ed8:	bf2c      	ite	cs
 8008eda:	2000      	movcs	r0, #0
 8008edc:	2001      	movcc	r0, #1
 8008ede:	b003      	add	sp, #12
 8008ee0:	bdf0      	pop	{r4, r5, r6, r7, pc}
 8008ee2:	1d21      	adds	r1, r4, #4
 8008ee4:	4608      	mov	r0, r1
 8008ee6:	9101      	str	r1, [sp, #4]
 8008ee8:	f7fe fb46 	bl	8007578 <uxListRemove>
 8008eec:	9901      	ldr	r1, [sp, #4]
 8008eee:	4a0f      	ldr	r2, [pc, #60]	; (8008f2c <xTaskPriorityInherit+0x9c>)
 8008ef0:	b930      	cbnz	r0, 8008f00 <xTaskPriorityInherit+0x70>
 8008ef2:	2001      	movs	r0, #1
 8008ef4:	6ae7      	ldr	r7, [r4, #44]	; 0x2c
 8008ef6:	6813      	ldr	r3, [r2, #0]
 8008ef8:	40b8      	lsls	r0, r7
 8008efa:	ea23 0300 	bic.w	r3, r3, r0
 8008efe:	6013      	str	r3, [r2, #0]
 8008f00:	682b      	ldr	r3, [r5, #0]
 8008f02:	2501      	movs	r5, #1
 8008f04:	6817      	ldr	r7, [r2, #0]
 8008f06:	6ad8      	ldr	r0, [r3, #44]	; 0x2c
 8008f08:	fa05 f300 	lsl.w	r3, r5, r0
 8008f0c:	62e0      	str	r0, [r4, #44]	; 0x2c
 8008f0e:	eb00 0080 	add.w	r0, r0, r0, lsl #2
 8008f12:	433b      	orrs	r3, r7
 8008f14:	eb06 0080 	add.w	r0, r6, r0, lsl #2
 8008f18:	6013      	str	r3, [r2, #0]
 8008f1a:	f7fe fb05 	bl	8007528 <vListInsertEnd>
 8008f1e:	4628      	mov	r0, r5
 8008f20:	e7d4      	b.n	8008ecc <xTaskPriorityInherit+0x3c>
 8008f22:	bf00      	nop
 8008f24:	24000094 	.word	0x24000094
 8008f28:	240000a0 	.word	0x240000a0
 8008f2c:	2400013c 	.word	0x2400013c

08008f30 <xTaskPriorityDisinherit>:
 8008f30:	b1d8      	cbz	r0, 8008f6a <xTaskPriorityDisinherit+0x3a>
 8008f32:	4b2a      	ldr	r3, [pc, #168]	; (8008fdc <xTaskPriorityDisinherit+0xac>)
 8008f34:	681b      	ldr	r3, [r3, #0]
 8008f36:	4283      	cmp	r3, r0
 8008f38:	b5f0      	push	{r4, r5, r6, r7, lr}
 8008f3a:	4604      	mov	r4, r0
 8008f3c:	b083      	sub	sp, #12
 8008f3e:	d008      	beq.n	8008f52 <xTaskPriorityDisinherit+0x22>
 8008f40:	f04f 0350 	mov.w	r3, #80	; 0x50
 8008f44:	f383 8811 	msr	BASEPRI, r3
 8008f48:	f3bf 8f6f 	isb	sy
 8008f4c:	f3bf 8f4f 	dsb	sy
 8008f50:	e7fe      	b.n	8008f50 <xTaskPriorityDisinherit+0x20>
 8008f52:	6c9b      	ldr	r3, [r3, #72]	; 0x48
 8008f54:	b15b      	cbz	r3, 8008f6e <xTaskPriorityDisinherit+0x3e>
 8008f56:	6ac1      	ldr	r1, [r0, #44]	; 0x2c
 8008f58:	3b01      	subs	r3, #1
 8008f5a:	6c42      	ldr	r2, [r0, #68]	; 0x44
 8008f5c:	6483      	str	r3, [r0, #72]	; 0x48
 8008f5e:	4291      	cmp	r1, r2
 8008f60:	d000      	beq.n	8008f64 <xTaskPriorityDisinherit+0x34>
 8008f62:	b16b      	cbz	r3, 8008f80 <xTaskPriorityDisinherit+0x50>
 8008f64:	2000      	movs	r0, #0
 8008f66:	b003      	add	sp, #12
 8008f68:	bdf0      	pop	{r4, r5, r6, r7, pc}
 8008f6a:	2000      	movs	r0, #0
 8008f6c:	4770      	bx	lr
 8008f6e:	f04f 0350 	mov.w	r3, #80	; 0x50
 8008f72:	f383 8811 	msr	BASEPRI, r3
 8008f76:	f3bf 8f6f 	isb	sy
 8008f7a:	f3bf 8f4f 	dsb	sy
 8008f7e:	e7fe      	b.n	8008f7e <xTaskPriorityDisinherit+0x4e>
 8008f80:	1d01      	adds	r1, r0, #4
 8008f82:	4608      	mov	r0, r1
 8008f84:	9101      	str	r1, [sp, #4]
 8008f86:	f7fe faf7 	bl	8007578 <uxListRemove>
 8008f8a:	9901      	ldr	r1, [sp, #4]
 8008f8c:	b1b0      	cbz	r0, 8008fbc <xTaskPriorityDisinherit+0x8c>
 8008f8e:	4814      	ldr	r0, [pc, #80]	; (8008fe0 <xTaskPriorityDisinherit+0xb0>)
 8008f90:	4a14      	ldr	r2, [pc, #80]	; (8008fe4 <xTaskPriorityDisinherit+0xb4>)
 8008f92:	6c63      	ldr	r3, [r4, #68]	; 0x44
 8008f94:	2501      	movs	r5, #1
 8008f96:	f8d2 c000 	ldr.w	ip, [r2]
 8008f9a:	fa05 f603 	lsl.w	r6, r5, r3
 8008f9e:	f1c3 0707 	rsb	r7, r3, #7
 8008fa2:	62e3      	str	r3, [r4, #44]	; 0x2c
 8008fa4:	eb03 0383 	add.w	r3, r3, r3, lsl #2
 8008fa8:	ea46 060c 	orr.w	r6, r6, ip
 8008fac:	61a7      	str	r7, [r4, #24]
 8008fae:	eb00 0083 	add.w	r0, r0, r3, lsl #2
 8008fb2:	6016      	str	r6, [r2, #0]
 8008fb4:	f7fe fab8 	bl	8007528 <vListInsertEnd>
 8008fb8:	4628      	mov	r0, r5
 8008fba:	e7d4      	b.n	8008f66 <xTaskPriorityDisinherit+0x36>
 8008fbc:	6ae6      	ldr	r6, [r4, #44]	; 0x2c
 8008fbe:	4808      	ldr	r0, [pc, #32]	; (8008fe0 <xTaskPriorityDisinherit+0xb0>)
 8008fc0:	eb06 0386 	add.w	r3, r6, r6, lsl #2
 8008fc4:	4a07      	ldr	r2, [pc, #28]	; (8008fe4 <xTaskPriorityDisinherit+0xb4>)
 8008fc6:	009b      	lsls	r3, r3, #2
 8008fc8:	58c3      	ldr	r3, [r0, r3]
 8008fca:	2b00      	cmp	r3, #0
 8008fcc:	d1e1      	bne.n	8008f92 <xTaskPriorityDisinherit+0x62>
 8008fce:	2501      	movs	r5, #1
 8008fd0:	6813      	ldr	r3, [r2, #0]
 8008fd2:	40b5      	lsls	r5, r6
 8008fd4:	ea23 0305 	bic.w	r3, r3, r5
 8008fd8:	6013      	str	r3, [r2, #0]
 8008fda:	e7da      	b.n	8008f92 <xTaskPriorityDisinherit+0x62>
 8008fdc:	24000094 	.word	0x24000094
 8008fe0:	240000a0 	.word	0x240000a0
 8008fe4:	2400013c 	.word	0x2400013c

08008fe8 <vTaskPriorityDisinheritAfterTimeout>:
 8008fe8:	b1c8      	cbz	r0, 800901e <vTaskPriorityDisinheritAfterTimeout+0x36>
 8008fea:	460b      	mov	r3, r1
 8008fec:	6c81      	ldr	r1, [r0, #72]	; 0x48
 8008fee:	b530      	push	{r4, r5, lr}
 8008ff0:	4604      	mov	r4, r0
 8008ff2:	b083      	sub	sp, #12
 8008ff4:	b151      	cbz	r1, 800900c <vTaskPriorityDisinheritAfterTimeout+0x24>
 8008ff6:	6c40      	ldr	r0, [r0, #68]	; 0x44
 8008ff8:	6ae2      	ldr	r2, [r4, #44]	; 0x2c
 8008ffa:	4283      	cmp	r3, r0
 8008ffc:	bf38      	it	cc
 8008ffe:	4603      	movcc	r3, r0
 8009000:	429a      	cmp	r2, r3
 8009002:	d001      	beq.n	8009008 <vTaskPriorityDisinheritAfterTimeout+0x20>
 8009004:	2901      	cmp	r1, #1
 8009006:	d00b      	beq.n	8009020 <vTaskPriorityDisinheritAfterTimeout+0x38>
 8009008:	b003      	add	sp, #12
 800900a:	bd30      	pop	{r4, r5, pc}
 800900c:	f04f 0350 	mov.w	r3, #80	; 0x50
 8009010:	f383 8811 	msr	BASEPRI, r3
 8009014:	f3bf 8f6f 	isb	sy
 8009018:	f3bf 8f4f 	dsb	sy
 800901c:	e7fe      	b.n	800901c <vTaskPriorityDisinheritAfterTimeout+0x34>
 800901e:	4770      	bx	lr
 8009020:	491d      	ldr	r1, [pc, #116]	; (8009098 <vTaskPriorityDisinheritAfterTimeout+0xb0>)
 8009022:	6809      	ldr	r1, [r1, #0]
 8009024:	42a1      	cmp	r1, r4
 8009026:	d025      	beq.n	8009074 <vTaskPriorityDisinheritAfterTimeout+0x8c>
 8009028:	69a1      	ldr	r1, [r4, #24]
 800902a:	62e3      	str	r3, [r4, #44]	; 0x2c
 800902c:	2900      	cmp	r1, #0
 800902e:	db02      	blt.n	8009036 <vTaskPriorityDisinheritAfterTimeout+0x4e>
 8009030:	f1c3 0307 	rsb	r3, r3, #7
 8009034:	61a3      	str	r3, [r4, #24]
 8009036:	eb02 0282 	add.w	r2, r2, r2, lsl #2
 800903a:	4d18      	ldr	r5, [pc, #96]	; (800909c <vTaskPriorityDisinheritAfterTimeout+0xb4>)
 800903c:	6961      	ldr	r1, [r4, #20]
 800903e:	eb05 0382 	add.w	r3, r5, r2, lsl #2
 8009042:	4299      	cmp	r1, r3
 8009044:	d1e0      	bne.n	8009008 <vTaskPriorityDisinheritAfterTimeout+0x20>
 8009046:	1d21      	adds	r1, r4, #4
 8009048:	4608      	mov	r0, r1
 800904a:	9101      	str	r1, [sp, #4]
 800904c:	f7fe fa94 	bl	8007578 <uxListRemove>
 8009050:	9901      	ldr	r1, [sp, #4]
 8009052:	b1c0      	cbz	r0, 8009086 <vTaskPriorityDisinheritAfterTimeout+0x9e>
 8009054:	6ae0      	ldr	r0, [r4, #44]	; 0x2c
 8009056:	2301      	movs	r3, #1
 8009058:	4a11      	ldr	r2, [pc, #68]	; (80090a0 <vTaskPriorityDisinheritAfterTimeout+0xb8>)
 800905a:	4083      	lsls	r3, r0
 800905c:	6814      	ldr	r4, [r2, #0]
 800905e:	eb00 0080 	add.w	r0, r0, r0, lsl #2
 8009062:	4323      	orrs	r3, r4
 8009064:	eb05 0080 	add.w	r0, r5, r0, lsl #2
 8009068:	6013      	str	r3, [r2, #0]
 800906a:	b003      	add	sp, #12
 800906c:	e8bd 4030 	ldmia.w	sp!, {r4, r5, lr}
 8009070:	f7fe ba5a 	b.w	8007528 <vListInsertEnd>
 8009074:	f04f 0350 	mov.w	r3, #80	; 0x50
 8009078:	f383 8811 	msr	BASEPRI, r3
 800907c:	f3bf 8f6f 	isb	sy
 8009080:	f3bf 8f4f 	dsb	sy
 8009084:	e7fe      	b.n	8009084 <vTaskPriorityDisinheritAfterTimeout+0x9c>
 8009086:	6ae0      	ldr	r0, [r4, #44]	; 0x2c
 8009088:	2301      	movs	r3, #1
 800908a:	4a05      	ldr	r2, [pc, #20]	; (80090a0 <vTaskPriorityDisinheritAfterTimeout+0xb8>)
 800908c:	4083      	lsls	r3, r0
 800908e:	6814      	ldr	r4, [r2, #0]
 8009090:	ea24 0403 	bic.w	r4, r4, r3
 8009094:	6014      	str	r4, [r2, #0]
 8009096:	e7e1      	b.n	800905c <vTaskPriorityDisinheritAfterTimeout+0x74>
 8009098:	24000094 	.word	0x24000094
 800909c:	240000a0 	.word	0x240000a0
 80090a0:	2400013c 	.word	0x2400013c

080090a4 <pvTaskIncrementMutexHeldCount>:
 80090a4:	4b04      	ldr	r3, [pc, #16]	; (80090b8 <pvTaskIncrementMutexHeldCount+0x14>)
 80090a6:	681a      	ldr	r2, [r3, #0]
 80090a8:	b11a      	cbz	r2, 80090b2 <pvTaskIncrementMutexHeldCount+0xe>
 80090aa:	6819      	ldr	r1, [r3, #0]
 80090ac:	6c8a      	ldr	r2, [r1, #72]	; 0x48
 80090ae:	3201      	adds	r2, #1
 80090b0:	648a      	str	r2, [r1, #72]	; 0x48
 80090b2:	6818      	ldr	r0, [r3, #0]
 80090b4:	4770      	bx	lr
 80090b6:	bf00      	nop
 80090b8:	24000094 	.word	0x24000094

080090bc <prvSwitchTimerLists>:
 80090bc:	e92d 43f0 	stmdb	sp!, {r4, r5, r6, r7, r8, r9, lr}
 80090c0:	4e22      	ldr	r6, [pc, #136]	; (800914c <prvSwitchTimerLists+0x90>)
 80090c2:	b085      	sub	sp, #20
 80090c4:	f04f 0800 	mov.w	r8, #0
 80090c8:	f8df 9088 	ldr.w	r9, [pc, #136]	; 8009154 <prvSwitchTimerLists+0x98>
 80090cc:	e00d      	b.n	80090ea <prvSwitchTimerLists+0x2e>
 80090ce:	68db      	ldr	r3, [r3, #12]
 80090d0:	68dc      	ldr	r4, [r3, #12]
 80090d2:	681f      	ldr	r7, [r3, #0]
 80090d4:	1d25      	adds	r5, r4, #4
 80090d6:	4628      	mov	r0, r5
 80090d8:	f7fe fa4e 	bl	8007578 <uxListRemove>
 80090dc:	6a23      	ldr	r3, [r4, #32]
 80090de:	4620      	mov	r0, r4
 80090e0:	4798      	blx	r3
 80090e2:	f894 3024 	ldrb.w	r3, [r4, #36]	; 0x24
 80090e6:	075b      	lsls	r3, r3, #29
 80090e8:	d40a      	bmi.n	8009100 <prvSwitchTimerLists+0x44>
 80090ea:	6833      	ldr	r3, [r6, #0]
 80090ec:	681a      	ldr	r2, [r3, #0]
 80090ee:	2a00      	cmp	r2, #0
 80090f0:	d1ed      	bne.n	80090ce <prvSwitchTimerLists+0x12>
 80090f2:	4a17      	ldr	r2, [pc, #92]	; (8009150 <prvSwitchTimerLists+0x94>)
 80090f4:	6811      	ldr	r1, [r2, #0]
 80090f6:	6013      	str	r3, [r2, #0]
 80090f8:	6031      	str	r1, [r6, #0]
 80090fa:	b005      	add	sp, #20
 80090fc:	e8bd 83f0 	ldmia.w	sp!, {r4, r5, r6, r7, r8, r9, pc}
 8009100:	69a3      	ldr	r3, [r4, #24]
 8009102:	4629      	mov	r1, r5
 8009104:	443b      	add	r3, r7
 8009106:	429f      	cmp	r7, r3
 8009108:	d205      	bcs.n	8009116 <prvSwitchTimerLists+0x5a>
 800910a:	6830      	ldr	r0, [r6, #0]
 800910c:	6063      	str	r3, [r4, #4]
 800910e:	6124      	str	r4, [r4, #16]
 8009110:	f7fe fa1a 	bl	8007548 <vListInsert>
 8009114:	e7e9      	b.n	80090ea <prvSwitchTimerLists+0x2e>
 8009116:	f8d9 3000 	ldr.w	r3, [r9]
 800911a:	b16b      	cbz	r3, 8009138 <prvSwitchTimerLists+0x7c>
 800911c:	9403      	str	r4, [sp, #12]
 800911e:	e9cd 8701 	strd	r8, r7, [sp, #4]
 8009122:	f7ff fea5 	bl	8008e70 <xTaskGetSchedulerState>
 8009126:	2300      	movs	r3, #0
 8009128:	a901      	add	r1, sp, #4
 800912a:	f8d9 0000 	ldr.w	r0, [r9]
 800912e:	461a      	mov	r2, r3
 8009130:	f7fe fab4 	bl	800769c <xQueueGenericSend>
 8009134:	2800      	cmp	r0, #0
 8009136:	d1d8      	bne.n	80090ea <prvSwitchTimerLists+0x2e>
 8009138:	f04f 0350 	mov.w	r3, #80	; 0x50
 800913c:	f383 8811 	msr	BASEPRI, r3
 8009140:	f3bf 8f6f 	isb	sy
 8009144:	f3bf 8f4f 	dsb	sy
 8009148:	e7fe      	b.n	8009148 <prvSwitchTimerLists+0x8c>
 800914a:	bf00      	nop
 800914c:	240001c0 	.word	0x240001c0
 8009150:	240001c4 	.word	0x240001c4
 8009154:	240001f4 	.word	0x240001f4

08009158 <prvTimerTask>:
 8009158:	e92d 4ff0 	stmdb	sp!, {r4, r5, r6, r7, r8, r9, sl, fp, lr}
 800915c:	4ea1      	ldr	r6, [pc, #644]	; (80093e4 <prvTimerTask+0x28c>)
 800915e:	b089      	sub	sp, #36	; 0x24
 8009160:	4da1      	ldr	r5, [pc, #644]	; (80093e8 <prvTimerTask+0x290>)
 8009162:	f04f 0800 	mov.w	r8, #0
 8009166:	4fa1      	ldr	r7, [pc, #644]	; (80093ec <prvTimerTask+0x294>)
 8009168:	4ca1      	ldr	r4, [pc, #644]	; (80093f0 <prvTimerTask+0x298>)
 800916a:	6833      	ldr	r3, [r6, #0]
 800916c:	f8d3 a000 	ldr.w	sl, [r3]
 8009170:	f1ba 0f00 	cmp.w	sl, #0
 8009174:	f000 80b9 	beq.w	80092ea <prvTimerTask+0x192>
 8009178:	68db      	ldr	r3, [r3, #12]
 800917a:	f8d3 a000 	ldr.w	sl, [r3]
 800917e:	f7ff fcaf 	bl	8008ae0 <vTaskSuspendAll>
 8009182:	f7ff fcc5 	bl	8008b10 <xTaskGetTickCount>
 8009186:	682a      	ldr	r2, [r5, #0]
 8009188:	4681      	mov	r9, r0
 800918a:	4290      	cmp	r0, r2
 800918c:	f0c0 80b5 	bcc.w	80092fa <prvTimerTask+0x1a2>
 8009190:	4582      	cmp	sl, r0
 8009192:	6028      	str	r0, [r5, #0]
 8009194:	f200 80bb 	bhi.w	800930e <prvTimerTask+0x1b6>
 8009198:	f7ff fcaa 	bl	8008af0 <xTaskResumeAll>
 800919c:	6832      	ldr	r2, [r6, #0]
 800919e:	68d2      	ldr	r2, [r2, #12]
 80091a0:	f8d2 b00c 	ldr.w	fp, [r2, #12]
 80091a4:	f10b 0104 	add.w	r1, fp, #4
 80091a8:	4608      	mov	r0, r1
 80091aa:	9101      	str	r1, [sp, #4]
 80091ac:	f7fe f9e4 	bl	8007578 <uxListRemove>
 80091b0:	f89b 0024 	ldrb.w	r0, [fp, #36]	; 0x24
 80091b4:	9901      	ldr	r1, [sp, #4]
 80091b6:	f010 0f04 	tst.w	r0, #4
 80091ba:	f040 80cf 	bne.w	800935c <prvTimerTask+0x204>
 80091be:	f020 0001 	bic.w	r0, r0, #1
 80091c2:	f88b 0024 	strb.w	r0, [fp, #36]	; 0x24
 80091c6:	f8db 3020 	ldr.w	r3, [fp, #32]
 80091ca:	4658      	mov	r0, fp
 80091cc:	4798      	blx	r3
 80091ce:	2200      	movs	r2, #0
 80091d0:	a902      	add	r1, sp, #8
 80091d2:	6820      	ldr	r0, [r4, #0]
 80091d4:	f7fe fc74 	bl	8007ac0 <xQueueReceive>
 80091d8:	2800      	cmp	r0, #0
 80091da:	d0c6      	beq.n	800916a <prvTimerTask+0x12>
 80091dc:	9b02      	ldr	r3, [sp, #8]
 80091de:	2b00      	cmp	r3, #0
 80091e0:	dbf5      	blt.n	80091ce <prvTimerTask+0x76>
 80091e2:	f8dd b010 	ldr.w	fp, [sp, #16]
 80091e6:	f8db 3014 	ldr.w	r3, [fp, #20]
 80091ea:	b11b      	cbz	r3, 80091f4 <prvTimerTask+0x9c>
 80091ec:	f10b 0004 	add.w	r0, fp, #4
 80091f0:	f7fe f9c2 	bl	8007578 <uxListRemove>
 80091f4:	f7ff fc8c 	bl	8008b10 <xTaskGetTickCount>
 80091f8:	682b      	ldr	r3, [r5, #0]
 80091fa:	4681      	mov	r9, r0
 80091fc:	4298      	cmp	r0, r3
 80091fe:	f0c0 8083 	bcc.w	8009308 <prvTimerTask+0x1b0>
 8009202:	9b02      	ldr	r3, [sp, #8]
 8009204:	f8c5 9000 	str.w	r9, [r5]
 8009208:	2b09      	cmp	r3, #9
 800920a:	d8e0      	bhi.n	80091ce <prvTimerTask+0x76>
 800920c:	e8df f003 	tbb	[pc, r3]
 8009210:	5d050505 	.word	0x5d050505
 8009214:	05056443 	.word	0x05056443
 8009218:	435d      	.short	0x435d
 800921a:	f89b 1024 	ldrb.w	r1, [fp, #36]	; 0x24
 800921e:	9b03      	ldr	r3, [sp, #12]
 8009220:	f8db 2018 	ldr.w	r2, [fp, #24]
 8009224:	f041 0101 	orr.w	r1, r1, #1
 8009228:	f8cb b010 	str.w	fp, [fp, #16]
 800922c:	1898      	adds	r0, r3, r2
 800922e:	f88b 1024 	strb.w	r1, [fp, #36]	; 0x24
 8009232:	bf2c      	ite	cs
 8009234:	2101      	movcs	r1, #1
 8009236:	2100      	movcc	r1, #0
 8009238:	4548      	cmp	r0, r9
 800923a:	f8cb 0004 	str.w	r0, [fp, #4]
 800923e:	f200 8082 	bhi.w	8009346 <prvTimerTask+0x1ee>
 8009242:	eba9 0303 	sub.w	r3, r9, r3
 8009246:	429a      	cmp	r2, r3
 8009248:	f200 80b4 	bhi.w	80093b4 <prvTimerTask+0x25c>
 800924c:	f8db 3020 	ldr.w	r3, [fp, #32]
 8009250:	4658      	mov	r0, fp
 8009252:	4798      	blx	r3
 8009254:	f89b 3024 	ldrb.w	r3, [fp, #36]	; 0x24
 8009258:	075b      	lsls	r3, r3, #29
 800925a:	d5b8      	bpl.n	80091ce <prvTimerTask+0x76>
 800925c:	6823      	ldr	r3, [r4, #0]
 800925e:	b18b      	cbz	r3, 8009284 <prvTimerTask+0x12c>
 8009260:	f8db 2018 	ldr.w	r2, [fp, #24]
 8009264:	9b03      	ldr	r3, [sp, #12]
 8009266:	f8cd 8014 	str.w	r8, [sp, #20]
 800926a:	4413      	add	r3, r2
 800926c:	e9cd 3b06 	strd	r3, fp, [sp, #24]
 8009270:	f7ff fdfe 	bl	8008e70 <xTaskGetSchedulerState>
 8009274:	2300      	movs	r3, #0
 8009276:	a905      	add	r1, sp, #20
 8009278:	6820      	ldr	r0, [r4, #0]
 800927a:	461a      	mov	r2, r3
 800927c:	f7fe fa0e 	bl	800769c <xQueueGenericSend>
 8009280:	2800      	cmp	r0, #0
 8009282:	d1a4      	bne.n	80091ce <prvTimerTask+0x76>
 8009284:	f04f 0350 	mov.w	r3, #80	; 0x50
 8009288:	f383 8811 	msr	BASEPRI, r3
 800928c:	f3bf 8f6f 	isb	sy
 8009290:	f3bf 8f4f 	dsb	sy
 8009294:	e7fe      	b.n	8009294 <prvTimerTask+0x13c>
 8009296:	f89b 2024 	ldrb.w	r2, [fp, #36]	; 0x24
 800929a:	9b03      	ldr	r3, [sp, #12]
 800929c:	f042 0201 	orr.w	r2, r2, #1
 80092a0:	f8cb 3018 	str.w	r3, [fp, #24]
 80092a4:	f88b 2024 	strb.w	r2, [fp, #36]	; 0x24
 80092a8:	2b00      	cmp	r3, #0
 80092aa:	f000 808d 	beq.w	80093c8 <prvTimerTask+0x270>
 80092ae:	444b      	add	r3, r9
 80092b0:	f10b 0104 	add.w	r1, fp, #4
 80092b4:	f8cb b010 	str.w	fp, [fp, #16]
 80092b8:	454b      	cmp	r3, r9
 80092ba:	f8cb 3004 	str.w	r3, [fp, #4]
 80092be:	bf94      	ite	ls
 80092c0:	6838      	ldrls	r0, [r7, #0]
 80092c2:	6830      	ldrhi	r0, [r6, #0]
 80092c4:	f7fe f940 	bl	8007548 <vListInsert>
 80092c8:	e781      	b.n	80091ce <prvTimerTask+0x76>
 80092ca:	f89b 3024 	ldrb.w	r3, [fp, #36]	; 0x24
 80092ce:	f023 0301 	bic.w	r3, r3, #1
 80092d2:	f88b 3024 	strb.w	r3, [fp, #36]	; 0x24
 80092d6:	e77a      	b.n	80091ce <prvTimerTask+0x76>
 80092d8:	f89b 3024 	ldrb.w	r3, [fp, #36]	; 0x24
 80092dc:	079a      	lsls	r2, r3, #30
 80092de:	d565      	bpl.n	80093ac <prvTimerTask+0x254>
 80092e0:	f023 0301 	bic.w	r3, r3, #1
 80092e4:	f88b 3024 	strb.w	r3, [fp, #36]	; 0x24
 80092e8:	e771      	b.n	80091ce <prvTimerTask+0x76>
 80092ea:	f7ff fbf9 	bl	8008ae0 <vTaskSuspendAll>
 80092ee:	f7ff fc0f 	bl	8008b10 <xTaskGetTickCount>
 80092f2:	682a      	ldr	r2, [r5, #0]
 80092f4:	4681      	mov	r9, r0
 80092f6:	4290      	cmp	r0, r2
 80092f8:	d21d      	bcs.n	8009336 <prvTimerTask+0x1de>
 80092fa:	f7ff fedf 	bl	80090bc <prvSwitchTimerLists>
 80092fe:	f8c5 9000 	str.w	r9, [r5]
 8009302:	f7ff fbf5 	bl	8008af0 <xTaskResumeAll>
 8009306:	e762      	b.n	80091ce <prvTimerTask+0x76>
 8009308:	f7ff fed8 	bl	80090bc <prvSwitchTimerLists>
 800930c:	e779      	b.n	8009202 <prvTimerTask+0xaa>
 800930e:	2200      	movs	r2, #0
 8009310:	ebaa 0109 	sub.w	r1, sl, r9
 8009314:	6820      	ldr	r0, [r4, #0]
 8009316:	f7fe ff0f 	bl	8008138 <vQueueWaitForMessageRestricted>
 800931a:	f7ff fbe9 	bl	8008af0 <xTaskResumeAll>
 800931e:	2800      	cmp	r0, #0
 8009320:	f47f af55 	bne.w	80091ce <prvTimerTask+0x76>
 8009324:	4b33      	ldr	r3, [pc, #204]	; (80093f4 <prvTimerTask+0x29c>)
 8009326:	f04f 5280 	mov.w	r2, #268435456	; 0x10000000
 800932a:	601a      	str	r2, [r3, #0]
 800932c:	f3bf 8f4f 	dsb	sy
 8009330:	f3bf 8f6f 	isb	sy
 8009334:	e74b      	b.n	80091ce <prvTimerTask+0x76>
 8009336:	683a      	ldr	r2, [r7, #0]
 8009338:	f8c5 9000 	str.w	r9, [r5]
 800933c:	6812      	ldr	r2, [r2, #0]
 800933e:	fab2 f282 	clz	r2, r2
 8009342:	0952      	lsrs	r2, r2, #5
 8009344:	e7e4      	b.n	8009310 <prvTimerTask+0x1b8>
 8009346:	454b      	cmp	r3, r9
 8009348:	d902      	bls.n	8009350 <prvTimerTask+0x1f8>
 800934a:	2900      	cmp	r1, #0
 800934c:	f43f af7e 	beq.w	800924c <prvTimerTask+0xf4>
 8009350:	f10b 0104 	add.w	r1, fp, #4
 8009354:	6830      	ldr	r0, [r6, #0]
 8009356:	f7fe f8f7 	bl	8007548 <vListInsert>
 800935a:	e738      	b.n	80091ce <prvTimerTask+0x76>
 800935c:	f8db 0018 	ldr.w	r0, [fp, #24]
 8009360:	f8cb b010 	str.w	fp, [fp, #16]
 8009364:	eb0a 0300 	add.w	r3, sl, r0
 8009368:	4599      	cmp	r9, r3
 800936a:	f8cb 3004 	str.w	r3, [fp, #4]
 800936e:	d327      	bcc.n	80093c0 <prvTimerTask+0x268>
 8009370:	eba9 030a 	sub.w	r3, r9, sl
 8009374:	4298      	cmp	r0, r3
 8009376:	d830      	bhi.n	80093da <prvTimerTask+0x282>
 8009378:	6823      	ldr	r3, [r4, #0]
 800937a:	b173      	cbz	r3, 800939a <prvTimerTask+0x242>
 800937c:	f8cd b01c 	str.w	fp, [sp, #28]
 8009380:	e9cd 8a05 	strd	r8, sl, [sp, #20]
 8009384:	f7ff fd74 	bl	8008e70 <xTaskGetSchedulerState>
 8009388:	2300      	movs	r3, #0
 800938a:	a905      	add	r1, sp, #20
 800938c:	6820      	ldr	r0, [r4, #0]
 800938e:	461a      	mov	r2, r3
 8009390:	f7fe f984 	bl	800769c <xQueueGenericSend>
 8009394:	2800      	cmp	r0, #0
 8009396:	f47f af16 	bne.w	80091c6 <prvTimerTask+0x6e>
 800939a:	f04f 0350 	mov.w	r3, #80	; 0x50
 800939e:	f383 8811 	msr	BASEPRI, r3
 80093a2:	f3bf 8f6f 	isb	sy
 80093a6:	f3bf 8f4f 	dsb	sy
 80093aa:	e7fe      	b.n	80093aa <prvTimerTask+0x252>
 80093ac:	4658      	mov	r0, fp
 80093ae:	f000 fafb 	bl	80099a8 <vPortFree>
 80093b2:	e70c      	b.n	80091ce <prvTimerTask+0x76>
 80093b4:	f10b 0104 	add.w	r1, fp, #4
 80093b8:	6838      	ldr	r0, [r7, #0]
 80093ba:	f7fe f8c5 	bl	8007548 <vListInsert>
 80093be:	e706      	b.n	80091ce <prvTimerTask+0x76>
 80093c0:	6830      	ldr	r0, [r6, #0]
 80093c2:	f7fe f8c1 	bl	8007548 <vListInsert>
 80093c6:	e6fe      	b.n	80091c6 <prvTimerTask+0x6e>
 80093c8:	f04f 0350 	mov.w	r3, #80	; 0x50
 80093cc:	f383 8811 	msr	BASEPRI, r3
 80093d0:	f3bf 8f6f 	isb	sy
 80093d4:	f3bf 8f4f 	dsb	sy
 80093d8:	e7fe      	b.n	80093d8 <prvTimerTask+0x280>
 80093da:	6838      	ldr	r0, [r7, #0]
 80093dc:	f7fe f8b4 	bl	8007548 <vListInsert>
 80093e0:	e6f1      	b.n	80091c6 <prvTimerTask+0x6e>
 80093e2:	bf00      	nop
 80093e4:	240001c0 	.word	0x240001c0
 80093e8:	240001f0 	.word	0x240001f0
 80093ec:	240001c4 	.word	0x240001c4
 80093f0:	240001f4 	.word	0x240001f4
 80093f4:	e000ed04 	.word	0xe000ed04

080093f8 <xTimerCreateTimerTask>:
 80093f8:	b5f0      	push	{r4, r5, r6, r7, lr}
 80093fa:	4c1c      	ldr	r4, [pc, #112]	; (800946c <xTimerCreateTimerTask+0x74>)
 80093fc:	b083      	sub	sp, #12
 80093fe:	f000 f8b1 	bl	8009564 <vPortEnterCritical>
 8009402:	6827      	ldr	r7, [r4, #0]
 8009404:	b1d7      	cbz	r7, 800943c <xTimerCreateTimerTask+0x44>
 8009406:	f000 f8cf 	bl	80095a8 <vPortExitCritical>
 800940a:	6823      	ldr	r3, [r4, #0]
 800940c:	b15b      	cbz	r3, 8009426 <xTimerCreateTimerTask+0x2e>
 800940e:	4818      	ldr	r0, [pc, #96]	; (8009470 <xTimerCreateTimerTask+0x78>)
 8009410:	2105      	movs	r1, #5
 8009412:	2300      	movs	r3, #0
 8009414:	f44f 7200 	mov.w	r2, #512	; 0x200
 8009418:	e9cd 1000 	strd	r1, r0, [sp]
 800941c:	4915      	ldr	r1, [pc, #84]	; (8009474 <xTimerCreateTimerTask+0x7c>)
 800941e:	4816      	ldr	r0, [pc, #88]	; (8009478 <xTimerCreateTimerTask+0x80>)
 8009420:	f7ff f8b8 	bl	8008594 <xTaskCreate>
 8009424:	b940      	cbnz	r0, 8009438 <xTimerCreateTimerTask+0x40>
 8009426:	f04f 0350 	mov.w	r3, #80	; 0x50
 800942a:	f383 8811 	msr	BASEPRI, r3
 800942e:	f3bf 8f6f 	isb	sy
 8009432:	f3bf 8f4f 	dsb	sy
 8009436:	e7fe      	b.n	8009436 <xTimerCreateTimerTask+0x3e>
 8009438:	b003      	add	sp, #12
 800943a:	bdf0      	pop	{r4, r5, r6, r7, pc}
 800943c:	4e0f      	ldr	r6, [pc, #60]	; (800947c <xTimerCreateTimerTask+0x84>)
 800943e:	4d10      	ldr	r5, [pc, #64]	; (8009480 <xTimerCreateTimerTask+0x88>)
 8009440:	4630      	mov	r0, r6
 8009442:	f7fe f861 	bl	8007508 <vListInitialise>
 8009446:	4628      	mov	r0, r5
 8009448:	f7fe f85e 	bl	8007508 <vListInitialise>
 800944c:	490d      	ldr	r1, [pc, #52]	; (8009484 <xTimerCreateTimerTask+0x8c>)
 800944e:	4b0e      	ldr	r3, [pc, #56]	; (8009488 <xTimerCreateTimerTask+0x90>)
 8009450:	463a      	mov	r2, r7
 8009452:	600e      	str	r6, [r1, #0]
 8009454:	2010      	movs	r0, #16
 8009456:	210c      	movs	r1, #12
 8009458:	601d      	str	r5, [r3, #0]
 800945a:	f7fe f8e3 	bl	8007624 <xQueueGenericCreate>
 800945e:	6020      	str	r0, [r4, #0]
 8009460:	2800      	cmp	r0, #0
 8009462:	d0d0      	beq.n	8009406 <xTimerCreateTimerTask+0xe>
 8009464:	4909      	ldr	r1, [pc, #36]	; (800948c <xTimerCreateTimerTask+0x94>)
 8009466:	f7fe fe3d 	bl	80080e4 <vQueueAddToRegistry>
 800946a:	e7cc      	b.n	8009406 <xTimerCreateTimerTask+0xe>
 800946c:	240001f4 	.word	0x240001f4
 8009470:	240001f8 	.word	0x240001f8
 8009474:	0800ba40 	.word	0x0800ba40
 8009478:	08009159 	.word	0x08009159
 800947c:	240001c8 	.word	0x240001c8
 8009480:	240001dc 	.word	0x240001dc
 8009484:	240001c0 	.word	0x240001c0
 8009488:	240001c4 	.word	0x240001c4
 800948c:	0800ba38 	.word	0x0800ba38

08009490 <prvPortStartFirstTask>:
 8009490:	4808      	ldr	r0, [pc, #32]	; (80094b4 <prvPortStartFirstTask+0x24>)
 8009492:	6800      	ldr	r0, [r0, #0]
 8009494:	6800      	ldr	r0, [r0, #0]
 8009496:	f380 8808 	msr	MSP, r0
 800949a:	f04f 0000 	mov.w	r0, #0
 800949e:	f380 8814 	msr	CONTROL, r0
 80094a2:	b662      	cpsie	i
 80094a4:	b661      	cpsie	f
 80094a6:	f3bf 8f4f 	dsb	sy
 80094aa:	f3bf 8f6f 	isb	sy
 80094ae:	df00      	svc	0
 80094b0:	bf00      	nop
 80094b2:	0000      	.short	0x0000
 80094b4:	e000ed08 	.word	0xe000ed08

080094b8 <vPortEnableVFP>:
 80094b8:	f8df 000c 	ldr.w	r0, [pc, #12]	; 80094c8 <vPortEnableVFP+0x10>
 80094bc:	6801      	ldr	r1, [r0, #0]
 80094be:	f441 0170 	orr.w	r1, r1, #15728640	; 0xf00000
 80094c2:	6001      	str	r1, [r0, #0]
 80094c4:	4770      	bx	lr
 80094c6:	0000      	.short	0x0000
 80094c8:	e000ed88 	.word	0xe000ed88

080094cc <prvTaskExitError>:
 80094cc:	4b0e      	ldr	r3, [pc, #56]	; (8009508 <prvTaskExitError+0x3c>)
 80094ce:	b082      	sub	sp, #8
 80094d0:	2200      	movs	r2, #0
 80094d2:	681b      	ldr	r3, [r3, #0]
 80094d4:	9201      	str	r2, [sp, #4]
 80094d6:	3301      	adds	r3, #1
 80094d8:	d008      	beq.n	80094ec <prvTaskExitError+0x20>
 80094da:	f04f 0350 	mov.w	r3, #80	; 0x50
 80094de:	f383 8811 	msr	BASEPRI, r3
 80094e2:	f3bf 8f6f 	isb	sy
 80094e6:	f3bf 8f4f 	dsb	sy
 80094ea:	e7fe      	b.n	80094ea <prvTaskExitError+0x1e>
 80094ec:	f04f 0350 	mov.w	r3, #80	; 0x50
 80094f0:	f383 8811 	msr	BASEPRI, r3
 80094f4:	f3bf 8f6f 	isb	sy
 80094f8:	f3bf 8f4f 	dsb	sy
 80094fc:	9b01      	ldr	r3, [sp, #4]
 80094fe:	2b00      	cmp	r3, #0
 8009500:	d0fc      	beq.n	80094fc <prvTaskExitError+0x30>
 8009502:	b002      	add	sp, #8
 8009504:	4770      	bx	lr
 8009506:	bf00      	nop
 8009508:	24000008 	.word	0x24000008

0800950c <pxPortInitialiseStack>:
 800950c:	b470      	push	{r4, r5, r6}
 800950e:	4603      	mov	r3, r0
 8009510:	f04f 7680 	mov.w	r6, #16777216	; 0x1000000
 8009514:	4d08      	ldr	r5, [pc, #32]	; (8009538 <pxPortInitialiseStack+0x2c>)
 8009516:	f06f 0402 	mvn.w	r4, #2
 800951a:	f021 0101 	bic.w	r1, r1, #1
 800951e:	3844      	subs	r0, #68	; 0x44
 8009520:	63c1      	str	r1, [r0, #60]	; 0x3c
 8009522:	f843 6c04 	str.w	r6, [r3, #-4]
 8009526:	f843 5c0c 	str.w	r5, [r3, #-12]
 800952a:	f843 4c24 	str.w	r4, [r3, #-36]
 800952e:	f843 2c20 	str.w	r2, [r3, #-32]
 8009532:	bc70      	pop	{r4, r5, r6}
 8009534:	4770      	bx	lr
 8009536:	bf00      	nop
 8009538:	080094cd 	.word	0x080094cd
 800953c:	00000000 	.word	0x00000000

08009540 <SVC_Handler>:
 8009540:	4b07      	ldr	r3, [pc, #28]	; (8009560 <pxCurrentTCBConst2>)
 8009542:	6819      	ldr	r1, [r3, #0]
 8009544:	6808      	ldr	r0, [r1, #0]
 8009546:	e8b0 4ff0 	ldmia.w	r0!, {r4, r5, r6, r7, r8, r9, sl, fp, lr}
 800954a:	f380 8809 	msr	PSP, r0
 800954e:	f3bf 8f6f 	isb	sy
 8009552:	f04f 0000 	mov.w	r0, #0
 8009556:	f380 8811 	msr	BASEPRI, r0
 800955a:	4770      	bx	lr
 800955c:	f3af 8000 	nop.w

08009560 <pxCurrentTCBConst2>:
 8009560:	24000094 	.word	0x24000094

08009564 <vPortEnterCritical>:
 8009564:	f04f 0350 	mov.w	r3, #80	; 0x50
 8009568:	f383 8811 	msr	BASEPRI, r3
 800956c:	f3bf 8f6f 	isb	sy
 8009570:	f3bf 8f4f 	dsb	sy
 8009574:	4a0a      	ldr	r2, [pc, #40]	; (80095a0 <vPortEnterCritical+0x3c>)
 8009576:	6813      	ldr	r3, [r2, #0]
 8009578:	3301      	adds	r3, #1
 800957a:	2b01      	cmp	r3, #1
 800957c:	6013      	str	r3, [r2, #0]
 800957e:	d000      	beq.n	8009582 <vPortEnterCritical+0x1e>
 8009580:	4770      	bx	lr
 8009582:	4b08      	ldr	r3, [pc, #32]	; (80095a4 <vPortEnterCritical+0x40>)
 8009584:	681b      	ldr	r3, [r3, #0]
 8009586:	f013 0fff 	tst.w	r3, #255	; 0xff
 800958a:	d0f9      	beq.n	8009580 <vPortEnterCritical+0x1c>
 800958c:	f04f 0350 	mov.w	r3, #80	; 0x50
 8009590:	f383 8811 	msr	BASEPRI, r3
 8009594:	f3bf 8f6f 	isb	sy
 8009598:	f3bf 8f4f 	dsb	sy
 800959c:	e7fe      	b.n	800959c <vPortEnterCritical+0x38>
 800959e:	bf00      	nop
 80095a0:	24000008 	.word	0x24000008
 80095a4:	e000ed04 	.word	0xe000ed04

080095a8 <vPortExitCritical>:
 80095a8:	4a08      	ldr	r2, [pc, #32]	; (80095cc <vPortExitCritical+0x24>)
 80095aa:	6813      	ldr	r3, [r2, #0]
 80095ac:	b943      	cbnz	r3, 80095c0 <vPortExitCritical+0x18>
 80095ae:	f04f 0350 	mov.w	r3, #80	; 0x50
 80095b2:	f383 8811 	msr	BASEPRI, r3
 80095b6:	f3bf 8f6f 	isb	sy
 80095ba:	f3bf 8f4f 	dsb	sy
 80095be:	e7fe      	b.n	80095be <vPortExitCritical+0x16>
 80095c0:	3b01      	subs	r3, #1
 80095c2:	6013      	str	r3, [r2, #0]
 80095c4:	b90b      	cbnz	r3, 80095ca <vPortExitCritical+0x22>
 80095c6:	f383 8811 	msr	BASEPRI, r3
 80095ca:	4770      	bx	lr
 80095cc:	24000008 	.word	0x24000008

080095d0 <PendSV_Handler>:
 80095d0:	f3ef 8009 	mrs	r0, PSP
 80095d4:	f3bf 8f6f 	isb	sy
 80095d8:	4b15      	ldr	r3, [pc, #84]	; (8009630 <pxCurrentTCBConst>)
 80095da:	681a      	ldr	r2, [r3, #0]
 80095dc:	f01e 0f10 	tst.w	lr, #16
 80095e0:	bf08      	it	eq
 80095e2:	ed20 8a10 	vstmdbeq	r0!, {s16-s31}
 80095e6:	e920 4ff0 	stmdb	r0!, {r4, r5, r6, r7, r8, r9, sl, fp, lr}
 80095ea:	6010      	str	r0, [r2, #0]
 80095ec:	e92d 0009 	stmdb	sp!, {r0, r3}
 80095f0:	f04f 0050 	mov.w	r0, #80	; 0x50
 80095f4:	f380 8811 	msr	BASEPRI, r0
 80095f8:	f3bf 8f4f 	dsb	sy
 80095fc:	f3bf 8f6f 	isb	sy
 8009600:	f7ff fa9c 	bl	8008b3c <vTaskSwitchContext>
 8009604:	f04f 0000 	mov.w	r0, #0
 8009608:	f380 8811 	msr	BASEPRI, r0
 800960c:	bc09      	pop	{r0, r3}
 800960e:	6819      	ldr	r1, [r3, #0]
 8009610:	6808      	ldr	r0, [r1, #0]
 8009612:	e8b0 4ff0 	ldmia.w	r0!, {r4, r5, r6, r7, r8, r9, sl, fp, lr}
 8009616:	f01e 0f10 	tst.w	lr, #16
 800961a:	bf08      	it	eq
 800961c:	ecb0 8a10 	vldmiaeq	r0!, {s16-s31}
 8009620:	f380 8809 	msr	PSP, r0
 8009624:	f3bf 8f6f 	isb	sy
 8009628:	4770      	bx	lr
 800962a:	bf00      	nop
 800962c:	f3af 8000 	nop.w

08009630 <pxCurrentTCBConst>:
 8009630:	24000094 	.word	0x24000094

08009634 <SysTick_Handler>:
 8009634:	b508      	push	{r3, lr}
 8009636:	f04f 0350 	mov.w	r3, #80	; 0x50
 800963a:	f383 8811 	msr	BASEPRI, r3
 800963e:	f3bf 8f6f 	isb	sy
 8009642:	f3bf 8f4f 	dsb	sy
 8009646:	f7ff fa69 	bl	8008b1c <xTaskIncrementTick>
 800964a:	b118      	cbz	r0, 8009654 <SysTick_Handler+0x20>
 800964c:	4b03      	ldr	r3, [pc, #12]	; (800965c <SysTick_Handler+0x28>)
 800964e:	f04f 5280 	mov.w	r2, #268435456	; 0x10000000
 8009652:	601a      	str	r2, [r3, #0]
 8009654:	2300      	movs	r3, #0
 8009656:	f383 8811 	msr	BASEPRI, r3
 800965a:	bd08      	pop	{r3, pc}
 800965c:	e000ed04 	.word	0xe000ed04

08009660 <vPortSetupTimerInterrupt>:
 8009660:	b410      	push	{r4}
 8009662:	2300      	movs	r3, #0
 8009664:	4a08      	ldr	r2, [pc, #32]	; (8009688 <vPortSetupTimerInterrupt+0x28>)
 8009666:	4c09      	ldr	r4, [pc, #36]	; (800968c <vPortSetupTimerInterrupt+0x2c>)
 8009668:	2107      	movs	r1, #7
 800966a:	4809      	ldr	r0, [pc, #36]	; (8009690 <vPortSetupTimerInterrupt+0x30>)
 800966c:	6013      	str	r3, [r2, #0]
 800966e:	6023      	str	r3, [r4, #0]
 8009670:	4c08      	ldr	r4, [pc, #32]	; (8009694 <vPortSetupTimerInterrupt+0x34>)
 8009672:	6803      	ldr	r3, [r0, #0]
 8009674:	4808      	ldr	r0, [pc, #32]	; (8009698 <vPortSetupTimerInterrupt+0x38>)
 8009676:	fba4 4303 	umull	r4, r3, r4, r3
 800967a:	f85d 4b04 	ldr.w	r4, [sp], #4
 800967e:	099b      	lsrs	r3, r3, #6
 8009680:	3b01      	subs	r3, #1
 8009682:	6003      	str	r3, [r0, #0]
 8009684:	6011      	str	r1, [r2, #0]
 8009686:	4770      	bx	lr
 8009688:	e000e010 	.word	0xe000e010
 800968c:	e000e018 	.word	0xe000e018
 8009690:	2400000c 	.word	0x2400000c
 8009694:	10624dd3 	.word	0x10624dd3
 8009698:	e000e014 	.word	0xe000e014

0800969c <xPortStartScheduler>:
 800969c:	4b43      	ldr	r3, [pc, #268]	; (80097ac <xPortStartScheduler+0x110>)
 800969e:	4a44      	ldr	r2, [pc, #272]	; (80097b0 <xPortStartScheduler+0x114>)
 80096a0:	6819      	ldr	r1, [r3, #0]
 80096a2:	4291      	cmp	r1, r2
 80096a4:	d03e      	beq.n	8009724 <xPortStartScheduler+0x88>
 80096a6:	681a      	ldr	r2, [r3, #0]
 80096a8:	4b42      	ldr	r3, [pc, #264]	; (80097b4 <xPortStartScheduler+0x118>)
 80096aa:	429a      	cmp	r2, r3
 80096ac:	d031      	beq.n	8009712 <xPortStartScheduler+0x76>
 80096ae:	4b42      	ldr	r3, [pc, #264]	; (80097b8 <xPortStartScheduler+0x11c>)
 80096b0:	4842      	ldr	r0, [pc, #264]	; (80097bc <xPortStartScheduler+0x120>)
 80096b2:	4943      	ldr	r1, [pc, #268]	; (80097c0 <xPortStartScheduler+0x124>)
 80096b4:	b530      	push	{r4, r5, lr}
 80096b6:	781a      	ldrb	r2, [r3, #0]
 80096b8:	b085      	sub	sp, #20
 80096ba:	25ff      	movs	r5, #255	; 0xff
 80096bc:	2407      	movs	r4, #7
 80096be:	b2d2      	uxtb	r2, r2
 80096c0:	9202      	str	r2, [sp, #8]
 80096c2:	701d      	strb	r5, [r3, #0]
 80096c4:	781b      	ldrb	r3, [r3, #0]
 80096c6:	600c      	str	r4, [r1, #0]
 80096c8:	b2db      	uxtb	r3, r3
 80096ca:	f88d 3007 	strb.w	r3, [sp, #7]
 80096ce:	f89d 3007 	ldrb.w	r3, [sp, #7]
 80096d2:	f89d 2007 	ldrb.w	r2, [sp, #7]
 80096d6:	f003 0350 	and.w	r3, r3, #80	; 0x50
 80096da:	0612      	lsls	r2, r2, #24
 80096dc:	7003      	strb	r3, [r0, #0]
 80096de:	d50f      	bpl.n	8009700 <xPortStartScheduler+0x64>
 80096e0:	2206      	movs	r2, #6
 80096e2:	f89d 3007 	ldrb.w	r3, [sp, #7]
 80096e6:	4610      	mov	r0, r2
 80096e8:	3a01      	subs	r2, #1
 80096ea:	005b      	lsls	r3, r3, #1
 80096ec:	b2db      	uxtb	r3, r3
 80096ee:	f88d 3007 	strb.w	r3, [sp, #7]
 80096f2:	f89d 3007 	ldrb.w	r3, [sp, #7]
 80096f6:	061b      	lsls	r3, r3, #24
 80096f8:	d4f3      	bmi.n	80096e2 <xPortStartScheduler+0x46>
 80096fa:	2803      	cmp	r0, #3
 80096fc:	d01b      	beq.n	8009736 <xPortStartScheduler+0x9a>
 80096fe:	6008      	str	r0, [r1, #0]
 8009700:	f04f 0350 	mov.w	r3, #80	; 0x50
 8009704:	f383 8811 	msr	BASEPRI, r3
 8009708:	f3bf 8f6f 	isb	sy
 800970c:	f3bf 8f4f 	dsb	sy
 8009710:	e7fe      	b.n	8009710 <xPortStartScheduler+0x74>
 8009712:	f04f 0350 	mov.w	r3, #80	; 0x50
 8009716:	f383 8811 	msr	BASEPRI, r3
 800971a:	f3bf 8f6f 	isb	sy
 800971e:	f3bf 8f4f 	dsb	sy
 8009722:	e7fe      	b.n	8009722 <xPortStartScheduler+0x86>
 8009724:	f04f 0350 	mov.w	r3, #80	; 0x50
 8009728:	f383 8811 	msr	BASEPRI, r3
 800972c:	f3bf 8f6f 	isb	sy
 8009730:	f3bf 8f4f 	dsb	sy
 8009734:	e7fe      	b.n	8009734 <xPortStartScheduler+0x98>
 8009736:	9a02      	ldr	r2, [sp, #8]
 8009738:	f44f 7540 	mov.w	r5, #768	; 0x300
 800973c:	4b21      	ldr	r3, [pc, #132]	; (80097c4 <xPortStartScheduler+0x128>)
 800973e:	2400      	movs	r4, #0
 8009740:	481d      	ldr	r0, [pc, #116]	; (80097b8 <xPortStartScheduler+0x11c>)
 8009742:	b2d2      	uxtb	r2, r2
 8009744:	600d      	str	r5, [r1, #0]
 8009746:	7002      	strb	r2, [r0, #0]
 8009748:	681a      	ldr	r2, [r3, #0]
 800974a:	4d1f      	ldr	r5, [pc, #124]	; (80097c8 <xPortStartScheduler+0x12c>)
 800974c:	f442 0270 	orr.w	r2, r2, #15728640	; 0xf00000
 8009750:	601a      	str	r2, [r3, #0]
 8009752:	681a      	ldr	r2, [r3, #0]
 8009754:	f042 4270 	orr.w	r2, r2, #4026531840	; 0xf0000000
 8009758:	601a      	str	r2, [r3, #0]
 800975a:	f7ff ff81 	bl	8009660 <vPortSetupTimerInterrupt>
 800975e:	602c      	str	r4, [r5, #0]
 8009760:	f7ff feaa 	bl	80094b8 <vPortEnableVFP>
 8009764:	4a19      	ldr	r2, [pc, #100]	; (80097cc <xPortStartScheduler+0x130>)
 8009766:	6813      	ldr	r3, [r2, #0]
 8009768:	f043 4340 	orr.w	r3, r3, #3221225472	; 0xc0000000
 800976c:	6013      	str	r3, [r2, #0]
 800976e:	f7ff fe8f 	bl	8009490 <prvPortStartFirstTask>
 8009772:	f7ff f9e3 	bl	8008b3c <vTaskSwitchContext>
 8009776:	682b      	ldr	r3, [r5, #0]
 8009778:	9403      	str	r4, [sp, #12]
 800977a:	3301      	adds	r3, #1
 800977c:	d008      	beq.n	8009790 <xPortStartScheduler+0xf4>
 800977e:	f04f 0350 	mov.w	r3, #80	; 0x50
 8009782:	f383 8811 	msr	BASEPRI, r3
 8009786:	f3bf 8f6f 	isb	sy
 800978a:	f3bf 8f4f 	dsb	sy
 800978e:	e7fe      	b.n	800978e <xPortStartScheduler+0xf2>
 8009790:	f04f 0350 	mov.w	r3, #80	; 0x50
 8009794:	f383 8811 	msr	BASEPRI, r3
 8009798:	f3bf 8f6f 	isb	sy
 800979c:	f3bf 8f4f 	dsb	sy
 80097a0:	9b03      	ldr	r3, [sp, #12]
 80097a2:	2b00      	cmp	r3, #0
 80097a4:	d0fc      	beq.n	80097a0 <xPortStartScheduler+0x104>
 80097a6:	2000      	movs	r0, #0
 80097a8:	b005      	add	sp, #20
 80097aa:	bd30      	pop	{r4, r5, pc}
 80097ac:	e000ed00 	.word	0xe000ed00
 80097b0:	410fc271 	.word	0x410fc271
 80097b4:	410fc270 	.word	0x410fc270
 80097b8:	e000e400 	.word	0xe000e400
 80097bc:	240001fc 	.word	0x240001fc
 80097c0:	24000200 	.word	0x24000200
 80097c4:	e000ed20 	.word	0xe000ed20
 80097c8:	24000008 	.word	0x24000008
 80097cc:	e000ef34 	.word	0xe000ef34

080097d0 <vPortValidateInterruptPriority>:
 80097d0:	f3ef 8305 	mrs	r3, IPSR
 80097d4:	2b0f      	cmp	r3, #15
 80097d6:	d90e      	bls.n	80097f6 <vPortValidateInterruptPriority+0x26>
 80097d8:	4910      	ldr	r1, [pc, #64]	; (800981c <vPortValidateInterruptPriority+0x4c>)
 80097da:	4a11      	ldr	r2, [pc, #68]	; (8009820 <vPortValidateInterruptPriority+0x50>)
 80097dc:	5c5b      	ldrb	r3, [r3, r1]
 80097de:	7812      	ldrb	r2, [r2, #0]
 80097e0:	429a      	cmp	r2, r3
 80097e2:	d908      	bls.n	80097f6 <vPortValidateInterruptPriority+0x26>
 80097e4:	f04f 0350 	mov.w	r3, #80	; 0x50
 80097e8:	f383 8811 	msr	BASEPRI, r3
 80097ec:	f3bf 8f6f 	isb	sy
 80097f0:	f3bf 8f4f 	dsb	sy
 80097f4:	e7fe      	b.n	80097f4 <vPortValidateInterruptPriority+0x24>
 80097f6:	4b0b      	ldr	r3, [pc, #44]	; (8009824 <vPortValidateInterruptPriority+0x54>)
 80097f8:	4a0b      	ldr	r2, [pc, #44]	; (8009828 <vPortValidateInterruptPriority+0x58>)
 80097fa:	681b      	ldr	r3, [r3, #0]
 80097fc:	6812      	ldr	r2, [r2, #0]
 80097fe:	f403 63e0 	and.w	r3, r3, #1792	; 0x700
 8009802:	4293      	cmp	r3, r2
 8009804:	d908      	bls.n	8009818 <vPortValidateInterruptPriority+0x48>
 8009806:	f04f 0350 	mov.w	r3, #80	; 0x50
 800980a:	f383 8811 	msr	BASEPRI, r3
 800980e:	f3bf 8f6f 	isb	sy
 8009812:	f3bf 8f4f 	dsb	sy
 8009816:	e7fe      	b.n	8009816 <vPortValidateInterruptPriority+0x46>
 8009818:	4770      	bx	lr
 800981a:	bf00      	nop
 800981c:	e000e3f0 	.word	0xe000e3f0
 8009820:	240001fc 	.word	0x240001fc
 8009824:	e000ed0c 	.word	0xe000ed0c
 8009828:	24000200 	.word	0x24000200

0800982c <pvPortMalloc>:
 800982c:	e92d 41f0 	stmdb	sp!, {r4, r5, r6, r7, r8, lr}
 8009830:	4605      	mov	r5, r0
 8009832:	f7ff f955 	bl	8008ae0 <vTaskSuspendAll>
 8009836:	4854      	ldr	r0, [pc, #336]	; (8009988 <pvPortMalloc+0x15c>)
 8009838:	6802      	ldr	r2, [r0, #0]
 800983a:	2a00      	cmp	r2, #0
 800983c:	d03a      	beq.n	80098b4 <pvPortMalloc+0x88>
 800983e:	4b53      	ldr	r3, [pc, #332]	; (800998c <pvPortMalloc+0x160>)
 8009840:	681f      	ldr	r7, [r3, #0]
 8009842:	423d      	tst	r5, r7
 8009844:	d130      	bne.n	80098a8 <pvPortMalloc+0x7c>
 8009846:	b37d      	cbz	r5, 80098a8 <pvPortMalloc+0x7c>
 8009848:	f105 0408 	add.w	r4, r5, #8
 800984c:	076d      	lsls	r5, r5, #29
 800984e:	d002      	beq.n	8009856 <pvPortMalloc+0x2a>
 8009850:	f024 0407 	bic.w	r4, r4, #7
 8009854:	3408      	adds	r4, #8
 8009856:	b33c      	cbz	r4, 80098a8 <pvPortMalloc+0x7c>
 8009858:	f8df c148 	ldr.w	ip, [pc, #328]	; 80099a4 <pvPortMalloc+0x178>
 800985c:	f8dc 6000 	ldr.w	r6, [ip]
 8009860:	42a6      	cmp	r6, r4
 8009862:	d321      	bcc.n	80098a8 <pvPortMalloc+0x7c>
 8009864:	4b4a      	ldr	r3, [pc, #296]	; (8009990 <pvPortMalloc+0x164>)
 8009866:	6819      	ldr	r1, [r3, #0]
 8009868:	e003      	b.n	8009872 <pvPortMalloc+0x46>
 800986a:	680d      	ldr	r5, [r1, #0]
 800986c:	b125      	cbz	r5, 8009878 <pvPortMalloc+0x4c>
 800986e:	460b      	mov	r3, r1
 8009870:	4629      	mov	r1, r5
 8009872:	6848      	ldr	r0, [r1, #4]
 8009874:	42a0      	cmp	r0, r4
 8009876:	d3f8      	bcc.n	800986a <pvPortMalloc+0x3e>
 8009878:	4291      	cmp	r1, r2
 800987a:	d015      	beq.n	80098a8 <pvPortMalloc+0x7c>
 800987c:	460d      	mov	r5, r1
 800987e:	eba0 0e04 	sub.w	lr, r0, r4
 8009882:	f855 8b08 	ldr.w	r8, [r5], #8
 8009886:	f1be 0f10 	cmp.w	lr, #16
 800988a:	f8c3 8000 	str.w	r8, [r3]
 800988e:	d950      	bls.n	8009932 <pvPortMalloc+0x106>
 8009890:	190b      	adds	r3, r1, r4
 8009892:	0758      	lsls	r0, r3, #29
 8009894:	d02f      	beq.n	80098f6 <pvPortMalloc+0xca>
 8009896:	f04f 0350 	mov.w	r3, #80	; 0x50
 800989a:	f383 8811 	msr	BASEPRI, r3
 800989e:	f3bf 8f6f 	isb	sy
 80098a2:	f3bf 8f4f 	dsb	sy
 80098a6:	e7fe      	b.n	80098a6 <pvPortMalloc+0x7a>
 80098a8:	2500      	movs	r5, #0
 80098aa:	f7ff f921 	bl	8008af0 <xTaskResumeAll>
 80098ae:	4628      	mov	r0, r5
 80098b0:	e8bd 81f0 	ldmia.w	sp!, {r4, r5, r6, r7, r8, pc}
 80098b4:	4b37      	ldr	r3, [pc, #220]	; (8009994 <pvPortMalloc+0x168>)
 80098b6:	075e      	lsls	r6, r3, #29
 80098b8:	d059      	beq.n	800996e <pvPortMalloc+0x142>
 80098ba:	3307      	adds	r3, #7
 80098bc:	4a36      	ldr	r2, [pc, #216]	; (8009998 <pvPortMalloc+0x16c>)
 80098be:	f023 0307 	bic.w	r3, r3, #7
 80098c2:	4619      	mov	r1, r3
 80098c4:	3a08      	subs	r2, #8
 80098c6:	4e32      	ldr	r6, [pc, #200]	; (8009990 <pvPortMalloc+0x164>)
 80098c8:	f04f 4400 	mov.w	r4, #2147483648	; 0x80000000
 80098cc:	4f33      	ldr	r7, [pc, #204]	; (800999c <pvPortMalloc+0x170>)
 80098ce:	f022 0207 	bic.w	r2, r2, #7
 80098d2:	f8df c0d0 	ldr.w	ip, [pc, #208]	; 80099a4 <pvPortMalloc+0x178>
 80098d6:	6002      	str	r2, [r0, #0]
 80098d8:	2000      	movs	r0, #0
 80098da:	1ad3      	subs	r3, r2, r3
 80098dc:	e9c6 1000 	strd	r1, r0, [r6]
 80098e0:	4e2a      	ldr	r6, [pc, #168]	; (800998c <pvPortMalloc+0x160>)
 80098e2:	603b      	str	r3, [r7, #0]
 80098e4:	4627      	mov	r7, r4
 80098e6:	f8cc 3000 	str.w	r3, [ip]
 80098ea:	6034      	str	r4, [r6, #0]
 80098ec:	e9c2 0000 	strd	r0, r0, [r2]
 80098f0:	e9c1 2300 	strd	r2, r3, [r1]
 80098f4:	e7a5      	b.n	8009842 <pvPortMalloc+0x16>
 80098f6:	4826      	ldr	r0, [pc, #152]	; (8009990 <pvPortMalloc+0x164>)
 80098f8:	f8c3 e004 	str.w	lr, [r3, #4]
 80098fc:	604c      	str	r4, [r1, #4]
 80098fe:	4686      	mov	lr, r0
 8009900:	6800      	ldr	r0, [r0, #0]
 8009902:	4283      	cmp	r3, r0
 8009904:	d8fb      	bhi.n	80098fe <pvPortMalloc+0xd2>
 8009906:	f8de 4004 	ldr.w	r4, [lr, #4]
 800990a:	eb0e 0804 	add.w	r8, lr, r4
 800990e:	4543      	cmp	r3, r8
 8009910:	d130      	bne.n	8009974 <pvPortMalloc+0x148>
 8009912:	f8d3 8004 	ldr.w	r8, [r3, #4]
 8009916:	4673      	mov	r3, lr
 8009918:	4444      	add	r4, r8
 800991a:	f8ce 4004 	str.w	r4, [lr, #4]
 800991e:	eb03 0804 	add.w	r8, r3, r4
 8009922:	4540      	cmp	r0, r8
 8009924:	d028      	beq.n	8009978 <pvPortMalloc+0x14c>
 8009926:	6018      	str	r0, [r3, #0]
 8009928:	459e      	cmp	lr, r3
 800992a:	6848      	ldr	r0, [r1, #4]
 800992c:	bf18      	it	ne
 800992e:	f8ce 3000 	strne.w	r3, [lr]
 8009932:	4a1a      	ldr	r2, [pc, #104]	; (800999c <pvPortMalloc+0x170>)
 8009934:	1a36      	subs	r6, r6, r0
 8009936:	4338      	orrs	r0, r7
 8009938:	6814      	ldr	r4, [r2, #0]
 800993a:	6048      	str	r0, [r1, #4]
 800993c:	42a6      	cmp	r6, r4
 800993e:	f04f 0400 	mov.w	r4, #0
 8009942:	f8cc 6000 	str.w	r6, [ip]
 8009946:	bf38      	it	cc
 8009948:	6016      	strcc	r6, [r2, #0]
 800994a:	4a15      	ldr	r2, [pc, #84]	; (80099a0 <pvPortMalloc+0x174>)
 800994c:	600c      	str	r4, [r1, #0]
 800994e:	6813      	ldr	r3, [r2, #0]
 8009950:	3301      	adds	r3, #1
 8009952:	6013      	str	r3, [r2, #0]
 8009954:	f7ff f8cc 	bl	8008af0 <xTaskResumeAll>
 8009958:	076b      	lsls	r3, r5, #29
 800995a:	d0a8      	beq.n	80098ae <pvPortMalloc+0x82>
 800995c:	f04f 0350 	mov.w	r3, #80	; 0x50
 8009960:	f383 8811 	msr	BASEPRI, r3
 8009964:	f3bf 8f6f 	isb	sy
 8009968:	f3bf 8f4f 	dsb	sy
 800996c:	e7fe      	b.n	800996c <pvPortMalloc+0x140>
 800996e:	4a0a      	ldr	r2, [pc, #40]	; (8009998 <pvPortMalloc+0x16c>)
 8009970:	4619      	mov	r1, r3
 8009972:	e7a7      	b.n	80098c4 <pvPortMalloc+0x98>
 8009974:	685c      	ldr	r4, [r3, #4]
 8009976:	e7d2      	b.n	800991e <pvPortMalloc+0xf2>
 8009978:	4290      	cmp	r0, r2
 800997a:	d0d4      	beq.n	8009926 <pvPortMalloc+0xfa>
 800997c:	e9d0 0200 	ldrd	r0, r2, [r0]
 8009980:	4414      	add	r4, r2
 8009982:	e9c3 0400 	strd	r0, r4, [r3]
 8009986:	e7cf      	b.n	8009928 <pvPortMalloc+0xfc>
 8009988:	24000204 	.word	0x24000204
 800998c:	24027308 	.word	0x24027308
 8009990:	2402731c 	.word	0x2402731c
 8009994:	24000208 	.word	0x24000208
 8009998:	24027308 	.word	0x24027308
 800999c:	24027310 	.word	0x24027310
 80099a0:	24027314 	.word	0x24027314
 80099a4:	2402730c 	.word	0x2402730c

080099a8 <vPortFree>:
 80099a8:	b1e0      	cbz	r0, 80099e4 <vPortFree+0x3c>
 80099aa:	4a29      	ldr	r2, [pc, #164]	; (8009a50 <vPortFree+0xa8>)
 80099ac:	b538      	push	{r3, r4, r5, lr}
 80099ae:	6812      	ldr	r2, [r2, #0]
 80099b0:	4605      	mov	r5, r0
 80099b2:	f850 3c04 	ldr.w	r3, [r0, #-4]
 80099b6:	4213      	tst	r3, r2
 80099b8:	d00b      	beq.n	80099d2 <vPortFree+0x2a>
 80099ba:	f850 1c08 	ldr.w	r1, [r0, #-8]
 80099be:	b191      	cbz	r1, 80099e6 <vPortFree+0x3e>
 80099c0:	f04f 0350 	mov.w	r3, #80	; 0x50
 80099c4:	f383 8811 	msr	BASEPRI, r3
 80099c8:	f3bf 8f6f 	isb	sy
 80099cc:	f3bf 8f4f 	dsb	sy
 80099d0:	e7fe      	b.n	80099d0 <vPortFree+0x28>
 80099d2:	f04f 0350 	mov.w	r3, #80	; 0x50
 80099d6:	f383 8811 	msr	BASEPRI, r3
 80099da:	f3bf 8f6f 	isb	sy
 80099de:	f3bf 8f4f 	dsb	sy
 80099e2:	e7fe      	b.n	80099e2 <vPortFree+0x3a>
 80099e4:	4770      	bx	lr
 80099e6:	ea23 0302 	bic.w	r3, r3, r2
 80099ea:	f1a0 0408 	sub.w	r4, r0, #8
 80099ee:	f840 3c04 	str.w	r3, [r0, #-4]
 80099f2:	f7ff f875 	bl	8008ae0 <vTaskSuspendAll>
 80099f6:	4817      	ldr	r0, [pc, #92]	; (8009a54 <vPortFree+0xac>)
 80099f8:	f855 1c04 	ldr.w	r1, [r5, #-4]
 80099fc:	6802      	ldr	r2, [r0, #0]
 80099fe:	4b16      	ldr	r3, [pc, #88]	; (8009a58 <vPortFree+0xb0>)
 8009a00:	440a      	add	r2, r1
 8009a02:	6002      	str	r2, [r0, #0]
 8009a04:	461a      	mov	r2, r3
 8009a06:	681b      	ldr	r3, [r3, #0]
 8009a08:	429c      	cmp	r4, r3
 8009a0a:	d8fb      	bhi.n	8009a04 <vPortFree+0x5c>
 8009a0c:	6850      	ldr	r0, [r2, #4]
 8009a0e:	1815      	adds	r5, r2, r0
 8009a10:	42ac      	cmp	r4, r5
 8009a12:	d00e      	beq.n	8009a32 <vPortFree+0x8a>
 8009a14:	1860      	adds	r0, r4, r1
 8009a16:	4283      	cmp	r3, r0
 8009a18:	d00f      	beq.n	8009a3a <vPortFree+0x92>
 8009a1a:	6023      	str	r3, [r4, #0]
 8009a1c:	42a2      	cmp	r2, r4
 8009a1e:	bf18      	it	ne
 8009a20:	6014      	strne	r4, [r2, #0]
 8009a22:	4a0e      	ldr	r2, [pc, #56]	; (8009a5c <vPortFree+0xb4>)
 8009a24:	6813      	ldr	r3, [r2, #0]
 8009a26:	3301      	adds	r3, #1
 8009a28:	6013      	str	r3, [r2, #0]
 8009a2a:	e8bd 4038 	ldmia.w	sp!, {r3, r4, r5, lr}
 8009a2e:	f7ff b85f 	b.w	8008af0 <xTaskResumeAll>
 8009a32:	4401      	add	r1, r0
 8009a34:	4614      	mov	r4, r2
 8009a36:	6051      	str	r1, [r2, #4]
 8009a38:	e7ec      	b.n	8009a14 <vPortFree+0x6c>
 8009a3a:	4809      	ldr	r0, [pc, #36]	; (8009a60 <vPortFree+0xb8>)
 8009a3c:	6800      	ldr	r0, [r0, #0]
 8009a3e:	4283      	cmp	r3, r0
 8009a40:	d0eb      	beq.n	8009a1a <vPortFree+0x72>
 8009a42:	e9d3 3000 	ldrd	r3, r0, [r3]
 8009a46:	4401      	add	r1, r0
 8009a48:	e9c4 3100 	strd	r3, r1, [r4]
 8009a4c:	e7e6      	b.n	8009a1c <vPortFree+0x74>
 8009a4e:	bf00      	nop
 8009a50:	24027308 	.word	0x24027308
 8009a54:	2402730c 	.word	0x2402730c
 8009a58:	2402731c 	.word	0x2402731c
 8009a5c:	24027318 	.word	0x24027318
 8009a60:	24000204 	.word	0x24000204

08009a64 <HAL_ADC_ConvCpltCallback>:
 8009a64:	4b0b      	ldr	r3, [pc, #44]	; (8009a94 <HAL_ADC_ConvCpltCallback+0x30>)
 8009a66:	681a      	ldr	r2, [r3, #0]
 8009a68:	4290      	cmp	r0, r2
 8009a6a:	d006      	beq.n	8009a7a <HAL_ADC_ConvCpltCallback+0x16>
 8009a6c:	685a      	ldr	r2, [r3, #4]
 8009a6e:	4290      	cmp	r0, r2
 8009a70:	d00b      	beq.n	8009a8a <HAL_ADC_ConvCpltCallback+0x26>
 8009a72:	689b      	ldr	r3, [r3, #8]
 8009a74:	4298      	cmp	r0, r3
 8009a76:	d00a      	beq.n	8009a8e <HAL_ADC_ConvCpltCallback+0x2a>
 8009a78:	4770      	bx	lr
 8009a7a:	2300      	movs	r3, #0
 8009a7c:	4a06      	ldr	r2, [pc, #24]	; (8009a98 <HAL_ADC_ConvCpltCallback+0x34>)
 8009a7e:	2100      	movs	r1, #0
 8009a80:	f852 3023 	ldr.w	r3, [r2, r3, lsl #2]
 8009a84:	6958      	ldr	r0, [r3, #20]
 8009a86:	f7fd bfc5 	b.w	8007a14 <xQueueGiveFromISR>
 8009a8a:	2301      	movs	r3, #1
 8009a8c:	e7f6      	b.n	8009a7c <HAL_ADC_ConvCpltCallback+0x18>
 8009a8e:	2302      	movs	r3, #2
 8009a90:	e7f4      	b.n	8009a7c <HAL_ADC_ConvCpltCallback+0x18>
 8009a92:	bf00      	nop
 8009a94:	24027330 	.word	0x24027330
 8009a98:	24027324 	.word	0x24027324

08009a9c <HAL_SPI_TxRxCpltCallback>:
 8009a9c:	b538      	push	{r3, r4, r5, lr}
 8009a9e:	4d13      	ldr	r5, [pc, #76]	; (8009aec <HAL_SPI_TxRxCpltCallback+0x50>)
 8009aa0:	4604      	mov	r4, r0
 8009aa2:	682b      	ldr	r3, [r5, #0]
 8009aa4:	4298      	cmp	r0, r3
 8009aa6:	d006      	beq.n	8009ab6 <HAL_SPI_TxRxCpltCallback+0x1a>
 8009aa8:	686b      	ldr	r3, [r5, #4]
 8009aaa:	429c      	cmp	r4, r3
 8009aac:	d00c      	beq.n	8009ac8 <HAL_SPI_TxRxCpltCallback+0x2c>
 8009aae:	68ab      	ldr	r3, [r5, #8]
 8009ab0:	42a3      	cmp	r3, r4
 8009ab2:	d012      	beq.n	8009ada <HAL_SPI_TxRxCpltCallback+0x3e>
 8009ab4:	bd38      	pop	{r3, r4, r5, pc}
 8009ab6:	4b0e      	ldr	r3, [pc, #56]	; (8009af0 <HAL_SPI_TxRxCpltCallback+0x54>)
 8009ab8:	2100      	movs	r1, #0
 8009aba:	681b      	ldr	r3, [r3, #0]
 8009abc:	6918      	ldr	r0, [r3, #16]
 8009abe:	f7fd ffa9 	bl	8007a14 <xQueueGiveFromISR>
 8009ac2:	686b      	ldr	r3, [r5, #4]
 8009ac4:	429c      	cmp	r4, r3
 8009ac6:	d1f2      	bne.n	8009aae <HAL_SPI_TxRxCpltCallback+0x12>
 8009ac8:	4b09      	ldr	r3, [pc, #36]	; (8009af0 <HAL_SPI_TxRxCpltCallback+0x54>)
 8009aca:	2100      	movs	r1, #0
 8009acc:	685b      	ldr	r3, [r3, #4]
 8009ace:	6918      	ldr	r0, [r3, #16]
 8009ad0:	f7fd ffa0 	bl	8007a14 <xQueueGiveFromISR>
 8009ad4:	68ab      	ldr	r3, [r5, #8]
 8009ad6:	42a3      	cmp	r3, r4
 8009ad8:	d1ec      	bne.n	8009ab4 <HAL_SPI_TxRxCpltCallback+0x18>
 8009ada:	4b05      	ldr	r3, [pc, #20]	; (8009af0 <HAL_SPI_TxRxCpltCallback+0x54>)
 8009adc:	2100      	movs	r1, #0
 8009ade:	689b      	ldr	r3, [r3, #8]
 8009ae0:	6918      	ldr	r0, [r3, #16]
 8009ae2:	e8bd 4038 	ldmia.w	sp!, {r3, r4, r5, lr}
 8009ae6:	f7fd bf95 	b.w	8007a14 <xQueueGiveFromISR>
 8009aea:	bf00      	nop
 8009aec:	24027348 	.word	0x24027348
 8009af0:	2402733c 	.word	0x2402733c

08009af4 <arm_boot>:
 8009af4:	4a06      	ldr	r2, [pc, #24]	; (8009b10 <arm_boot+0x1c>)
 8009af6:	f04f 2008 	mov.w	r0, #134219776	; 0x8000800
 8009afa:	4c06      	ldr	r4, [pc, #24]	; (8009b14 <arm_boot+0x20>)
 8009afc:	6813      	ldr	r3, [r2, #0]
 8009afe:	4d06      	ldr	r5, [pc, #24]	; (8009b18 <arm_boot+0x24>)
 8009b00:	f043 0302 	orr.w	r3, r3, #2
 8009b04:	4905      	ldr	r1, [pc, #20]	; (8009b1c <arm_boot+0x28>)
 8009b06:	6025      	str	r5, [r4, #0]
 8009b08:	6013      	str	r3, [r2, #0]
 8009b0a:	6008      	str	r0, [r1, #0]
 8009b0c:	e7fe      	b.n	8009b0c <arm_boot+0x18>
 8009b0e:	bf00      	nop
 8009b10:	52002018 	.word	0x52002018
 8009b14:	52002008 	.word	0x52002008
 8009b18:	4c5d6e7f 	.word	0x4c5d6e7f
 8009b1c:	52002044 	.word	0x52002044

08009b20 <adcTask>:
 8009b20:	2300      	movs	r3, #0
 8009b22:	e92d 47f0 	stmdb	sp!, {r4, r5, r6, r7, r8, r9, sl, lr}
 8009b26:	469a      	mov	sl, r3
 8009b28:	b096      	sub	sp, #88	; 0x58
 8009b2a:	4e40      	ldr	r6, [pc, #256]	; (8009c2c <adcTask+0x10c>)
 8009b2c:	4d40      	ldr	r5, [pc, #256]	; (8009c30 <adcTask+0x110>)
 8009b2e:	4f41      	ldr	r7, [pc, #260]	; (8009c34 <adcTask+0x114>)
 8009b30:	f8ad 3018 	strh.w	r3, [sp, #24]
 8009b34:	2201      	movs	r2, #1
 8009b36:	4628      	mov	r0, r5
 8009b38:	2400      	movs	r4, #0
 8009b3a:	4611      	mov	r1, r2
 8009b3c:	f7f9 f888 	bl	8002c50 <HAL_GPIO_WritePin>
 8009b40:	2001      	movs	r0, #1
 8009b42:	f7fd fcd9 	bl	80074f8 <osDelay>
 8009b46:	2132      	movs	r1, #50	; 0x32
 8009b48:	2304      	movs	r3, #4
 8009b4a:	aa07      	add	r2, sp, #28
 8009b4c:	9100      	str	r1, [sp, #0]
 8009b4e:	4638      	mov	r0, r7
 8009b50:	a906      	add	r1, sp, #24
 8009b52:	f7fb fb41 	bl	80051d8 <HAL_SPI_TransmitReceive>
 8009b56:	4622      	mov	r2, r4
 8009b58:	4628      	mov	r0, r5
 8009b5a:	2101      	movs	r1, #1
 8009b5c:	f7f9 f878 	bl	8002c50 <HAL_GPIO_WritePin>
 8009b60:	f9bd 0022 	ldrsh.w	r0, [sp, #34]	; 0x22
 8009b64:	f8bd c022 	ldrh.w	ip, [sp, #34]	; 0x22
 8009b68:	f04f 7e80 	mov.w	lr, #16777216	; 0x1000000
 8009b6c:	0c03      	lsrs	r3, r0, #16
 8009b6e:	a909      	add	r1, sp, #36	; 0x24
 8009b70:	fa9c fc9c 	rev16.w	ip, ip
 8009b74:	ea4f 6810 	mov.w	r8, r0, lsr #24
 8009b78:	2214      	movs	r2, #20
 8009b7a:	6830      	ldr	r0, [r6, #0]
 8009b7c:	f8ad c02e 	strh.w	ip, [sp, #46]	; 0x2e
 8009b80:	f88d 802c 	strb.w	r8, [sp, #44]	; 0x2c
 8009b84:	f88d 302d 	strb.w	r3, [sp, #45]	; 0x2d
 8009b88:	f8cd e024 	str.w	lr, [sp, #36]	; 0x24
 8009b8c:	f8cd a028 	str.w	sl, [sp, #40]	; 0x28
 8009b90:	e9cd 440c 	strd	r4, r4, [sp, #48]	; 0x30
 8009b94:	f001 fb46 	bl	800b224 <B_tcpSend>
 8009b98:	f9bd 1020 	ldrsh.w	r1, [sp, #32]
 8009b9c:	f8bd 3020 	ldrh.w	r3, [sp, #32]
 8009ba0:	17ca      	asrs	r2, r1, #31
 8009ba2:	f9bd 801c 	ldrsh.w	r8, [sp, #28]
 8009ba6:	f8bd e01c 	ldrh.w	lr, [sp, #28]
 8009baa:	f8bd c01e 	ldrh.w	ip, [sp, #30]
 8009bae:	fa9e fe9e 	rev16.w	lr, lr
 8009bb2:	940a      	str	r4, [sp, #40]	; 0x28
 8009bb4:	fa9c fc9c 	rev16.w	ip, ip
 8009bb8:	940e      	str	r4, [sp, #56]	; 0x38
 8009bba:	9412      	str	r4, [sp, #72]	; 0x48
 8009bbc:	f8ad e02e 	strh.w	lr, [sp, #46]	; 0x2e
 8009bc0:	f8ad c04e 	strh.w	ip, [sp, #78]	; 0x4e
 8009bc4:	e9cd 1202 	strd	r1, r2, [sp, #8]
 8009bc8:	f9bd 201e 	ldrsh.w	r2, [sp, #30]
 8009bcc:	ba59      	rev16	r1, r3
 8009bce:	17d3      	asrs	r3, r2, #31
 8009bd0:	f8ad 103e 	strh.w	r1, [sp, #62]	; 0x3e
 8009bd4:	e9cd 2304 	strd	r2, r3, [sp, #16]
 8009bd8:	ea4f 6318 	mov.w	r3, r8, lsr #24
 8009bdc:	2234      	movs	r2, #52	; 0x34
 8009bde:	ea4f 4818 	mov.w	r8, r8, lsr #16
 8009be2:	f88d 302c 	strb.w	r3, [sp, #44]	; 0x2c
 8009be6:	f88d 802d 	strb.w	r8, [sp, #45]	; 0x2d
 8009bea:	9b02      	ldr	r3, [sp, #8]
 8009bec:	e9dd 8904 	ldrd	r8, r9, [sp, #16]
 8009bf0:	0e19      	lsrs	r1, r3, #24
 8009bf2:	0c18      	lsrs	r0, r3, #16
 8009bf4:	4643      	mov	r3, r8
 8009bf6:	ea4f 6e18 	mov.w	lr, r8, lsr #24
 8009bfa:	f88d 103c 	strb.w	r1, [sp, #60]	; 0x3c
 8009bfe:	0c1b      	lsrs	r3, r3, #16
 8009c00:	f88d 003d 	strb.w	r0, [sp, #61]	; 0x3d
 8009c04:	a909      	add	r1, sp, #36	; 0x24
 8009c06:	6830      	ldr	r0, [r6, #0]
 8009c08:	f88d e04c 	strb.w	lr, [sp, #76]	; 0x4c
 8009c0c:	f88d 304d 	strb.w	r3, [sp, #77]	; 0x4d
 8009c10:	e9cd 440c 	strd	r4, r4, [sp, #48]	; 0x30
 8009c14:	e9cd 4410 	strd	r4, r4, [sp, #64]	; 0x40
 8009c18:	e9cd 4414 	strd	r4, r4, [sp, #80]	; 0x50
 8009c1c:	4c06      	ldr	r4, [pc, #24]	; (8009c38 <adcTask+0x118>)
 8009c1e:	9409      	str	r4, [sp, #36]	; 0x24
 8009c20:	f001 fb00 	bl	800b224 <B_tcpSend>
 8009c24:	2064      	movs	r0, #100	; 0x64
 8009c26:	f7fe fe0f 	bl	8008848 <vTaskDelay>
 8009c2a:	e783      	b.n	8009b34 <adcTask+0x14>
 8009c2c:	240278a8 	.word	0x240278a8
 8009c30:	58022000 	.word	0x58022000
 8009c34:	240274b8 	.word	0x240274b8
 8009c38:	01000701 	.word	0x01000701

08009c3c <highPowerTask>:
 8009c3c:	b580      	push	{r7, lr}
 8009c3e:	f8df 80ac 	ldr.w	r8, [pc, #172]	; 8009cec <highPowerTask+0xb0>
 8009c42:	b082      	sub	sp, #8
 8009c44:	4d26      	ldr	r5, [pc, #152]	; (8009ce0 <highPowerTask+0xa4>)
 8009c46:	4f27      	ldr	r7, [pc, #156]	; (8009ce4 <highPowerTask+0xa8>)
 8009c48:	4e27      	ldr	r6, [pc, #156]	; (8009ce8 <highPowerTask+0xac>)
 8009c4a:	f04f 32ff 	mov.w	r2, #4294967295
 8009c4e:	f10d 0107 	add.w	r1, sp, #7
 8009c52:	f8d8 0000 	ldr.w	r0, [r8]
 8009c56:	f7fd ff33 	bl	8007ac0 <xQueueReceive>
 8009c5a:	f89d 4007 	ldrb.w	r4, [sp, #7]
 8009c5e:	2201      	movs	r2, #1
 8009c60:	f44f 7100 	mov.w	r1, #512	; 0x200
 8009c64:	4628      	mov	r0, r5
 8009c66:	b314      	cbz	r4, 8009cae <highPowerTask+0x72>
 8009c68:	f7f8 fff2 	bl	8002c50 <HAL_GPIO_WritePin>
 8009c6c:	20c8      	movs	r0, #200	; 0xc8
 8009c6e:	f7fe fdeb 	bl	8008848 <vTaskDelay>
 8009c72:	2201      	movs	r2, #1
 8009c74:	2104      	movs	r1, #4
 8009c76:	4630      	mov	r0, r6
 8009c78:	f7f8 ffea 	bl	8002c50 <HAL_GPIO_WritePin>
 8009c7c:	f44f 70fa 	mov.w	r0, #500	; 0x1f4
 8009c80:	f7fe fde2 	bl	8008848 <vTaskDelay>
 8009c84:	2201      	movs	r2, #1
 8009c86:	2108      	movs	r1, #8
 8009c88:	4638      	mov	r0, r7
 8009c8a:	f7f8 ffe1 	bl	8002c50 <HAL_GPIO_WritePin>
 8009c8e:	f44f 70fa 	mov.w	r0, #500	; 0x1f4
 8009c92:	f7fe fdd9 	bl	8008848 <vTaskDelay>
 8009c96:	4630      	mov	r0, r6
 8009c98:	2200      	movs	r2, #0
 8009c9a:	2104      	movs	r1, #4
 8009c9c:	f7f8 ffd8 	bl	8002c50 <HAL_GPIO_WritePin>
 8009ca0:	2200      	movs	r2, #0
 8009ca2:	f44f 4180 	mov.w	r1, #16384	; 0x4000
 8009ca6:	4628      	mov	r0, r5
 8009ca8:	f7f8 ffd2 	bl	8002c50 <HAL_GPIO_WritePin>
 8009cac:	e7cd      	b.n	8009c4a <highPowerTask+0xe>
 8009cae:	2201      	movs	r2, #1
 8009cb0:	f44f 4180 	mov.w	r1, #16384	; 0x4000
 8009cb4:	f7f8 ffcc 	bl	8002c50 <HAL_GPIO_WritePin>
 8009cb8:	f44f 70fa 	mov.w	r0, #500	; 0x1f4
 8009cbc:	f7fe fdc4 	bl	8008848 <vTaskDelay>
 8009cc0:	4622      	mov	r2, r4
 8009cc2:	2108      	movs	r1, #8
 8009cc4:	4638      	mov	r0, r7
 8009cc6:	f7f8 ffc3 	bl	8002c50 <HAL_GPIO_WritePin>
 8009cca:	20c8      	movs	r0, #200	; 0xc8
 8009ccc:	f7fe fdbc 	bl	8008848 <vTaskDelay>
 8009cd0:	4622      	mov	r2, r4
 8009cd2:	f44f 7100 	mov.w	r1, #512	; 0x200
 8009cd6:	4628      	mov	r0, r5
 8009cd8:	f7f8 ffba 	bl	8002c50 <HAL_GPIO_WritePin>
 8009cdc:	e7b5      	b.n	8009c4a <highPowerTask+0xe>
 8009cde:	bf00      	nop
 8009ce0:	58022000 	.word	0x58022000
 8009ce4:	58021000 	.word	0x58021000
 8009ce8:	58021400 	.word	0x58021400
 8009cec:	24027d04 	.word	0x24027d04

08009cf0 <SystemClock_Config>:
 8009cf0:	b5f0      	push	{r4, r5, r6, r7, lr}
 8009cf2:	b09f      	sub	sp, #124	; 0x7c
 8009cf4:	224c      	movs	r2, #76	; 0x4c
 8009cf6:	2100      	movs	r1, #0
 8009cf8:	a80b      	add	r0, sp, #44	; 0x2c
 8009cfa:	f001 fd8d 	bl	800b818 <memset>
 8009cfe:	2220      	movs	r2, #32
 8009d00:	2100      	movs	r1, #0
 8009d02:	a802      	add	r0, sp, #8
 8009d04:	f001 fd88 	bl	800b818 <memset>
 8009d08:	2002      	movs	r0, #2
 8009d0a:	f7f8 ffb5 	bl	8002c78 <HAL_PWREx_ConfigSupply>
 8009d0e:	4b2b      	ldr	r3, [pc, #172]	; (8009dbc <SystemClock_Config+0xcc>)
 8009d10:	2200      	movs	r2, #0
 8009d12:	492b      	ldr	r1, [pc, #172]	; (8009dc0 <SystemClock_Config+0xd0>)
 8009d14:	9201      	str	r2, [sp, #4]
 8009d16:	461a      	mov	r2, r3
 8009d18:	6998      	ldr	r0, [r3, #24]
 8009d1a:	f440 4040 	orr.w	r0, r0, #49152	; 0xc000
 8009d1e:	6198      	str	r0, [r3, #24]
 8009d20:	699b      	ldr	r3, [r3, #24]
 8009d22:	f403 4340 	and.w	r3, r3, #49152	; 0xc000
 8009d26:	9301      	str	r3, [sp, #4]
 8009d28:	6acb      	ldr	r3, [r1, #44]	; 0x2c
 8009d2a:	f043 0301 	orr.w	r3, r3, #1
 8009d2e:	62cb      	str	r3, [r1, #44]	; 0x2c
 8009d30:	6acb      	ldr	r3, [r1, #44]	; 0x2c
 8009d32:	f003 0301 	and.w	r3, r3, #1
 8009d36:	9301      	str	r3, [sp, #4]
 8009d38:	9b01      	ldr	r3, [sp, #4]
 8009d3a:	6993      	ldr	r3, [r2, #24]
 8009d3c:	049b      	lsls	r3, r3, #18
 8009d3e:	d5fc      	bpl.n	8009d3a <SystemClock_Config+0x4a>
 8009d40:	4920      	ldr	r1, [pc, #128]	; (8009dc4 <SystemClock_Config+0xd4>)
 8009d42:	262a      	movs	r6, #42	; 0x2a
 8009d44:	2302      	movs	r3, #2
 8009d46:	2501      	movs	r5, #1
 8009d48:	6a8a      	ldr	r2, [r1, #40]	; 0x28
 8009d4a:	2400      	movs	r4, #0
 8009d4c:	2740      	movs	r7, #64	; 0x40
 8009d4e:	a80b      	add	r0, sp, #44	; 0x2c
 8009d50:	f022 0203 	bic.w	r2, r2, #3
 8009d54:	628a      	str	r2, [r1, #40]	; 0x28
 8009d56:	2204      	movs	r2, #4
 8009d58:	210c      	movs	r1, #12
 8009d5a:	960b      	str	r6, [sp, #44]	; 0x2c
 8009d5c:	2614      	movs	r6, #20
 8009d5e:	970f      	str	r7, [sp, #60]	; 0x3c
 8009d60:	9314      	str	r3, [sp, #80]	; 0x50
 8009d62:	2703      	movs	r7, #3
 8009d64:	9318      	str	r3, [sp, #96]	; 0x60
 8009d66:	931a      	str	r3, [sp, #104]	; 0x68
 8009d68:	9216      	str	r2, [sp, #88]	; 0x58
 8009d6a:	9219      	str	r2, [sp, #100]	; 0x64
 8009d6c:	9617      	str	r6, [sp, #92]	; 0x5c
 8009d6e:	263f      	movs	r6, #63	; 0x3f
 8009d70:	911b      	str	r1, [sp, #108]	; 0x6c
 8009d72:	950e      	str	r5, [sp, #56]	; 0x38
 8009d74:	9415      	str	r4, [sp, #84]	; 0x54
 8009d76:	e9cd 5510 	strd	r5, r5, [sp, #64]	; 0x40
 8009d7a:	e9cd 441c 	strd	r4, r4, [sp, #112]	; 0x70
 8009d7e:	f7f9 f839 	bl	8002df4 <HAL_RCC_OscConfig>
 8009d82:	2200      	movs	r2, #0
 8009d84:	2308      	movs	r3, #8
 8009d86:	4629      	mov	r1, r5
 8009d88:	a802      	add	r0, sp, #8
 8009d8a:	e9cd 6702 	strd	r6, r7, [sp, #8]
 8009d8e:	e9cd 2304 	strd	r2, r3, [sp, #16]
 8009d92:	2640      	movs	r6, #64	; 0x40
 8009d94:	2340      	movs	r3, #64	; 0x40
 8009d96:	f44f 6280 	mov.w	r2, #1024	; 0x400
 8009d9a:	2700      	movs	r7, #0
 8009d9c:	e9cd 2308 	strd	r2, r3, [sp, #32]
 8009da0:	e9cd 6706 	strd	r6, r7, [sp, #24]
 8009da4:	f7f9 fc08 	bl	80035b8 <HAL_RCC_ClockConfig>
 8009da8:	4620      	mov	r0, r4
 8009daa:	f44f 2280 	mov.w	r2, #262144	; 0x40000
 8009dae:	f44f 0140 	mov.w	r1, #12582912	; 0xc00000
 8009db2:	f7f9 fb05 	bl	80033c0 <HAL_RCC_MCOConfig>
 8009db6:	b01f      	add	sp, #124	; 0x7c
 8009db8:	bdf0      	pop	{r4, r5, r6, r7, pc}
 8009dba:	bf00      	nop
 8009dbc:	58024800 	.word	0x58024800
 8009dc0:	58000400 	.word	0x58000400
 8009dc4:	58024400 	.word	0x58024400

08009dc8 <PeriphCommonClock_Config>:
 8009dc8:	b5f0      	push	{r4, r5, r6, r7, lr}
 8009dca:	b0b1      	sub	sp, #196	; 0xc4
 8009dcc:	2298      	movs	r2, #152	; 0x98
 8009dce:	2100      	movs	r1, #0
 8009dd0:	2400      	movs	r4, #0
 8009dd2:	a809      	add	r0, sp, #36	; 0x24
 8009dd4:	2602      	movs	r6, #2
 8009dd6:	f001 fd1f 	bl	800b818 <memset>
 8009dda:	2220      	movs	r2, #32
 8009ddc:	2302      	movs	r3, #2
 8009dde:	2108      	movs	r1, #8
 8009de0:	480b      	ldr	r0, [pc, #44]	; (8009e10 <PeriphCommonClock_Config+0x48>)
 8009de2:	2702      	movs	r7, #2
 8009de4:	9408      	str	r4, [sp, #32]
 8009de6:	2500      	movs	r5, #0
 8009de8:	24c0      	movs	r4, #192	; 0xc0
 8009dea:	e9cd 2302 	strd	r2, r3, [sp, #8]
 8009dee:	2220      	movs	r2, #32
 8009df0:	f44f 3380 	mov.w	r3, #65536	; 0x10000
 8009df4:	e9cd 0100 	strd	r0, r1, [sp]
 8009df8:	4668      	mov	r0, sp
 8009dfa:	e9cd 6704 	strd	r6, r7, [sp, #16]
 8009dfe:	e9cd 4506 	strd	r4, r5, [sp, #24]
 8009e02:	e9cd 2312 	strd	r2, r3, [sp, #72]	; 0x48
 8009e06:	f7f9 fef5 	bl	8003bf4 <HAL_RCCEx_PeriphCLKConfig>
 8009e0a:	b031      	add	sp, #196	; 0xc4
 8009e0c:	bdf0      	pop	{r4, r5, r6, r7, pc}
 8009e0e:	bf00      	nop
 8009e10:	02090000 	.word	0x02090000
 8009e14:	00000000 	.word	0x00000000

08009e18 <main>:
 8009e18:	2400      	movs	r4, #0
 8009e1a:	4dd4      	ldr	r5, [pc, #848]	; (800a16c <main+0x354>)
 8009e1c:	2600      	movs	r6, #0
 8009e1e:	ed9f 8ad4 	vldr	s16, [pc, #848]	; 800a170 <main+0x358>
 8009e22:	f8df 8378 	ldr.w	r8, [pc, #888]	; 800a19c <main+0x384>
 8009e26:	f04f 0a32 	mov.w	sl, #50	; 0x32
 8009e2a:	f8df 9374 	ldr.w	r9, [pc, #884]	; 800a1a0 <main+0x388>
 8009e2e:	e92d 4880 	stmdb	sp!, {r7, fp, lr}
 8009e32:	b09b      	sub	sp, #108	; 0x6c
 8009e34:	2700      	movs	r7, #0
 8009e36:	f7f6 fbcf 	bl	80005d8 <HAL_Init>
 8009e3a:	f8df b368 	ldr.w	fp, [pc, #872]	; 800a1a4 <main+0x38c>
 8009e3e:	f7ff fe59 	bl	8009af4 <arm_boot>
 8009e42:	f7ff ff55 	bl	8009cf0 <SystemClock_Config>
 8009e46:	f7ff ffbf 	bl	8009dc8 <PeriphCommonClock_Config>
 8009e4a:	9414      	str	r4, [sp, #80]	; 0x50
 8009e4c:	4622      	mov	r2, r4
 8009e4e:	2109      	movs	r1, #9
 8009e50:	48c8      	ldr	r0, [pc, #800]	; (800a174 <main+0x35c>)
 8009e52:	e9cd 4412 	strd	r4, r4, [sp, #72]	; 0x48
 8009e56:	e9cd 4415 	strd	r4, r4, [sp, #84]	; 0x54
 8009e5a:	f8d5 30e0 	ldr.w	r3, [r5, #224]	; 0xe0
 8009e5e:	f043 0310 	orr.w	r3, r3, #16
 8009e62:	f8c5 30e0 	str.w	r3, [r5, #224]	; 0xe0
 8009e66:	f8d5 30e0 	ldr.w	r3, [r5, #224]	; 0xe0
 8009e6a:	f003 0310 	and.w	r3, r3, #16
 8009e6e:	9303      	str	r3, [sp, #12]
 8009e70:	9b03      	ldr	r3, [sp, #12]
 8009e72:	f8d5 30e0 	ldr.w	r3, [r5, #224]	; 0xe0
 8009e76:	f443 7380 	orr.w	r3, r3, #256	; 0x100
 8009e7a:	f8c5 30e0 	str.w	r3, [r5, #224]	; 0xe0
 8009e7e:	f8d5 30e0 	ldr.w	r3, [r5, #224]	; 0xe0
 8009e82:	f403 7380 	and.w	r3, r3, #256	; 0x100
 8009e86:	9304      	str	r3, [sp, #16]
 8009e88:	9b04      	ldr	r3, [sp, #16]
 8009e8a:	f8d5 30e0 	ldr.w	r3, [r5, #224]	; 0xe0
 8009e8e:	f043 0320 	orr.w	r3, r3, #32
 8009e92:	f8c5 30e0 	str.w	r3, [r5, #224]	; 0xe0
 8009e96:	f8d5 30e0 	ldr.w	r3, [r5, #224]	; 0xe0
 8009e9a:	f003 0320 	and.w	r3, r3, #32
 8009e9e:	9305      	str	r3, [sp, #20]
 8009ea0:	9b05      	ldr	r3, [sp, #20]
 8009ea2:	f8d5 30e0 	ldr.w	r3, [r5, #224]	; 0xe0
 8009ea6:	f043 0380 	orr.w	r3, r3, #128	; 0x80
 8009eaa:	f8c5 30e0 	str.w	r3, [r5, #224]	; 0xe0
 8009eae:	f8d5 30e0 	ldr.w	r3, [r5, #224]	; 0xe0
 8009eb2:	f003 0380 	and.w	r3, r3, #128	; 0x80
 8009eb6:	9306      	str	r3, [sp, #24]
 8009eb8:	9b06      	ldr	r3, [sp, #24]
 8009eba:	f8d5 30e0 	ldr.w	r3, [r5, #224]	; 0xe0
 8009ebe:	f043 0301 	orr.w	r3, r3, #1
 8009ec2:	f8c5 30e0 	str.w	r3, [r5, #224]	; 0xe0
 8009ec6:	f8d5 30e0 	ldr.w	r3, [r5, #224]	; 0xe0
 8009eca:	f003 0301 	and.w	r3, r3, #1
 8009ece:	9307      	str	r3, [sp, #28]
 8009ed0:	9b07      	ldr	r3, [sp, #28]
 8009ed2:	f8d5 30e0 	ldr.w	r3, [r5, #224]	; 0xe0
 8009ed6:	f043 0304 	orr.w	r3, r3, #4
 8009eda:	f8c5 30e0 	str.w	r3, [r5, #224]	; 0xe0
 8009ede:	f8d5 30e0 	ldr.w	r3, [r5, #224]	; 0xe0
 8009ee2:	f003 0304 	and.w	r3, r3, #4
 8009ee6:	9308      	str	r3, [sp, #32]
 8009ee8:	9b08      	ldr	r3, [sp, #32]
 8009eea:	f8d5 30e0 	ldr.w	r3, [r5, #224]	; 0xe0
 8009eee:	f043 0302 	orr.w	r3, r3, #2
 8009ef2:	f8c5 30e0 	str.w	r3, [r5, #224]	; 0xe0
 8009ef6:	f8d5 30e0 	ldr.w	r3, [r5, #224]	; 0xe0
 8009efa:	f003 0302 	and.w	r3, r3, #2
 8009efe:	9309      	str	r3, [sp, #36]	; 0x24
 8009f00:	9b09      	ldr	r3, [sp, #36]	; 0x24
 8009f02:	f8d5 30e0 	ldr.w	r3, [r5, #224]	; 0xe0
 8009f06:	f443 7300 	orr.w	r3, r3, #512	; 0x200
 8009f0a:	f8c5 30e0 	str.w	r3, [r5, #224]	; 0xe0
 8009f0e:	f8d5 30e0 	ldr.w	r3, [r5, #224]	; 0xe0
 8009f12:	f403 7300 	and.w	r3, r3, #512	; 0x200
 8009f16:	930a      	str	r3, [sp, #40]	; 0x28
 8009f18:	9b0a      	ldr	r3, [sp, #40]	; 0x28
 8009f1a:	f8d5 30e0 	ldr.w	r3, [r5, #224]	; 0xe0
 8009f1e:	f043 0340 	orr.w	r3, r3, #64	; 0x40
 8009f22:	f8c5 30e0 	str.w	r3, [r5, #224]	; 0xe0
 8009f26:	f8d5 30e0 	ldr.w	r3, [r5, #224]	; 0xe0
 8009f2a:	f003 0340 	and.w	r3, r3, #64	; 0x40
 8009f2e:	930b      	str	r3, [sp, #44]	; 0x2c
 8009f30:	9b0b      	ldr	r3, [sp, #44]	; 0x2c
 8009f32:	f8d5 30e0 	ldr.w	r3, [r5, #224]	; 0xe0
 8009f36:	f043 0308 	orr.w	r3, r3, #8
 8009f3a:	f8c5 30e0 	str.w	r3, [r5, #224]	; 0xe0
 8009f3e:	f8d5 30e0 	ldr.w	r3, [r5, #224]	; 0xe0
 8009f42:	f003 0308 	and.w	r3, r3, #8
 8009f46:	930c      	str	r3, [sp, #48]	; 0x30
 8009f48:	9b0c      	ldr	r3, [sp, #48]	; 0x30
 8009f4a:	f8d5 30e0 	ldr.w	r3, [r5, #224]	; 0xe0
 8009f4e:	f443 6380 	orr.w	r3, r3, #1024	; 0x400
 8009f52:	f8c5 30e0 	str.w	r3, [r5, #224]	; 0xe0
 8009f56:	f8d5 30e0 	ldr.w	r3, [r5, #224]	; 0xe0
 8009f5a:	f403 6380 	and.w	r3, r3, #1024	; 0x400
 8009f5e:	930d      	str	r3, [sp, #52]	; 0x34
 8009f60:	9b0d      	ldr	r3, [sp, #52]	; 0x34
 8009f62:	f7f8 fe75 	bl	8002c50 <HAL_GPIO_WritePin>
 8009f66:	4622      	mov	r2, r4
 8009f68:	f24f 2191 	movw	r1, #62097	; 0xf291
 8009f6c:	4882      	ldr	r0, [pc, #520]	; (800a178 <main+0x360>)
 8009f6e:	f7f8 fe6f 	bl	8002c50 <HAL_GPIO_WritePin>
 8009f72:	4622      	mov	r2, r4
 8009f74:	2104      	movs	r1, #4
 8009f76:	4881      	ldr	r0, [pc, #516]	; (800a17c <main+0x364>)
 8009f78:	f7f8 fe6a 	bl	8002c50 <HAL_GPIO_WritePin>
 8009f7c:	4622      	mov	r2, r4
 8009f7e:	f248 013f 	movw	r1, #32831	; 0x803f
 8009f82:	487f      	ldr	r0, [pc, #508]	; (800a180 <main+0x368>)
 8009f84:	f7f8 fe64 	bl	8002c50 <HAL_GPIO_WritePin>
 8009f88:	4622      	mov	r2, r4
 8009f8a:	f24b 0120 	movw	r1, #45088	; 0xb020
 8009f8e:	487d      	ldr	r0, [pc, #500]	; (800a184 <main+0x36c>)
 8009f90:	f7f8 fe5e 	bl	8002c50 <HAL_GPIO_WritePin>
 8009f94:	4622      	mov	r2, r4
 8009f96:	f44f 5180 	mov.w	r1, #4096	; 0x1000
 8009f9a:	487b      	ldr	r0, [pc, #492]	; (800a188 <main+0x370>)
 8009f9c:	f7f8 fe58 	bl	8002c50 <HAL_GPIO_WritePin>
 8009fa0:	4622      	mov	r2, r4
 8009fa2:	f44f 5100 	mov.w	r1, #8192	; 0x2000
 8009fa6:	4879      	ldr	r0, [pc, #484]	; (800a18c <main+0x374>)
 8009fa8:	f7f8 fe52 	bl	8002c50 <HAL_GPIO_WritePin>
 8009fac:	4622      	mov	r2, r4
 8009fae:	21fc      	movs	r1, #252	; 0xfc
 8009fb0:	4877      	ldr	r0, [pc, #476]	; (800a190 <main+0x378>)
 8009fb2:	f7f8 fe4d 	bl	8002c50 <HAL_GPIO_WritePin>
 8009fb6:	4622      	mov	r2, r4
 8009fb8:	2148      	movs	r1, #72	; 0x48
 8009fba:	4876      	ldr	r0, [pc, #472]	; (800a194 <main+0x37c>)
 8009fbc:	f7f8 fe48 	bl	8002c50 <HAL_GPIO_WritePin>
 8009fc0:	2209      	movs	r2, #9
 8009fc2:	2301      	movs	r3, #1
 8009fc4:	a912      	add	r1, sp, #72	; 0x48
 8009fc6:	486b      	ldr	r0, [pc, #428]	; (800a174 <main+0x35c>)
 8009fc8:	e9cd 2312 	strd	r2, r3, [sp, #72]	; 0x48
 8009fcc:	e9cd 6714 	strd	r6, r7, [sp, #80]	; 0x50
 8009fd0:	f7f8 fd04 	bl	80029dc <HAL_GPIO_Init>
 8009fd4:	f24f 2291 	movw	r2, #62097	; 0xf291
 8009fd8:	2301      	movs	r3, #1
 8009fda:	a912      	add	r1, sp, #72	; 0x48
 8009fdc:	4866      	ldr	r0, [pc, #408]	; (800a178 <main+0x360>)
 8009fde:	e9cd 6714 	strd	r6, r7, [sp, #80]	; 0x50
 8009fe2:	e9cd 2312 	strd	r2, r3, [sp, #72]	; 0x48
 8009fe6:	f7f8 fcf9 	bl	80029dc <HAL_GPIO_Init>
 8009fea:	2204      	movs	r2, #4
 8009fec:	2301      	movs	r3, #1
 8009fee:	a912      	add	r1, sp, #72	; 0x48
 8009ff0:	4862      	ldr	r0, [pc, #392]	; (800a17c <main+0x364>)
 8009ff2:	e9cd 6714 	strd	r6, r7, [sp, #80]	; 0x50
 8009ff6:	e9cd 2312 	strd	r2, r3, [sp, #72]	; 0x48
 8009ffa:	f7f8 fcef 	bl	80029dc <HAL_GPIO_Init>
 8009ffe:	2002      	movs	r0, #2
 800a000:	2201      	movs	r2, #1
 800a002:	f44f 1388 	mov.w	r3, #1114112	; 0x110000
 800a006:	a912      	add	r1, sp, #72	; 0x48
 800a008:	9014      	str	r0, [sp, #80]	; 0x50
 800a00a:	485e      	ldr	r0, [pc, #376]	; (800a184 <main+0x36c>)
 800a00c:	e9cd 2312 	strd	r2, r3, [sp, #72]	; 0x48
 800a010:	f7f8 fce4 	bl	80029dc <HAL_GPIO_Init>
 800a014:	22de      	movs	r2, #222	; 0xde
 800a016:	f44f 1388 	mov.w	r3, #1114112	; 0x110000
 800a01a:	a912      	add	r1, sp, #72	; 0x48
 800a01c:	4859      	ldr	r0, [pc, #356]	; (800a184 <main+0x36c>)
 800a01e:	9414      	str	r4, [sp, #80]	; 0x50
 800a020:	e9cd 2312 	strd	r2, r3, [sp, #72]	; 0x48
 800a024:	f7f8 fcda 	bl	80029dc <HAL_GPIO_Init>
 800a028:	f248 023f 	movw	r2, #32831	; 0x803f
 800a02c:	2301      	movs	r3, #1
 800a02e:	a912      	add	r1, sp, #72	; 0x48
 800a030:	4853      	ldr	r0, [pc, #332]	; (800a180 <main+0x368>)
 800a032:	e9cd 6714 	strd	r6, r7, [sp, #80]	; 0x50
 800a036:	e9cd 2312 	strd	r2, r3, [sp, #72]	; 0x48
 800a03a:	f7f8 fccf 	bl	80029dc <HAL_GPIO_Init>
 800a03e:	f44f 4278 	mov.w	r2, #63488	; 0xf800
 800a042:	f44f 1388 	mov.w	r3, #1114112	; 0x110000
 800a046:	a912      	add	r1, sp, #72	; 0x48
 800a048:	484a      	ldr	r0, [pc, #296]	; (800a174 <main+0x35c>)
 800a04a:	9414      	str	r4, [sp, #80]	; 0x50
 800a04c:	e9cd 2312 	strd	r2, r3, [sp, #72]	; 0x48
 800a050:	f7f8 fcc4 	bl	80029dc <HAL_GPIO_Init>
 800a054:	f24b 0220 	movw	r2, #45088	; 0xb020
 800a058:	2301      	movs	r3, #1
 800a05a:	a912      	add	r1, sp, #72	; 0x48
 800a05c:	4849      	ldr	r0, [pc, #292]	; (800a184 <main+0x36c>)
 800a05e:	e9cd 6714 	strd	r6, r7, [sp, #80]	; 0x50
 800a062:	e9cd 2312 	strd	r2, r3, [sp, #72]	; 0x48
 800a066:	f7f8 fcb9 	bl	80029dc <HAL_GPIO_Init>
 800a06a:	f44f 5280 	mov.w	r2, #4096	; 0x1000
 800a06e:	2301      	movs	r3, #1
 800a070:	a912      	add	r1, sp, #72	; 0x48
 800a072:	4845      	ldr	r0, [pc, #276]	; (800a188 <main+0x370>)
 800a074:	e9cd 6714 	strd	r6, r7, [sp, #80]	; 0x50
 800a078:	e9cd 2312 	strd	r2, r3, [sp, #72]	; 0x48
 800a07c:	f7f8 fcae 	bl	80029dc <HAL_GPIO_Init>
 800a080:	200c      	movs	r0, #12
 800a082:	f44f 4250 	mov.w	r2, #53248	; 0xd000
 800a086:	2302      	movs	r3, #2
 800a088:	a912      	add	r1, sp, #72	; 0x48
 800a08a:	9016      	str	r0, [sp, #88]	; 0x58
 800a08c:	483f      	ldr	r0, [pc, #252]	; (800a18c <main+0x374>)
 800a08e:	e9cd 6714 	strd	r6, r7, [sp, #80]	; 0x50
 800a092:	e9cd 2312 	strd	r2, r3, [sp, #72]	; 0x48
 800a096:	f7f8 fca1 	bl	80029dc <HAL_GPIO_Init>
 800a09a:	f44f 5200 	mov.w	r2, #8192	; 0x2000
 800a09e:	2301      	movs	r3, #1
 800a0a0:	a912      	add	r1, sp, #72	; 0x48
 800a0a2:	483a      	ldr	r0, [pc, #232]	; (800a18c <main+0x374>)
 800a0a4:	e9cd 6714 	strd	r6, r7, [sp, #80]	; 0x50
 800a0a8:	e9cd 2312 	strd	r2, r3, [sp, #72]	; 0x48
 800a0ac:	f7f8 fc96 	bl	80029dc <HAL_GPIO_Init>
 800a0b0:	2007      	movs	r0, #7
 800a0b2:	f44f 7200 	mov.w	r2, #512	; 0x200
 800a0b6:	2302      	movs	r3, #2
 800a0b8:	a912      	add	r1, sp, #72	; 0x48
 800a0ba:	9016      	str	r0, [sp, #88]	; 0x58
 800a0bc:	4835      	ldr	r0, [pc, #212]	; (800a194 <main+0x37c>)
 800a0be:	e9cd 6714 	strd	r6, r7, [sp, #80]	; 0x50
 800a0c2:	e9cd 2312 	strd	r2, r3, [sp, #72]	; 0x48
 800a0c6:	f7f8 fc89 	bl	80029dc <HAL_GPIO_Init>
 800a0ca:	f44f 6280 	mov.w	r2, #1024	; 0x400
 800a0ce:	f44f 1388 	mov.w	r3, #1114112	; 0x110000
 800a0d2:	a912      	add	r1, sp, #72	; 0x48
 800a0d4:	482f      	ldr	r0, [pc, #188]	; (800a194 <main+0x37c>)
 800a0d6:	9414      	str	r4, [sp, #80]	; 0x50
 800a0d8:	e9cd 2312 	strd	r2, r3, [sp, #72]	; 0x48
 800a0dc:	f7f8 fc7e 	bl	80029dc <HAL_GPIO_Init>
 800a0e0:	f44f 6240 	mov.w	r2, #3072	; 0xc00
 800a0e4:	2302      	movs	r3, #2
 800a0e6:	a912      	add	r1, sp, #72	; 0x48
 800a0e8:	4826      	ldr	r0, [pc, #152]	; (800a184 <main+0x36c>)
 800a0ea:	ed8d 8a16 	vstr	s16, [sp, #88]	; 0x58
 800a0ee:	e9cd 6714 	strd	r6, r7, [sp, #80]	; 0x50
 800a0f2:	e9cd 2312 	strd	r2, r3, [sp, #72]	; 0x48
 800a0f6:	f7f8 fc71 	bl	80029dc <HAL_GPIO_Init>
 800a0fa:	2203      	movs	r2, #3
 800a0fc:	2302      	movs	r3, #2
 800a0fe:	a912      	add	r1, sp, #72	; 0x48
 800a100:	4823      	ldr	r0, [pc, #140]	; (800a190 <main+0x378>)
 800a102:	ed8d 8a16 	vstr	s16, [sp, #88]	; 0x58
 800a106:	e9cd 6714 	strd	r6, r7, [sp, #80]	; 0x50
 800a10a:	e9cd 2312 	strd	r2, r3, [sp, #72]	; 0x48
 800a10e:	f7f8 fc65 	bl	80029dc <HAL_GPIO_Init>
 800a112:	22fc      	movs	r2, #252	; 0xfc
 800a114:	2301      	movs	r3, #1
 800a116:	a912      	add	r1, sp, #72	; 0x48
 800a118:	481d      	ldr	r0, [pc, #116]	; (800a190 <main+0x378>)
 800a11a:	e9cd 6714 	strd	r6, r7, [sp, #80]	; 0x50
 800a11e:	e9cd 2312 	strd	r2, r3, [sp, #72]	; 0x48
 800a122:	f7f8 fc5b 	bl	80029dc <HAL_GPIO_Init>
 800a126:	f44f 7280 	mov.w	r2, #256	; 0x100
 800a12a:	f44f 1388 	mov.w	r3, #1114112	; 0x110000
 800a12e:	a912      	add	r1, sp, #72	; 0x48
 800a130:	4813      	ldr	r0, [pc, #76]	; (800a180 <main+0x368>)
 800a132:	9414      	str	r4, [sp, #80]	; 0x50
 800a134:	e9cd 2312 	strd	r2, r3, [sp, #72]	; 0x48
 800a138:	f7f8 fc50 	bl	80029dc <HAL_GPIO_Init>
 800a13c:	f44f 7280 	mov.w	r2, #256	; 0x100
 800a140:	2302      	movs	r3, #2
 800a142:	a912      	add	r1, sp, #72	; 0x48
 800a144:	4814      	ldr	r0, [pc, #80]	; (800a198 <main+0x380>)
 800a146:	9416      	str	r4, [sp, #88]	; 0x58
 800a148:	e9cd 6714 	strd	r6, r7, [sp, #80]	; 0x50
 800a14c:	e9cd 2312 	strd	r2, r3, [sp, #72]	; 0x48
 800a150:	f7f8 fc44 	bl	80029dc <HAL_GPIO_Init>
 800a154:	2309      	movs	r3, #9
 800a156:	f44f 4280 	mov.w	r2, #16384	; 0x4000
 800a15a:	a912      	add	r1, sp, #72	; 0x48
 800a15c:	9316      	str	r3, [sp, #88]	; 0x58
 800a15e:	2302      	movs	r3, #2
 800a160:	4809      	ldr	r0, [pc, #36]	; (800a188 <main+0x370>)
 800a162:	e9cd 2312 	strd	r2, r3, [sp, #72]	; 0x48
 800a166:	2200      	movs	r2, #0
 800a168:	2302      	movs	r3, #2
 800a16a:	e01d      	b.n	800a1a8 <main+0x390>
 800a16c:	58024400 	.word	0x58024400
 800a170:	00000005 	.word	0x00000005
 800a174:	58021000 	.word	0x58021000
 800a178:	58022000 	.word	0x58022000
 800a17c:	58021400 	.word	0x58021400
 800a180:	58021800 	.word	0x58021800
 800a184:	58022400 	.word	0x58022400
 800a188:	58021c00 	.word	0x58021c00
 800a18c:	58020400 	.word	0x58020400
 800a190:	58022800 	.word	0x58022800
 800a194:	58020c00 	.word	0x58020c00
 800a198:	58020000 	.word	0x58020000
 800a19c:	24027994 	.word	0x24027994
 800a1a0:	24027abc 	.word	0x24027abc
 800a1a4:	24027a24 	.word	0x24027a24
 800a1a8:	e9cd 2314 	strd	r2, r3, [sp, #80]	; 0x50
 800a1ac:	f7f8 fc16 	bl	80029dc <HAL_GPIO_Init>
 800a1b0:	2107      	movs	r1, #7
 800a1b2:	f44f 4200 	mov.w	r2, #32768	; 0x8000
 800a1b6:	2302      	movs	r3, #2
 800a1b8:	48d7      	ldr	r0, [pc, #860]	; (800a518 <main+0x700>)
 800a1ba:	9116      	str	r1, [sp, #88]	; 0x58
 800a1bc:	a912      	add	r1, sp, #72	; 0x48
 800a1be:	e9cd 6714 	strd	r6, r7, [sp, #80]	; 0x50
 800a1c2:	e9cd 2312 	strd	r2, r3, [sp, #72]	; 0x48
 800a1c6:	f7f8 fc09 	bl	80029dc <HAL_GPIO_Init>
 800a1ca:	2248      	movs	r2, #72	; 0x48
 800a1cc:	2301      	movs	r3, #1
 800a1ce:	a912      	add	r1, sp, #72	; 0x48
 800a1d0:	48d2      	ldr	r0, [pc, #840]	; (800a51c <main+0x704>)
 800a1d2:	e9cd 6714 	strd	r6, r7, [sp, #80]	; 0x50
 800a1d6:	e9cd 2312 	strd	r2, r3, [sp, #72]	; 0x48
 800a1da:	f7f8 fbff 	bl	80029dc <HAL_GPIO_Init>
 800a1de:	2280      	movs	r2, #128	; 0x80
 800a1e0:	2302      	movs	r3, #2
 800a1e2:	a912      	add	r1, sp, #72	; 0x48
 800a1e4:	48cd      	ldr	r0, [pc, #820]	; (800a51c <main+0x704>)
 800a1e6:	ed8d 8a16 	vstr	s16, [sp, #88]	; 0x58
 800a1ea:	e9cd 6714 	strd	r6, r7, [sp, #80]	; 0x50
 800a1ee:	e9cd 2312 	strd	r2, r3, [sp, #72]	; 0x48
 800a1f2:	f7f8 fbf3 	bl	80029dc <HAL_GPIO_Init>
 800a1f6:	f44f 62c0 	mov.w	r2, #1536	; 0x600
 800a1fa:	2302      	movs	r3, #2
 800a1fc:	a912      	add	r1, sp, #72	; 0x48
 800a1fe:	48c8      	ldr	r0, [pc, #800]	; (800a520 <main+0x708>)
 800a200:	ed8d 8a16 	vstr	s16, [sp, #88]	; 0x58
 800a204:	e9cd 6714 	strd	r6, r7, [sp, #80]	; 0x50
 800a208:	e9cd 2312 	strd	r2, r3, [sp, #72]	; 0x48
 800a20c:	f7f8 fbe6 	bl	80029dc <HAL_GPIO_Init>
 800a210:	f44f 42a0 	mov.w	r2, #20480	; 0x5000
 800a214:	2302      	movs	r3, #2
 800a216:	a912      	add	r1, sp, #72	; 0x48
 800a218:	48c1      	ldr	r0, [pc, #772]	; (800a520 <main+0x708>)
 800a21a:	ed8d 8a16 	vstr	s16, [sp, #88]	; 0x58
 800a21e:	e9cd 6714 	strd	r6, r7, [sp, #80]	; 0x50
 800a222:	e9cd 2312 	strd	r2, r3, [sp, #72]	; 0x48
 800a226:	f7f8 fbd9 	bl	80029dc <HAL_GPIO_Init>
 800a22a:	2009      	movs	r0, #9
 800a22c:	2302      	movs	r3, #2
 800a22e:	2240      	movs	r2, #64	; 0x40
 800a230:	a912      	add	r1, sp, #72	; 0x48
 800a232:	9016      	str	r0, [sp, #88]	; 0x58
 800a234:	48bb      	ldr	r0, [pc, #748]	; (800a524 <main+0x70c>)
 800a236:	e9cd 2312 	strd	r2, r3, [sp, #72]	; 0x48
 800a23a:	e9cd 6714 	strd	r6, r7, [sp, #80]	; 0x50
 800a23e:	f7f8 fbcd 	bl	80029dc <HAL_GPIO_Init>
 800a242:	4622      	mov	r2, r4
 800a244:	ee18 1a10 	vmov	r1, s16
 800a248:	2006      	movs	r0, #6
 800a24a:	f7f6 ffd5 	bl	80011f8 <HAL_NVIC_SetPriority>
 800a24e:	2006      	movs	r0, #6
 800a250:	f7f7 f80c 	bl	800126c <HAL_NVIC_EnableIRQ>
 800a254:	4622      	mov	r2, r4
 800a256:	ee18 1a10 	vmov	r1, s16
 800a25a:	2028      	movs	r0, #40	; 0x28
 800a25c:	f7f6 ffcc 	bl	80011f8 <HAL_NVIC_SetPriority>
 800a260:	2028      	movs	r0, #40	; 0x28
 800a262:	f7f7 f803 	bl	800126c <HAL_NVIC_EnableIRQ>
 800a266:	f8d5 30d8 	ldr.w	r3, [r5, #216]	; 0xd8
 800a26a:	4622      	mov	r2, r4
 800a26c:	ee18 1a10 	vmov	r1, s16
 800a270:	f043 0301 	orr.w	r3, r3, #1
 800a274:	200b      	movs	r0, #11
 800a276:	f8c5 30d8 	str.w	r3, [r5, #216]	; 0xd8
 800a27a:	f8d5 30d8 	ldr.w	r3, [r5, #216]	; 0xd8
 800a27e:	4daa      	ldr	r5, [pc, #680]	; (800a528 <main+0x710>)
 800a280:	f003 0301 	and.w	r3, r3, #1
 800a284:	9302      	str	r3, [sp, #8]
 800a286:	9b02      	ldr	r3, [sp, #8]
 800a288:	f7f6 ffb6 	bl	80011f8 <HAL_NVIC_SetPriority>
 800a28c:	200b      	movs	r0, #11
 800a28e:	f7f6 ffed 	bl	800126c <HAL_NVIC_EnableIRQ>
 800a292:	4622      	mov	r2, r4
 800a294:	ee18 1a10 	vmov	r1, s16
 800a298:	200c      	movs	r0, #12
 800a29a:	f7f6 ffad 	bl	80011f8 <HAL_NVIC_SetPriority>
 800a29e:	200c      	movs	r0, #12
 800a2a0:	f7f6 ffe4 	bl	800126c <HAL_NVIC_EnableIRQ>
 800a2a4:	4622      	mov	r2, r4
 800a2a6:	ee18 1a10 	vmov	r1, s16
 800a2aa:	200d      	movs	r0, #13
 800a2ac:	f7f6 ffa4 	bl	80011f8 <HAL_NVIC_SetPriority>
 800a2b0:	200d      	movs	r0, #13
 800a2b2:	f7f6 ffdb 	bl	800126c <HAL_NVIC_EnableIRQ>
 800a2b6:	4622      	mov	r2, r4
 800a2b8:	ee18 1a10 	vmov	r1, s16
 800a2bc:	200e      	movs	r0, #14
 800a2be:	f7f6 ff9b 	bl	80011f8 <HAL_NVIC_SetPriority>
 800a2c2:	200e      	movs	r0, #14
 800a2c4:	f7f6 ffd2 	bl	800126c <HAL_NVIC_EnableIRQ>
 800a2c8:	4622      	mov	r2, r4
 800a2ca:	ee18 1a10 	vmov	r1, s16
 800a2ce:	200f      	movs	r0, #15
 800a2d0:	f7f6 ff92 	bl	80011f8 <HAL_NVIC_SetPriority>
 800a2d4:	200f      	movs	r0, #15
 800a2d6:	f7f6 ffc9 	bl	800126c <HAL_NVIC_EnableIRQ>
 800a2da:	ee18 1a10 	vmov	r1, s16
 800a2de:	4622      	mov	r2, r4
 800a2e0:	2010      	movs	r0, #16
 800a2e2:	f7f6 ff89 	bl	80011f8 <HAL_NVIC_SetPriority>
 800a2e6:	2010      	movs	r0, #16
 800a2e8:	f7f6 ffc0 	bl	800126c <HAL_NVIC_EnableIRQ>
 800a2ec:	4b8f      	ldr	r3, [pc, #572]	; (800a52c <main+0x714>)
 800a2ee:	220c      	movs	r2, #12
 800a2f0:	4640      	mov	r0, r8
 800a2f2:	f8c8 3000 	str.w	r3, [r8]
 800a2f6:	4b8e      	ldr	r3, [pc, #568]	; (800a530 <main+0x718>)
 800a2f8:	f8c8 4010 	str.w	r4, [r8, #16]
 800a2fc:	f8c8 3004 	str.w	r3, [r8, #4]
 800a300:	e9c8 2405 	strd	r2, r4, [r8, #20]
 800a304:	e9c8 4402 	strd	r4, r4, [r8, #8]
 800a308:	e9c8 4407 	strd	r4, r4, [r8, #28]
 800a30c:	e9c8 4409 	strd	r4, r4, [r8, #36]	; 0x24
 800a310:	f7fc ff5e 	bl	80071d0 <HAL_UART_Init>
 800a314:	4621      	mov	r1, r4
 800a316:	4640      	mov	r0, r8
 800a318:	f7fd f86c 	bl	80073f4 <HAL_UARTEx_SetTxFifoThreshold>
 800a31c:	4621      	mov	r1, r4
 800a31e:	4640      	mov	r0, r8
 800a320:	f7fd f8a6 	bl	8007470 <HAL_UARTEx_SetRxFifoThreshold>
 800a324:	4640      	mov	r0, r8
 800a326:	f7fd f847 	bl	80073b8 <HAL_UARTEx_DisableFifoMode>
 800a32a:	4882      	ldr	r0, [pc, #520]	; (800a534 <main+0x71c>)
 800a32c:	4982      	ldr	r1, [pc, #520]	; (800a538 <main+0x720>)
 800a32e:	227f      	movs	r2, #127	; 0x7f
 800a330:	23ff      	movs	r3, #255	; 0xff
 800a332:	6044      	str	r4, [r0, #4]
 800a334:	6001      	str	r1, [r0, #0]
 800a336:	6104      	str	r4, [r0, #16]
 800a338:	6144      	str	r4, [r0, #20]
 800a33a:	e9c0 2302 	strd	r2, r3, [r0, #8]
 800a33e:	e9c0 4406 	strd	r4, r4, [r0, #24]
 800a342:	f7fa fdcb 	bl	8004edc <HAL_RTC_Init>
 800a346:	487d      	ldr	r0, [pc, #500]	; (800a53c <main+0x724>)
 800a348:	f44f 0380 	mov.w	r3, #4194304	; 0x400000
 800a34c:	4a7c      	ldr	r2, [pc, #496]	; (800a540 <main+0x728>)
 800a34e:	210f      	movs	r1, #15
 800a350:	6084      	str	r4, [r0, #8]
 800a352:	6002      	str	r2, [r0, #0]
 800a354:	f04f 6280 	mov.w	r2, #67108864	; 0x4000000
 800a358:	6043      	str	r3, [r0, #4]
 800a35a:	f04f 43e0 	mov.w	r3, #1879048192	; 0x70000000
 800a35e:	60c1      	str	r1, [r0, #12]
 800a360:	f04f 4180 	mov.w	r1, #1073741824	; 0x40000000
 800a364:	6584      	str	r4, [r0, #88]	; 0x58
 800a366:	6341      	str	r1, [r0, #52]	; 0x34
 800a368:	e9c0 2306 	strd	r2, r3, [r0, #24]
 800a36c:	e9c0 4404 	strd	r4, r4, [r0, #16]
 800a370:	e9c0 4408 	strd	r4, r4, [r0, #32]
 800a374:	e9c0 440a 	strd	r4, r4, [r0, #40]	; 0x28
 800a378:	e9c0 440e 	strd	r4, r4, [r0, #56]	; 0x38
 800a37c:	e9c0 4410 	strd	r4, r4, [r0, #64]	; 0x40
 800a380:	e9c0 4412 	strd	r4, r4, [r0, #72]	; 0x48
 800a384:	e9c0 4414 	strd	r4, r4, [r0, #80]	; 0x50
 800a388:	f7fa fe62 	bl	8005050 <HAL_SPI_Init>
 800a38c:	4a68      	ldr	r2, [pc, #416]	; (800a530 <main+0x718>)
 800a38e:	4b6d      	ldr	r3, [pc, #436]	; (800a544 <main+0x72c>)
 800a390:	4648      	mov	r0, r9
 800a392:	e9c9 2401 	strd	r2, r4, [r9, #4]
 800a396:	220c      	movs	r2, #12
 800a398:	f8c9 3000 	str.w	r3, [r9]
 800a39c:	e9c9 2405 	strd	r2, r4, [r9, #20]
 800a3a0:	e9c9 4403 	strd	r4, r4, [r9, #12]
 800a3a4:	e9c9 4407 	strd	r4, r4, [r9, #28]
 800a3a8:	e9c9 4409 	strd	r4, r4, [r9, #36]	; 0x24
 800a3ac:	f7fc ff10 	bl	80071d0 <HAL_UART_Init>
 800a3b0:	4621      	mov	r1, r4
 800a3b2:	4648      	mov	r0, r9
 800a3b4:	f7fd f81e 	bl	80073f4 <HAL_UARTEx_SetTxFifoThreshold>
 800a3b8:	4621      	mov	r1, r4
 800a3ba:	4648      	mov	r0, r9
 800a3bc:	f7fd f858 	bl	8007470 <HAL_UARTEx_SetRxFifoThreshold>
 800a3c0:	4648      	mov	r0, r9
 800a3c2:	f7fc fff9 	bl	80073b8 <HAL_UARTEx_DisableFifoMode>
 800a3c6:	f04f 4380 	mov.w	r3, #1073741824	; 0x40000000
 800a3ca:	2264      	movs	r2, #100	; 0x64
 800a3cc:	2150      	movs	r1, #80	; 0x50
 800a3ce:	f8cb 3000 	str.w	r3, [fp]
 800a3d2:	2380      	movs	r3, #128	; 0x80
 800a3d4:	4658      	mov	r0, fp
 800a3d6:	f8cb 200c 	str.w	r2, [fp, #12]
 800a3da:	f8cb 3018 	str.w	r3, [fp, #24]
 800a3de:	f04f 0960 	mov.w	r9, #96	; 0x60
 800a3e2:	f8cb 1004 	str.w	r1, [fp, #4]
 800a3e6:	940e      	str	r4, [sp, #56]	; 0x38
 800a3e8:	9418      	str	r4, [sp, #96]	; 0x60
 800a3ea:	f8cb 4008 	str.w	r4, [fp, #8]
 800a3ee:	f8cb 4010 	str.w	r4, [fp, #16]
 800a3f2:	e9cd 4412 	strd	r4, r4, [sp, #72]	; 0x48
 800a3f6:	e9cd 4414 	strd	r4, r4, [sp, #80]	; 0x50
 800a3fa:	e9cd 4416 	strd	r4, r4, [sp, #88]	; 0x58
 800a3fe:	e9cd 440f 	strd	r4, r4, [sp, #60]	; 0x3c
 800a402:	f7fb fbb7 	bl	8005b74 <HAL_TIM_PWM_Init>
 800a406:	a90e      	add	r1, sp, #56	; 0x38
 800a408:	4658      	mov	r0, fp
 800a40a:	940e      	str	r4, [sp, #56]	; 0x38
 800a40c:	9410      	str	r4, [sp, #64]	; 0x40
 800a40e:	f7fb ffff 	bl	8006410 <HAL_TIMEx_MasterConfigSynchronization>
 800a412:	2304      	movs	r3, #4
 800a414:	a912      	add	r1, sp, #72	; 0x48
 800a416:	4622      	mov	r2, r4
 800a418:	4658      	mov	r0, fp
 800a41a:	9316      	str	r3, [sp, #88]	; 0x58
 800a41c:	9414      	str	r4, [sp, #80]	; 0x50
 800a41e:	e9cd 9a12 	strd	r9, sl, [sp, #72]	; 0x48
 800a422:	f7fb fecd 	bl	80061c0 <HAL_TIM_PWM_ConfigChannel>
 800a426:	4658      	mov	r0, fp
 800a428:	f000 fbee 	bl	800ac08 <HAL_TIM_MspPostInit>
 800a42c:	2304      	movs	r3, #4
 800a42e:	4a46      	ldr	r2, [pc, #280]	; (800a548 <main+0x730>)
 800a430:	4628      	mov	r0, r5
 800a432:	612b      	str	r3, [r5, #16]
 800a434:	f44f 13e0 	mov.w	r3, #1835008	; 0x1c0000
 800a438:	82ac      	strh	r4, [r5, #20]
 800a43a:	f04f 0960 	mov.w	r9, #96	; 0x60
 800a43e:	606b      	str	r3, [r5, #4]
 800a440:	2301      	movs	r3, #1
 800a442:	602a      	str	r2, [r5, #0]
 800a444:	f04f 0a00 	mov.w	sl, #0
 800a448:	61ab      	str	r3, [r5, #24]
 800a44a:	62eb      	str	r3, [r5, #44]	; 0x2c
 800a44c:	772c      	strb	r4, [r5, #28]
 800a44e:	f885 4038 	strb.w	r4, [r5, #56]	; 0x38
 800a452:	9410      	str	r4, [sp, #64]	; 0x40
 800a454:	9418      	str	r4, [sp, #96]	; 0x60
 800a456:	e9c5 4402 	strd	r4, r4, [r5, #8]
 800a45a:	e9c5 4409 	strd	r4, r4, [r5, #36]	; 0x24
 800a45e:	e9c5 440c 	strd	r4, r4, [r5, #48]	; 0x30
 800a462:	e9cd 440e 	strd	r4, r4, [sp, #56]	; 0x38
 800a466:	e9cd 4412 	strd	r4, r4, [sp, #72]	; 0x48
 800a46a:	e9cd 4414 	strd	r4, r4, [sp, #80]	; 0x50
 800a46e:	e9cd 4416 	strd	r4, r4, [sp, #88]	; 0x58
 800a472:	f7f6 fd2f 	bl	8000ed4 <HAL_ADC_Init>
 800a476:	a90e      	add	r1, sp, #56	; 0x38
 800a478:	4628      	mov	r0, r5
 800a47a:	940e      	str	r4, [sp, #56]	; 0x38
 800a47c:	f7f6 fe40 	bl	8001100 <HAL_ADCEx_MultiModeConfigChannel>
 800a480:	4a32      	ldr	r2, [pc, #200]	; (800a54c <main+0x734>)
 800a482:	2306      	movs	r3, #6
 800a484:	4628      	mov	r0, r5
 800a486:	a912      	add	r1, sp, #72	; 0x48
 800a488:	f88d 4061 	strb.w	r4, [sp, #97]	; 0x61
 800a48c:	4d30      	ldr	r5, [pc, #192]	; (800a550 <main+0x738>)
 800a48e:	e9cd 2312 	strd	r2, r3, [sp, #72]	; 0x48
 800a492:	2203      	movs	r2, #3
 800a494:	f240 73ff 	movw	r3, #2047	; 0x7ff
 800a498:	e9cd 2314 	strd	r2, r3, [sp, #80]	; 0x50
 800a49c:	2204      	movs	r2, #4
 800a49e:	2300      	movs	r3, #0
 800a4a0:	e9cd 2316 	strd	r2, r3, [sp, #88]	; 0x58
 800a4a4:	f7f6 fa22 	bl	80008ec <HAL_ADC_ConfigChannel>
 800a4a8:	4b2a      	ldr	r3, [pc, #168]	; (800a554 <main+0x73c>)
 800a4aa:	4a2b      	ldr	r2, [pc, #172]	; (800a558 <main+0x740>)
 800a4ac:	f64f 71ff 	movw	r1, #65535	; 0xffff
 800a4b0:	4618      	mov	r0, r3
 800a4b2:	609c      	str	r4, [r3, #8]
 800a4b4:	60d9      	str	r1, [r3, #12]
 800a4b6:	611c      	str	r4, [r3, #16]
 800a4b8:	619c      	str	r4, [r3, #24]
 800a4ba:	9418      	str	r4, [sp, #96]	; 0x60
 800a4bc:	e9c3 2400 	strd	r2, r4, [r3]
 800a4c0:	e9cd 440e 	strd	r4, r4, [sp, #56]	; 0x38
 800a4c4:	e9cd 4410 	strd	r4, r4, [sp, #64]	; 0x40
 800a4c8:	e9cd 4412 	strd	r4, r4, [sp, #72]	; 0x48
 800a4cc:	e9cd 4414 	strd	r4, r4, [sp, #80]	; 0x50
 800a4d0:	e9cd 4416 	strd	r4, r4, [sp, #88]	; 0x58
 800a4d4:	f7fb fa44 	bl	8005960 <HAL_TIM_Base_Init>
 800a4d8:	4b1e      	ldr	r3, [pc, #120]	; (800a554 <main+0x73c>)
 800a4da:	a90e      	add	r1, sp, #56	; 0x38
 800a4dc:	4618      	mov	r0, r3
 800a4de:	f44f 5380 	mov.w	r3, #4096	; 0x1000
 800a4e2:	930e      	str	r3, [sp, #56]	; 0x38
 800a4e4:	f7fb fc9c 	bl	8005e20 <HAL_TIM_ConfigClockSource>
 800a4e8:	4b1a      	ldr	r3, [pc, #104]	; (800a554 <main+0x73c>)
 800a4ea:	4618      	mov	r0, r3
 800a4ec:	f7fb fb42 	bl	8005b74 <HAL_TIM_PWM_Init>
 800a4f0:	4b18      	ldr	r3, [pc, #96]	; (800a554 <main+0x73c>)
 800a4f2:	4622      	mov	r2, r4
 800a4f4:	a912      	add	r1, sp, #72	; 0x48
 800a4f6:	4618      	mov	r0, r3
 800a4f8:	9414      	str	r4, [sp, #80]	; 0x50
 800a4fa:	9416      	str	r4, [sp, #88]	; 0x58
 800a4fc:	e9cd 9a12 	strd	r9, sl, [sp, #72]	; 0x48
 800a500:	f7fb fe5e 	bl	80061c0 <HAL_TIM_PWM_ConfigChannel>
 800a504:	4b13      	ldr	r3, [pc, #76]	; (800a554 <main+0x73c>)
 800a506:	2204      	movs	r2, #4
 800a508:	a912      	add	r1, sp, #72	; 0x48
 800a50a:	4618      	mov	r0, r3
 800a50c:	f8df 904c 	ldr.w	r9, [pc, #76]	; 800a55c <main+0x744>
 800a510:	f7fb fe56 	bl	80061c0 <HAL_TIM_PWM_ConfigChannel>
 800a514:	e024      	b.n	800a560 <main+0x748>
 800a516:	bf00      	nop
 800a518:	58020000 	.word	0x58020000
 800a51c:	58020c00 	.word	0x58020c00
 800a520:	58021800 	.word	0x58021800
 800a524:	58020400 	.word	0x58020400
 800a528:	24027730 	.word	0x24027730
 800a52c:	40004c00 	.word	0x40004c00
 800a530:	0007a120 	.word	0x0007a120
 800a534:	24027924 	.word	0x24027924
 800a538:	58004000 	.word	0x58004000
 800a53c:	240274b8 	.word	0x240274b8
 800a540:	40003800 	.word	0x40003800
 800a544:	40004400 	.word	0x40004400
 800a548:	40022000 	.word	0x40022000
 800a54c:	08600004 	.word	0x08600004
 800a550:	24027948 	.word	0x24027948
 800a554:	24027cb8 	.word	0x24027cb8
 800a558:	40001800 	.word	0x40001800
 800a55c:	24027794 	.word	0x24027794
 800a560:	4b7f      	ldr	r3, [pc, #508]	; (800a760 <main+0x948>)
 800a562:	4618      	mov	r0, r3
 800a564:	f000 fb50 	bl	800ac08 <HAL_TIM_MspPostInit>
 800a568:	4b7e      	ldr	r3, [pc, #504]	; (800a764 <main+0x94c>)
 800a56a:	f64f 71ff 	movw	r1, #65535	; 0xffff
 800a56e:	4628      	mov	r0, r5
 800a570:	602b      	str	r3, [r5, #0]
 800a572:	60e9      	str	r1, [r5, #12]
 800a574:	61ac      	str	r4, [r5, #24]
 800a576:	9410      	str	r4, [sp, #64]	; 0x40
 800a578:	e9c5 4401 	strd	r4, r4, [r5, #4]
 800a57c:	e9c5 4404 	strd	r4, r4, [r5, #16]
 800a580:	e9cd 4412 	strd	r4, r4, [sp, #72]	; 0x48
 800a584:	e9cd 4414 	strd	r4, r4, [sp, #80]	; 0x50
 800a588:	e9cd 440e 	strd	r4, r4, [sp, #56]	; 0x38
 800a58c:	f7fb f9e8 	bl	8005960 <HAL_TIM_Base_Init>
 800a590:	f44f 5380 	mov.w	r3, #4096	; 0x1000
 800a594:	a912      	add	r1, sp, #72	; 0x48
 800a596:	4628      	mov	r0, r5
 800a598:	9312      	str	r3, [sp, #72]	; 0x48
 800a59a:	f7fb fc41 	bl	8005e20 <HAL_TIM_ConfigClockSource>
 800a59e:	a90e      	add	r1, sp, #56	; 0x38
 800a5a0:	4628      	mov	r0, r5
 800a5a2:	9410      	str	r4, [sp, #64]	; 0x40
 800a5a4:	4d70      	ldr	r5, [pc, #448]	; (800a768 <main+0x950>)
 800a5a6:	e9cd 670e 	strd	r6, r7, [sp, #56]	; 0x38
 800a5aa:	f7fb ff31 	bl	8006410 <HAL_TIMEx_MasterConfigSynchronization>
 800a5ae:	f44f 13e0 	mov.w	r3, #1835008	; 0x1c0000
 800a5b2:	4a6e      	ldr	r2, [pc, #440]	; (800a76c <main+0x954>)
 800a5b4:	2706      	movs	r7, #6
 800a5b6:	4e6e      	ldr	r6, [pc, #440]	; (800a770 <main+0x958>)
 800a5b8:	4648      	mov	r0, r9
 800a5ba:	f8a9 4014 	strh.w	r4, [r9, #20]
 800a5be:	f8c9 2000 	str.w	r2, [r9]
 800a5c2:	f8c9 400c 	str.w	r4, [r9, #12]
 800a5c6:	f889 401c 	strb.w	r4, [r9, #28]
 800a5ca:	f8c9 4034 	str.w	r4, [r9, #52]	; 0x34
 800a5ce:	f889 4038 	strb.w	r4, [r9, #56]	; 0x38
 800a5d2:	9418      	str	r4, [sp, #96]	; 0x60
 800a5d4:	e9c9 3401 	strd	r3, r4, [r9, #4]
 800a5d8:	2304      	movs	r3, #4
 800a5da:	f8c9 3010 	str.w	r3, [r9, #16]
 800a5de:	2301      	movs	r3, #1
 800a5e0:	e9c9 4409 	strd	r4, r4, [r9, #36]	; 0x24
 800a5e4:	f8c9 3018 	str.w	r3, [r9, #24]
 800a5e8:	e9c9 440b 	strd	r4, r4, [r9, #44]	; 0x2c
 800a5ec:	e9cd 4412 	strd	r4, r4, [sp, #72]	; 0x48
 800a5f0:	e9cd 4414 	strd	r4, r4, [sp, #80]	; 0x50
 800a5f4:	e9cd 4416 	strd	r4, r4, [sp, #88]	; 0x58
 800a5f8:	f7f6 fc6c 	bl	8000ed4 <HAL_ADC_Init>
 800a5fc:	2204      	movs	r2, #4
 800a5fe:	2300      	movs	r3, #0
 800a600:	4648      	mov	r0, r9
 800a602:	a912      	add	r1, sp, #72	; 0x48
 800a604:	4691      	mov	r9, r2
 800a606:	469a      	mov	sl, r3
 800a608:	f88d 4061 	strb.w	r4, [sp, #97]	; 0x61
 800a60c:	e9cd 6712 	strd	r6, r7, [sp, #72]	; 0x48
 800a610:	2600      	movs	r6, #0
 800a612:	f240 77ff 	movw	r7, #2047	; 0x7ff
 800a616:	e9cd 2316 	strd	r2, r3, [sp, #88]	; 0x58
 800a61a:	e9cd 6714 	strd	r6, r7, [sp, #80]	; 0x50
 800a61e:	f7f6 f965 	bl	80008ec <HAL_ADC_ConfigChannel>
 800a622:	2380      	movs	r3, #128	; 0x80
 800a624:	4953      	ldr	r1, [pc, #332]	; (800a774 <main+0x95c>)
 800a626:	2220      	movs	r2, #32
 800a628:	61ab      	str	r3, [r5, #24]
 800a62a:	2301      	movs	r3, #1
 800a62c:	4628      	mov	r0, r5
 800a62e:	80ac      	strh	r4, [r5, #4]
 800a630:	622b      	str	r3, [r5, #32]
 800a632:	6029      	str	r1, [r5, #0]
 800a634:	616a      	str	r2, [r5, #20]
 800a636:	f7f6 fe69 	bl	800130c <HAL_CRC_Init>
 800a63a:	4b4f      	ldr	r3, [pc, #316]	; (800a778 <main+0x960>)
 800a63c:	f44f 11e0 	mov.w	r1, #1835008	; 0x1c0000
 800a640:	4a4e      	ldr	r2, [pc, #312]	; (800a77c <main+0x964>)
 800a642:	6059      	str	r1, [r3, #4]
 800a644:	2104      	movs	r1, #4
 800a646:	4618      	mov	r0, r3
 800a648:	829c      	strh	r4, [r3, #20]
 800a64a:	6119      	str	r1, [r3, #16]
 800a64c:	2101      	movs	r1, #1
 800a64e:	601a      	str	r2, [r3, #0]
 800a650:	6199      	str	r1, [r3, #24]
 800a652:	62d9      	str	r1, [r3, #44]	; 0x2c
 800a654:	771c      	strb	r4, [r3, #28]
 800a656:	f883 4038 	strb.w	r4, [r3, #56]	; 0x38
 800a65a:	9418      	str	r4, [sp, #96]	; 0x60
 800a65c:	e9c3 4402 	strd	r4, r4, [r3, #8]
 800a660:	e9c3 4409 	strd	r4, r4, [r3, #36]	; 0x24
 800a664:	e9c3 440c 	strd	r4, r4, [r3, #48]	; 0x30
 800a668:	e9cd 4412 	strd	r4, r4, [sp, #72]	; 0x48
 800a66c:	e9cd 4414 	strd	r4, r4, [sp, #80]	; 0x50
 800a670:	e9cd 4416 	strd	r4, r4, [sp, #88]	; 0x58
 800a674:	f7f6 fc2e 	bl	8000ed4 <HAL_ADC_Init>
 800a678:	4b3f      	ldr	r3, [pc, #252]	; (800a778 <main+0x960>)
 800a67a:	a912      	add	r1, sp, #72	; 0x48
 800a67c:	f88d 4061 	strb.w	r4, [sp, #97]	; 0x61
 800a680:	4618      	mov	r0, r3
 800a682:	e9cd 6714 	strd	r6, r7, [sp, #80]	; 0x50
 800a686:	a334      	add	r3, pc, #208	; (adr r3, 800a758 <main+0x940>)
 800a688:	e9d3 2300 	ldrd	r2, r3, [r3]
 800a68c:	464e      	mov	r6, r9
 800a68e:	4657      	mov	r7, sl
 800a690:	e9cd 2312 	strd	r2, r3, [sp, #72]	; 0x48
 800a694:	e9cd 6716 	strd	r6, r7, [sp, #88]	; 0x58
 800a698:	f7f6 f928 	bl	80008ec <HAL_ADC_ConfigChannel>
 800a69c:	2201      	movs	r2, #1
 800a69e:	f44f 5100 	mov.w	r1, #8192	; 0x2000
 800a6a2:	4837      	ldr	r0, [pc, #220]	; (800a780 <main+0x968>)
 800a6a4:	f7f8 fad4 	bl	8002c50 <HAL_GPIO_WritePin>
 800a6a8:	4622      	mov	r2, r4
 800a6aa:	2104      	movs	r1, #4
 800a6ac:	4835      	ldr	r0, [pc, #212]	; (800a784 <main+0x96c>)
 800a6ae:	f7f8 facf 	bl	8002c50 <HAL_GPIO_WritePin>
 800a6b2:	4622      	mov	r2, r4
 800a6b4:	f44f 7100 	mov.w	r1, #512	; 0x200
 800a6b8:	4831      	ldr	r0, [pc, #196]	; (800a780 <main+0x968>)
 800a6ba:	f7f8 fac9 	bl	8002c50 <HAL_GPIO_WritePin>
 800a6be:	4622      	mov	r2, r4
 800a6c0:	2108      	movs	r1, #8
 800a6c2:	4831      	ldr	r0, [pc, #196]	; (800a788 <main+0x970>)
 800a6c4:	f7f8 fac4 	bl	8002c50 <HAL_GPIO_WritePin>
 800a6c8:	2201      	movs	r2, #1
 800a6ca:	f44f 4180 	mov.w	r1, #16384	; 0x4000
 800a6ce:	482c      	ldr	r0, [pc, #176]	; (800a780 <main+0x968>)
 800a6d0:	f7f8 fabe 	bl	8002c50 <HAL_GPIO_WritePin>
 800a6d4:	4621      	mov	r1, r4
 800a6d6:	4658      	mov	r0, fp
 800a6d8:	4e2c      	ldr	r6, [pc, #176]	; (800a78c <main+0x974>)
 800a6da:	f7fb faf9 	bl	8005cd0 <HAL_TIM_PWM_Start>
 800a6de:	2001      	movs	r0, #1
 800a6e0:	f7fd f964 	bl	80079ac <xQueueCreateMutex>
 800a6e4:	4623      	mov	r3, r4
 800a6e6:	4622      	mov	r2, r4
 800a6e8:	4621      	mov	r1, r4
 800a6ea:	6030      	str	r0, [r6, #0]
 800a6ec:	f7fc ffd6 	bl	800769c <xQueueGenericSend>
 800a6f0:	4640      	mov	r0, r8
 800a6f2:	f000 ff91 	bl	800b618 <B_uartStart>
 800a6f6:	4926      	ldr	r1, [pc, #152]	; (800a790 <main+0x978>)
 800a6f8:	4602      	mov	r2, r0
 800a6fa:	9500      	str	r5, [sp, #0]
 800a6fc:	2301      	movs	r3, #1
 800a6fe:	2002      	movs	r0, #2
 800a700:	600a      	str	r2, [r1, #0]
 800a702:	f000 fd27 	bl	800b154 <B_tcpStart>
 800a706:	4d23      	ldr	r5, [pc, #140]	; (800a794 <main+0x97c>)
 800a708:	4606      	mov	r6, r0
 800a70a:	4623      	mov	r3, r4
 800a70c:	f44f 6280 	mov.w	r2, #1024	; 0x400
 800a710:	4921      	ldr	r1, [pc, #132]	; (800a798 <main+0x980>)
 800a712:	ed8d 8a00 	vstr	s16, [sp]
 800a716:	9401      	str	r4, [sp, #4]
 800a718:	4820      	ldr	r0, [pc, #128]	; (800a79c <main+0x984>)
 800a71a:	602e      	str	r6, [r5, #0]
 800a71c:	f7fd ff3a 	bl	8008594 <xTaskCreate>
 800a720:	2103      	movs	r1, #3
 800a722:	4b1f      	ldr	r3, [pc, #124]	; (800a7a0 <main+0x988>)
 800a724:	f44f 6280 	mov.w	r2, #1024	; 0x400
 800a728:	9401      	str	r4, [sp, #4]
 800a72a:	481e      	ldr	r0, [pc, #120]	; (800a7a4 <main+0x98c>)
 800a72c:	681b      	ldr	r3, [r3, #0]
 800a72e:	9100      	str	r1, [sp, #0]
 800a730:	491d      	ldr	r1, [pc, #116]	; (800a7a8 <main+0x990>)
 800a732:	f7fd ff2f 	bl	8008594 <xTaskCreate>
 800a736:	4622      	mov	r2, r4
 800a738:	2101      	movs	r1, #1
 800a73a:	200a      	movs	r0, #10
 800a73c:	f7fc ff72 	bl	8007624 <xQueueGenericCreate>
 800a740:	4b1a      	ldr	r3, [pc, #104]	; (800a7ac <main+0x994>)
 800a742:	4602      	mov	r2, r0
 800a744:	4621      	mov	r1, r4
 800a746:	4658      	mov	r0, fp
 800a748:	601a      	str	r2, [r3, #0]
 800a74a:	f7fb fac1 	bl	8005cd0 <HAL_TIM_PWM_Start>
 800a74e:	f7fc fecd 	bl	80074ec <osKernelStart>
 800a752:	e7fe      	b.n	800a752 <main+0x93a>
 800a754:	f3af 8000 	nop.w
 800a758:	14f00020 	.word	0x14f00020
 800a75c:	00000006 	.word	0x00000006
 800a760:	24027cb8 	.word	0x24027cb8
 800a764:	40010000 	.word	0x40010000
 800a768:	240275f0 	.word	0x240275f0
 800a76c:	58026000 	.word	0x58026000
 800a770:	c7520000 	.word	0xc7520000
 800a774:	58024c00 	.word	0x58024c00
 800a778:	2402758c 	.word	0x2402758c
 800a77c:	40022100 	.word	0x40022100
 800a780:	58022000 	.word	0x58022000
 800a784:	58021400 	.word	0x58021400
 800a788:	58021000 	.word	0x58021000
 800a78c:	240273c0 	.word	0x240273c0
 800a790:	24027ca0 	.word	0x24027ca0
 800a794:	240278a8 	.word	0x240278a8
 800a798:	0800ba48 	.word	0x0800ba48
 800a79c:	08009c3d 	.word	0x08009c3d
 800a7a0:	2402772c 	.word	0x2402772c
 800a7a4:	08009b21 	.word	0x08009b21
 800a7a8:	0800ba58 	.word	0x0800ba58
 800a7ac:	24027d04 	.word	0x24027d04

0800a7b0 <serialParse>:
 800a7b0:	7803      	ldrb	r3, [r0, #0]
 800a7b2:	2b04      	cmp	r3, #4
 800a7b4:	d000      	beq.n	800a7b8 <serialParse+0x8>
 800a7b6:	4770      	bx	lr
 800a7b8:	6841      	ldr	r1, [r0, #4]
 800a7ba:	b510      	push	{r4, lr}
 800a7bc:	790b      	ldrb	r3, [r1, #4]
 800a7be:	4604      	mov	r4, r0
 800a7c0:	2b02      	cmp	r3, #2
 800a7c2:	d01b      	beq.n	800a7fc <serialParse+0x4c>
 800a7c4:	2b03      	cmp	r3, #3
 800a7c6:	d000      	beq.n	800a7ca <serialParse+0x1a>
 800a7c8:	bd10      	pop	{r4, pc}
 800a7ca:	794a      	ldrb	r2, [r1, #5]
 800a7cc:	b9fa      	cbnz	r2, 800a80e <serialParse+0x5e>
 800a7ce:	2101      	movs	r1, #1
 800a7d0:	4818      	ldr	r0, [pc, #96]	; (800a834 <serialParse+0x84>)
 800a7d2:	f7f8 fa3d 	bl	8002c50 <HAL_GPIO_WritePin>
 800a7d6:	6863      	ldr	r3, [r4, #4]
 800a7d8:	799a      	ldrb	r2, [r3, #6]
 800a7da:	b32a      	cbz	r2, 800a828 <serialParse+0x78>
 800a7dc:	2201      	movs	r2, #1
 800a7de:	2102      	movs	r1, #2
 800a7e0:	4814      	ldr	r0, [pc, #80]	; (800a834 <serialParse+0x84>)
 800a7e2:	f7f8 fa35 	bl	8002c50 <HAL_GPIO_WritePin>
 800a7e6:	6863      	ldr	r3, [r4, #4]
 800a7e8:	79da      	ldrb	r2, [r3, #7]
 800a7ea:	b1b2      	cbz	r2, 800a81a <serialParse+0x6a>
 800a7ec:	2201      	movs	r2, #1
 800a7ee:	f44f 4100 	mov.w	r1, #32768	; 0x8000
 800a7f2:	4811      	ldr	r0, [pc, #68]	; (800a838 <serialParse+0x88>)
 800a7f4:	e8bd 4010 	ldmia.w	sp!, {r4, lr}
 800a7f8:	f7f8 ba2a 	b.w	8002c50 <HAL_GPIO_WritePin>
 800a7fc:	4a0f      	ldr	r2, [pc, #60]	; (800a83c <serialParse+0x8c>)
 800a7fe:	2300      	movs	r3, #0
 800a800:	3105      	adds	r1, #5
 800a802:	6810      	ldr	r0, [r2, #0]
 800a804:	461a      	mov	r2, r3
 800a806:	e8bd 4010 	ldmia.w	sp!, {r4, lr}
 800a80a:	f7fc bf47 	b.w	800769c <xQueueGenericSend>
 800a80e:	2201      	movs	r2, #1
 800a810:	4808      	ldr	r0, [pc, #32]	; (800a834 <serialParse+0x84>)
 800a812:	4611      	mov	r1, r2
 800a814:	f7f8 fa1c 	bl	8002c50 <HAL_GPIO_WritePin>
 800a818:	e7dd      	b.n	800a7d6 <serialParse+0x26>
 800a81a:	f44f 4100 	mov.w	r1, #32768	; 0x8000
 800a81e:	4806      	ldr	r0, [pc, #24]	; (800a838 <serialParse+0x88>)
 800a820:	e8bd 4010 	ldmia.w	sp!, {r4, lr}
 800a824:	f7f8 ba14 	b.w	8002c50 <HAL_GPIO_WritePin>
 800a828:	2102      	movs	r1, #2
 800a82a:	4802      	ldr	r0, [pc, #8]	; (800a834 <serialParse+0x84>)
 800a82c:	f7f8 fa10 	bl	8002c50 <HAL_GPIO_WritePin>
 800a830:	e7d9      	b.n	800a7e6 <serialParse+0x36>
 800a832:	bf00      	nop
 800a834:	58021800 	.word	0x58021800
 800a838:	58022000 	.word	0x58022000
 800a83c:	24027d04 	.word	0x24027d04

0800a840 <HAL_TIM_PeriodElapsedCallback>:
 800a840:	4b03      	ldr	r3, [pc, #12]	; (800a850 <HAL_TIM_PeriodElapsedCallback+0x10>)
 800a842:	6802      	ldr	r2, [r0, #0]
 800a844:	429a      	cmp	r2, r3
 800a846:	d000      	beq.n	800a84a <HAL_TIM_PeriodElapsedCallback+0xa>
 800a848:	4770      	bx	lr
 800a84a:	f7f5 bef5 	b.w	8000638 <HAL_IncTick>
 800a84e:	bf00      	nop
 800a850:	40001000 	.word	0x40001000

0800a854 <Error_Handler>:
 800a854:	4770      	bx	lr
 800a856:	bf00      	nop

0800a858 <HAL_MspInit>:
 800a858:	4b0b      	ldr	r3, [pc, #44]	; (800a888 <HAL_MspInit+0x30>)
 800a85a:	2200      	movs	r2, #0
 800a85c:	210f      	movs	r1, #15
 800a85e:	f06f 0001 	mvn.w	r0, #1
 800a862:	b410      	push	{r4}
 800a864:	f8d3 40f4 	ldr.w	r4, [r3, #244]	; 0xf4
 800a868:	b083      	sub	sp, #12
 800a86a:	f044 0402 	orr.w	r4, r4, #2
 800a86e:	f8c3 40f4 	str.w	r4, [r3, #244]	; 0xf4
 800a872:	f8d3 30f4 	ldr.w	r3, [r3, #244]	; 0xf4
 800a876:	f003 0302 	and.w	r3, r3, #2
 800a87a:	9301      	str	r3, [sp, #4]
 800a87c:	9b01      	ldr	r3, [sp, #4]
 800a87e:	b003      	add	sp, #12
 800a880:	f85d 4b04 	ldr.w	r4, [sp], #4
 800a884:	f7f6 bcb8 	b.w	80011f8 <HAL_NVIC_SetPriority>
 800a888:	58024400 	.word	0x58024400

0800a88c <HAL_ADC_MspInit>:
 800a88c:	4962      	ldr	r1, [pc, #392]	; (800aa18 <HAL_ADC_MspInit+0x18c>)
 800a88e:	2300      	movs	r3, #0
 800a890:	6802      	ldr	r2, [r0, #0]
 800a892:	e92d 43f0 	stmdb	sp!, {r4, r5, r6, r7, r8, r9, lr}
 800a896:	428a      	cmp	r2, r1
 800a898:	b08d      	sub	sp, #52	; 0x34
 800a89a:	4604      	mov	r4, r0
 800a89c:	9307      	str	r3, [sp, #28]
 800a89e:	9306      	str	r3, [sp, #24]
 800a8a0:	930a      	str	r3, [sp, #40]	; 0x28
 800a8a2:	e9cd 3308 	strd	r3, r3, [sp, #32]
 800a8a6:	d04e      	beq.n	800a946 <HAL_ADC_MspInit+0xba>
 800a8a8:	4b5c      	ldr	r3, [pc, #368]	; (800aa1c <HAL_ADC_MspInit+0x190>)
 800a8aa:	429a      	cmp	r2, r3
 800a8ac:	d006      	beq.n	800a8bc <HAL_ADC_MspInit+0x30>
 800a8ae:	4b5c      	ldr	r3, [pc, #368]	; (800aa20 <HAL_ADC_MspInit+0x194>)
 800a8b0:	429a      	cmp	r2, r3
 800a8b2:	f000 80a0 	beq.w	800a9f6 <HAL_ADC_MspInit+0x16a>
 800a8b6:	b00d      	add	sp, #52	; 0x34
 800a8b8:	e8bd 83f0 	ldmia.w	sp!, {r4, r5, r6, r7, r8, r9, pc}
 800a8bc:	4a59      	ldr	r2, [pc, #356]	; (800aa24 <HAL_ADC_MspInit+0x198>)
 800a8be:	6813      	ldr	r3, [r2, #0]
 800a8c0:	3301      	adds	r3, #1
 800a8c2:	2b01      	cmp	r3, #1
 800a8c4:	6013      	str	r3, [r2, #0]
 800a8c6:	f000 8085 	beq.w	800a9d4 <HAL_ADC_MspInit+0x148>
 800a8ca:	4b57      	ldr	r3, [pc, #348]	; (800aa28 <HAL_ADC_MspInit+0x19c>)
 800a8cc:	2600      	movs	r6, #0
 800a8ce:	f04f 0802 	mov.w	r8, #2
 800a8d2:	f04f 0903 	mov.w	r9, #3
 800a8d6:	f8d3 20e0 	ldr.w	r2, [r3, #224]	; 0xe0
 800a8da:	a906      	add	r1, sp, #24
 800a8dc:	4853      	ldr	r0, [pc, #332]	; (800aa2c <HAL_ADC_MspInit+0x1a0>)
 800a8de:	270a      	movs	r7, #10
 800a8e0:	f042 0202 	orr.w	r2, r2, #2
 800a8e4:	4d52      	ldr	r5, [pc, #328]	; (800aa30 <HAL_ADC_MspInit+0x1a4>)
 800a8e6:	f8c3 20e0 	str.w	r2, [r3, #224]	; 0xe0
 800a8ea:	f8d3 30e0 	ldr.w	r3, [r3, #224]	; 0xe0
 800a8ee:	9608      	str	r6, [sp, #32]
 800a8f0:	f003 0302 	and.w	r3, r3, #2
 800a8f4:	9304      	str	r3, [sp, #16]
 800a8f6:	9b04      	ldr	r3, [sp, #16]
 800a8f8:	e9cd 8906 	strd	r8, r9, [sp, #24]
 800a8fc:	f7f8 f86e 	bl	80029dc <HAL_GPIO_Init>
 800a900:	484c      	ldr	r0, [pc, #304]	; (800aa34 <HAL_ADC_MspInit+0x1a8>)
 800a902:	f44f 6180 	mov.w	r1, #1024	; 0x400
 800a906:	f44f 6200 	mov.w	r2, #2048	; 0x800
 800a90a:	f44f 5300 	mov.w	r3, #8192	; 0x2000
 800a90e:	6028      	str	r0, [r5, #0]
 800a910:	60ae      	str	r6, [r5, #8]
 800a912:	4628      	mov	r0, r5
 800a914:	60ee      	str	r6, [r5, #12]
 800a916:	626e      	str	r6, [r5, #36]	; 0x24
 800a918:	606f      	str	r7, [r5, #4]
 800a91a:	61ab      	str	r3, [r5, #24]
 800a91c:	e9c5 6607 	strd	r6, r6, [r5, #28]
 800a920:	e9c5 1204 	strd	r1, r2, [r5, #16]
 800a924:	f7f6 fe8a 	bl	800163c <HAL_DMA_Init>
 800a928:	2800      	cmp	r0, #0
 800a92a:	d161      	bne.n	800a9f0 <HAL_ADC_MspInit+0x164>
 800a92c:	2200      	movs	r2, #0
 800a92e:	2105      	movs	r1, #5
 800a930:	64e5      	str	r5, [r4, #76]	; 0x4c
 800a932:	2012      	movs	r0, #18
 800a934:	63ac      	str	r4, [r5, #56]	; 0x38
 800a936:	f7f6 fc5f 	bl	80011f8 <HAL_NVIC_SetPriority>
 800a93a:	2012      	movs	r0, #18
 800a93c:	f7f6 fc96 	bl	800126c <HAL_NVIC_EnableIRQ>
 800a940:	b00d      	add	sp, #52	; 0x34
 800a942:	e8bd 83f0 	ldmia.w	sp!, {r4, r5, r6, r7, r8, r9, pc}
 800a946:	4a37      	ldr	r2, [pc, #220]	; (800aa24 <HAL_ADC_MspInit+0x198>)
 800a948:	6813      	ldr	r3, [r2, #0]
 800a94a:	3301      	adds	r3, #1
 800a94c:	2b01      	cmp	r3, #1
 800a94e:	6013      	str	r3, [r2, #0]
 800a950:	d032      	beq.n	800a9b8 <HAL_ADC_MspInit+0x12c>
 800a952:	4b35      	ldr	r3, [pc, #212]	; (800aa28 <HAL_ADC_MspInit+0x19c>)
 800a954:	2600      	movs	r6, #0
 800a956:	f04f 0810 	mov.w	r8, #16
 800a95a:	f04f 0903 	mov.w	r9, #3
 800a95e:	f8d3 20e0 	ldr.w	r2, [r3, #224]	; 0xe0
 800a962:	a906      	add	r1, sp, #24
 800a964:	4834      	ldr	r0, [pc, #208]	; (800aa38 <HAL_ADC_MspInit+0x1ac>)
 800a966:	2709      	movs	r7, #9
 800a968:	f042 0204 	orr.w	r2, r2, #4
 800a96c:	4d33      	ldr	r5, [pc, #204]	; (800aa3c <HAL_ADC_MspInit+0x1b0>)
 800a96e:	f8c3 20e0 	str.w	r2, [r3, #224]	; 0xe0
 800a972:	f8d3 20e0 	ldr.w	r2, [r3, #224]	; 0xe0
 800a976:	f002 0204 	and.w	r2, r2, #4
 800a97a:	9201      	str	r2, [sp, #4]
 800a97c:	9a01      	ldr	r2, [sp, #4]
 800a97e:	f8d3 20e0 	ldr.w	r2, [r3, #224]	; 0xe0
 800a982:	f042 0220 	orr.w	r2, r2, #32
 800a986:	f8c3 20e0 	str.w	r2, [r3, #224]	; 0xe0
 800a98a:	f8d3 30e0 	ldr.w	r3, [r3, #224]	; 0xe0
 800a98e:	9608      	str	r6, [sp, #32]
 800a990:	f003 0320 	and.w	r3, r3, #32
 800a994:	9302      	str	r3, [sp, #8]
 800a996:	9b02      	ldr	r3, [sp, #8]
 800a998:	e9cd 8906 	strd	r8, r9, [sp, #24]
 800a99c:	f7f8 f81e 	bl	80029dc <HAL_GPIO_Init>
 800a9a0:	f44f 52c0 	mov.w	r2, #6144	; 0x1800
 800a9a4:	2303      	movs	r3, #3
 800a9a6:	4826      	ldr	r0, [pc, #152]	; (800aa40 <HAL_ADC_MspInit+0x1b4>)
 800a9a8:	a906      	add	r1, sp, #24
 800a9aa:	9608      	str	r6, [sp, #32]
 800a9ac:	e9cd 2306 	strd	r2, r3, [sp, #24]
 800a9b0:	f7f8 f814 	bl	80029dc <HAL_GPIO_Init>
 800a9b4:	4823      	ldr	r0, [pc, #140]	; (800aa44 <HAL_ADC_MspInit+0x1b8>)
 800a9b6:	e7a4      	b.n	800a902 <HAL_ADC_MspInit+0x76>
 800a9b8:	4b1b      	ldr	r3, [pc, #108]	; (800aa28 <HAL_ADC_MspInit+0x19c>)
 800a9ba:	f8d3 20d8 	ldr.w	r2, [r3, #216]	; 0xd8
 800a9be:	f042 0220 	orr.w	r2, r2, #32
 800a9c2:	f8c3 20d8 	str.w	r2, [r3, #216]	; 0xd8
 800a9c6:	f8d3 30d8 	ldr.w	r3, [r3, #216]	; 0xd8
 800a9ca:	f003 0320 	and.w	r3, r3, #32
 800a9ce:	9300      	str	r3, [sp, #0]
 800a9d0:	9b00      	ldr	r3, [sp, #0]
 800a9d2:	e7be      	b.n	800a952 <HAL_ADC_MspInit+0xc6>
 800a9d4:	4b14      	ldr	r3, [pc, #80]	; (800aa28 <HAL_ADC_MspInit+0x19c>)
 800a9d6:	f8d3 20d8 	ldr.w	r2, [r3, #216]	; 0xd8
 800a9da:	f042 0220 	orr.w	r2, r2, #32
 800a9de:	f8c3 20d8 	str.w	r2, [r3, #216]	; 0xd8
 800a9e2:	f8d3 30d8 	ldr.w	r3, [r3, #216]	; 0xd8
 800a9e6:	f003 0320 	and.w	r3, r3, #32
 800a9ea:	9303      	str	r3, [sp, #12]
 800a9ec:	9b03      	ldr	r3, [sp, #12]
 800a9ee:	e76c      	b.n	800a8ca <HAL_ADC_MspInit+0x3e>
 800a9f0:	f7ff ff30 	bl	800a854 <Error_Handler>
 800a9f4:	e79a      	b.n	800a92c <HAL_ADC_MspInit+0xa0>
 800a9f6:	f5a3 53e0 	sub.w	r3, r3, #7168	; 0x1c00
 800a9fa:	f8d3 20e0 	ldr.w	r2, [r3, #224]	; 0xe0
 800a9fe:	f042 7280 	orr.w	r2, r2, #16777216	; 0x1000000
 800aa02:	f8c3 20e0 	str.w	r2, [r3, #224]	; 0xe0
 800aa06:	f8d3 30e0 	ldr.w	r3, [r3, #224]	; 0xe0
 800aa0a:	f003 7380 	and.w	r3, r3, #16777216	; 0x1000000
 800aa0e:	9305      	str	r3, [sp, #20]
 800aa10:	9b05      	ldr	r3, [sp, #20]
 800aa12:	b00d      	add	sp, #52	; 0x34
 800aa14:	e8bd 83f0 	ldmia.w	sp!, {r4, r5, r6, r7, r8, r9, pc}
 800aa18:	40022000 	.word	0x40022000
 800aa1c:	40022100 	.word	0x40022100
 800aa20:	58026000 	.word	0x58026000
 800aa24:	24027354 	.word	0x24027354
 800aa28:	58024400 	.word	0x58024400
 800aa2c:	58020400 	.word	0x58020400
 800aa30:	24027b4c 	.word	0x24027b4c
 800aa34:	40020088 	.word	0x40020088
 800aa38:	58020800 	.word	0x58020800
 800aa3c:	240278ac 	.word	0x240278ac
 800aa40:	58021400 	.word	0x58021400
 800aa44:	40020040 	.word	0x40020040

0800aa48 <HAL_CRC_MspInit>:
 800aa48:	4b0a      	ldr	r3, [pc, #40]	; (800aa74 <HAL_CRC_MspInit+0x2c>)
 800aa4a:	6802      	ldr	r2, [r0, #0]
 800aa4c:	429a      	cmp	r2, r3
 800aa4e:	d000      	beq.n	800aa52 <HAL_CRC_MspInit+0xa>
 800aa50:	4770      	bx	lr
 800aa52:	f5a3 6300 	sub.w	r3, r3, #2048	; 0x800
 800aa56:	b082      	sub	sp, #8
 800aa58:	f8d3 20e0 	ldr.w	r2, [r3, #224]	; 0xe0
 800aa5c:	f442 2200 	orr.w	r2, r2, #524288	; 0x80000
 800aa60:	f8c3 20e0 	str.w	r2, [r3, #224]	; 0xe0
 800aa64:	f8d3 30e0 	ldr.w	r3, [r3, #224]	; 0xe0
 800aa68:	f403 2300 	and.w	r3, r3, #524288	; 0x80000
 800aa6c:	9301      	str	r3, [sp, #4]
 800aa6e:	9b01      	ldr	r3, [sp, #4]
 800aa70:	b002      	add	sp, #8
 800aa72:	4770      	bx	lr
 800aa74:	58024c00 	.word	0x58024c00

0800aa78 <HAL_RTC_MspInit>:
 800aa78:	b510      	push	{r4, lr}
 800aa7a:	b0b0      	sub	sp, #192	; 0xc0
 800aa7c:	4604      	mov	r4, r0
 800aa7e:	22bc      	movs	r2, #188	; 0xbc
 800aa80:	2100      	movs	r1, #0
 800aa82:	a801      	add	r0, sp, #4
 800aa84:	f000 fec8 	bl	800b818 <memset>
 800aa88:	4b0c      	ldr	r3, [pc, #48]	; (800aabc <HAL_RTC_MspInit+0x44>)
 800aa8a:	6822      	ldr	r2, [r4, #0]
 800aa8c:	429a      	cmp	r2, r3
 800aa8e:	d001      	beq.n	800aa94 <HAL_RTC_MspInit+0x1c>
 800aa90:	b030      	add	sp, #192	; 0xc0
 800aa92:	bd10      	pop	{r4, pc}
 800aa94:	f44f 0280 	mov.w	r2, #4194304	; 0x400000
 800aa98:	f44f 7300 	mov.w	r3, #512	; 0x200
 800aa9c:	a801      	add	r0, sp, #4
 800aa9e:	9201      	str	r2, [sp, #4]
 800aaa0:	932d      	str	r3, [sp, #180]	; 0xb4
 800aaa2:	f7f9 f8a7 	bl	8003bf4 <HAL_RCCEx_PeriphCLKConfig>
 800aaa6:	b930      	cbnz	r0, 800aab6 <HAL_RTC_MspInit+0x3e>
 800aaa8:	4a05      	ldr	r2, [pc, #20]	; (800aac0 <HAL_RTC_MspInit+0x48>)
 800aaaa:	6f13      	ldr	r3, [r2, #112]	; 0x70
 800aaac:	f443 4300 	orr.w	r3, r3, #32768	; 0x8000
 800aab0:	6713      	str	r3, [r2, #112]	; 0x70
 800aab2:	b030      	add	sp, #192	; 0xc0
 800aab4:	bd10      	pop	{r4, pc}
 800aab6:	f7ff fecd 	bl	800a854 <Error_Handler>
 800aaba:	e7f5      	b.n	800aaa8 <HAL_RTC_MspInit+0x30>
 800aabc:	58004000 	.word	0x58004000
 800aac0:	58024400 	.word	0x58024400

0800aac4 <HAL_SPI_MspInit>:
 800aac4:	e92d 4370 	stmdb	sp!, {r4, r5, r6, r8, r9, lr}
 800aac8:	2400      	movs	r4, #0
 800aaca:	b0b6      	sub	sp, #216	; 0xd8
 800aacc:	4605      	mov	r5, r0
 800aace:	22bc      	movs	r2, #188	; 0xbc
 800aad0:	4621      	mov	r1, r4
 800aad2:	a807      	add	r0, sp, #28
 800aad4:	9406      	str	r4, [sp, #24]
 800aad6:	e9cd 4402 	strd	r4, r4, [sp, #8]
 800aada:	e9cd 4404 	strd	r4, r4, [sp, #16]
 800aade:	f000 fe9b 	bl	800b818 <memset>
 800aae2:	682a      	ldr	r2, [r5, #0]
 800aae4:	4b22      	ldr	r3, [pc, #136]	; (800ab70 <HAL_SPI_MspInit+0xac>)
 800aae6:	429a      	cmp	r2, r3
 800aae8:	d002      	beq.n	800aaf0 <HAL_SPI_MspInit+0x2c>
 800aaea:	b036      	add	sp, #216	; 0xd8
 800aaec:	e8bd 8370 	ldmia.w	sp!, {r4, r5, r6, r8, r9, pc}
 800aaf0:	f44f 5380 	mov.w	r3, #4096	; 0x1000
 800aaf4:	a807      	add	r0, sp, #28
 800aaf6:	941e      	str	r4, [sp, #120]	; 0x78
 800aaf8:	9307      	str	r3, [sp, #28]
 800aafa:	f7f9 f87b 	bl	8003bf4 <HAL_RCCEx_PeriphCLKConfig>
 800aafe:	bb98      	cbnz	r0, 800ab68 <HAL_SPI_MspInit+0xa4>
 800ab00:	4b1c      	ldr	r3, [pc, #112]	; (800ab74 <HAL_SPI_MspInit+0xb0>)
 800ab02:	2605      	movs	r6, #5
 800ab04:	240e      	movs	r4, #14
 800ab06:	2502      	movs	r5, #2
 800ab08:	f8d3 20e8 	ldr.w	r2, [r3, #232]	; 0xe8
 800ab0c:	f04f 0800 	mov.w	r8, #0
 800ab10:	f04f 0900 	mov.w	r9, #0
 800ab14:	a902      	add	r1, sp, #8
 800ab16:	f442 4280 	orr.w	r2, r2, #16384	; 0x4000
 800ab1a:	4817      	ldr	r0, [pc, #92]	; (800ab78 <HAL_SPI_MspInit+0xb4>)
 800ab1c:	f8c3 20e8 	str.w	r2, [r3, #232]	; 0xe8
 800ab20:	f8d3 20e8 	ldr.w	r2, [r3, #232]	; 0xe8
 800ab24:	f402 4280 	and.w	r2, r2, #16384	; 0x4000
 800ab28:	9200      	str	r2, [sp, #0]
 800ab2a:	9a00      	ldr	r2, [sp, #0]
 800ab2c:	f8d3 20e0 	ldr.w	r2, [r3, #224]	; 0xe0
 800ab30:	f442 7280 	orr.w	r2, r2, #256	; 0x100
 800ab34:	f8c3 20e0 	str.w	r2, [r3, #224]	; 0xe0
 800ab38:	f8d3 30e0 	ldr.w	r3, [r3, #224]	; 0xe0
 800ab3c:	9606      	str	r6, [sp, #24]
 800ab3e:	f403 7380 	and.w	r3, r3, #256	; 0x100
 800ab42:	9301      	str	r3, [sp, #4]
 800ab44:	9b01      	ldr	r3, [sp, #4]
 800ab46:	e9cd 4502 	strd	r4, r5, [sp, #8]
 800ab4a:	e9cd 8904 	strd	r8, r9, [sp, #16]
 800ab4e:	f7f7 ff45 	bl	80029dc <HAL_GPIO_Init>
 800ab52:	4631      	mov	r1, r6
 800ab54:	2200      	movs	r2, #0
 800ab56:	2024      	movs	r0, #36	; 0x24
 800ab58:	f7f6 fb4e 	bl	80011f8 <HAL_NVIC_SetPriority>
 800ab5c:	2024      	movs	r0, #36	; 0x24
 800ab5e:	f7f6 fb85 	bl	800126c <HAL_NVIC_EnableIRQ>
 800ab62:	b036      	add	sp, #216	; 0xd8
 800ab64:	e8bd 8370 	ldmia.w	sp!, {r4, r5, r6, r8, r9, pc}
 800ab68:	f7ff fe74 	bl	800a854 <Error_Handler>
 800ab6c:	e7c8      	b.n	800ab00 <HAL_SPI_MspInit+0x3c>
 800ab6e:	bf00      	nop
 800ab70:	40003800 	.word	0x40003800
 800ab74:	58024400 	.word	0x58024400
 800ab78:	58022000 	.word	0x58022000

0800ab7c <HAL_TIM_Base_MspInit>:
 800ab7c:	4a13      	ldr	r2, [pc, #76]	; (800abcc <HAL_TIM_Base_MspInit+0x50>)
 800ab7e:	b082      	sub	sp, #8
 800ab80:	6803      	ldr	r3, [r0, #0]
 800ab82:	4293      	cmp	r3, r2
 800ab84:	d013      	beq.n	800abae <HAL_TIM_Base_MspInit+0x32>
 800ab86:	4a12      	ldr	r2, [pc, #72]	; (800abd0 <HAL_TIM_Base_MspInit+0x54>)
 800ab88:	4293      	cmp	r3, r2
 800ab8a:	d001      	beq.n	800ab90 <HAL_TIM_Base_MspInit+0x14>
 800ab8c:	b002      	add	sp, #8
 800ab8e:	4770      	bx	lr
 800ab90:	4b10      	ldr	r3, [pc, #64]	; (800abd4 <HAL_TIM_Base_MspInit+0x58>)
 800ab92:	f8d3 20e8 	ldr.w	r2, [r3, #232]	; 0xe8
 800ab96:	f042 0240 	orr.w	r2, r2, #64	; 0x40
 800ab9a:	f8c3 20e8 	str.w	r2, [r3, #232]	; 0xe8
 800ab9e:	f8d3 30e8 	ldr.w	r3, [r3, #232]	; 0xe8
 800aba2:	f003 0340 	and.w	r3, r3, #64	; 0x40
 800aba6:	9301      	str	r3, [sp, #4]
 800aba8:	9b01      	ldr	r3, [sp, #4]
 800abaa:	b002      	add	sp, #8
 800abac:	4770      	bx	lr
 800abae:	4b09      	ldr	r3, [pc, #36]	; (800abd4 <HAL_TIM_Base_MspInit+0x58>)
 800abb0:	f8d3 20f0 	ldr.w	r2, [r3, #240]	; 0xf0
 800abb4:	f042 0201 	orr.w	r2, r2, #1
 800abb8:	f8c3 20f0 	str.w	r2, [r3, #240]	; 0xf0
 800abbc:	f8d3 30f0 	ldr.w	r3, [r3, #240]	; 0xf0
 800abc0:	f003 0301 	and.w	r3, r3, #1
 800abc4:	9300      	str	r3, [sp, #0]
 800abc6:	9b00      	ldr	r3, [sp, #0]
 800abc8:	b002      	add	sp, #8
 800abca:	4770      	bx	lr
 800abcc:	40010000 	.word	0x40010000
 800abd0:	40001800 	.word	0x40001800
 800abd4:	58024400 	.word	0x58024400

0800abd8 <HAL_TIM_PWM_MspInit>:
 800abd8:	6803      	ldr	r3, [r0, #0]
 800abda:	f1b3 4f80 	cmp.w	r3, #1073741824	; 0x40000000
 800abde:	d000      	beq.n	800abe2 <HAL_TIM_PWM_MspInit+0xa>
 800abe0:	4770      	bx	lr
 800abe2:	4b08      	ldr	r3, [pc, #32]	; (800ac04 <HAL_TIM_PWM_MspInit+0x2c>)
 800abe4:	b082      	sub	sp, #8
 800abe6:	f8d3 20e8 	ldr.w	r2, [r3, #232]	; 0xe8
 800abea:	f042 0201 	orr.w	r2, r2, #1
 800abee:	f8c3 20e8 	str.w	r2, [r3, #232]	; 0xe8
 800abf2:	f8d3 30e8 	ldr.w	r3, [r3, #232]	; 0xe8
 800abf6:	f003 0301 	and.w	r3, r3, #1
 800abfa:	9301      	str	r3, [sp, #4]
 800abfc:	9b01      	ldr	r3, [sp, #4]
 800abfe:	b002      	add	sp, #8
 800ac00:	4770      	bx	lr
 800ac02:	bf00      	nop
 800ac04:	58024400 	.word	0x58024400

0800ac08 <HAL_TIM_MspPostInit>:
 800ac08:	6802      	ldr	r2, [r0, #0]
 800ac0a:	2300      	movs	r3, #0
 800ac0c:	b5f0      	push	{r4, r5, r6, r7, lr}
 800ac0e:	f1b2 4f80 	cmp.w	r2, #1073741824	; 0x40000000
 800ac12:	b089      	sub	sp, #36	; 0x24
 800ac14:	e9cd 3302 	strd	r3, r3, [sp, #8]
 800ac18:	e9cd 3304 	strd	r3, r3, [sp, #16]
 800ac1c:	9306      	str	r3, [sp, #24]
 800ac1e:	d004      	beq.n	800ac2a <HAL_TIM_MspPostInit+0x22>
 800ac20:	4b1e      	ldr	r3, [pc, #120]	; (800ac9c <HAL_TIM_MspPostInit+0x94>)
 800ac22:	429a      	cmp	r2, r3
 800ac24:	d01c      	beq.n	800ac60 <HAL_TIM_MspPostInit+0x58>
 800ac26:	b009      	add	sp, #36	; 0x24
 800ac28:	bdf0      	pop	{r4, r5, r6, r7, pc}
 800ac2a:	4b1d      	ldr	r3, [pc, #116]	; (800aca0 <HAL_TIM_MspPostInit+0x98>)
 800ac2c:	2601      	movs	r6, #1
 800ac2e:	2401      	movs	r4, #1
 800ac30:	2502      	movs	r5, #2
 800ac32:	f8d3 20e0 	ldr.w	r2, [r3, #224]	; 0xe0
 800ac36:	a902      	add	r1, sp, #8
 800ac38:	481a      	ldr	r0, [pc, #104]	; (800aca4 <HAL_TIM_MspPostInit+0x9c>)
 800ac3a:	2700      	movs	r7, #0
 800ac3c:	4332      	orrs	r2, r6
 800ac3e:	f8c3 20e0 	str.w	r2, [r3, #224]	; 0xe0
 800ac42:	f8d3 30e0 	ldr.w	r3, [r3, #224]	; 0xe0
 800ac46:	9606      	str	r6, [sp, #24]
 800ac48:	4033      	ands	r3, r6
 800ac4a:	2600      	movs	r6, #0
 800ac4c:	9300      	str	r3, [sp, #0]
 800ac4e:	9b00      	ldr	r3, [sp, #0]
 800ac50:	e9cd 4502 	strd	r4, r5, [sp, #8]
 800ac54:	e9cd 6704 	strd	r6, r7, [sp, #16]
 800ac58:	f7f7 fec0 	bl	80029dc <HAL_GPIO_Init>
 800ac5c:	b009      	add	sp, #36	; 0x24
 800ac5e:	bdf0      	pop	{r4, r5, r6, r7, pc}
 800ac60:	4b0f      	ldr	r3, [pc, #60]	; (800aca0 <HAL_TIM_MspPostInit+0x98>)
 800ac62:	2602      	movs	r6, #2
 800ac64:	f44f 7410 	mov.w	r4, #576	; 0x240
 800ac68:	2502      	movs	r5, #2
 800ac6a:	f8d3 20e0 	ldr.w	r2, [r3, #224]	; 0xe0
 800ac6e:	a902      	add	r1, sp, #8
 800ac70:	480d      	ldr	r0, [pc, #52]	; (800aca8 <HAL_TIM_MspPostInit+0xa0>)
 800ac72:	2700      	movs	r7, #0
 800ac74:	f042 0280 	orr.w	r2, r2, #128	; 0x80
 800ac78:	f8c3 20e0 	str.w	r2, [r3, #224]	; 0xe0
 800ac7c:	f8d3 30e0 	ldr.w	r3, [r3, #224]	; 0xe0
 800ac80:	9606      	str	r6, [sp, #24]
 800ac82:	2600      	movs	r6, #0
 800ac84:	f003 0380 	and.w	r3, r3, #128	; 0x80
 800ac88:	9301      	str	r3, [sp, #4]
 800ac8a:	9b01      	ldr	r3, [sp, #4]
 800ac8c:	e9cd 4502 	strd	r4, r5, [sp, #8]
 800ac90:	e9cd 6704 	strd	r6, r7, [sp, #16]
 800ac94:	f7f7 fea2 	bl	80029dc <HAL_GPIO_Init>
 800ac98:	b009      	add	sp, #36	; 0x24
 800ac9a:	bdf0      	pop	{r4, r5, r6, r7, pc}
 800ac9c:	40001800 	.word	0x40001800
 800aca0:	58024400 	.word	0x58024400
 800aca4:	58020000 	.word	0x58020000
 800aca8:	58021c00 	.word	0x58021c00

0800acac <HAL_UART_MspInit>:
 800acac:	e92d 43f0 	stmdb	sp!, {r4, r5, r6, r7, r8, r9, lr}
 800acb0:	2400      	movs	r4, #0
 800acb2:	b0b9      	sub	sp, #228	; 0xe4
 800acb4:	4605      	mov	r5, r0
 800acb6:	22bc      	movs	r2, #188	; 0xbc
 800acb8:	4621      	mov	r1, r4
 800acba:	a809      	add	r0, sp, #36	; 0x24
 800acbc:	9408      	str	r4, [sp, #32]
 800acbe:	e9cd 4404 	strd	r4, r4, [sp, #16]
 800acc2:	e9cd 4406 	strd	r4, r4, [sp, #24]
 800acc6:	f000 fda7 	bl	800b818 <memset>
 800acca:	682b      	ldr	r3, [r5, #0]
 800accc:	4a7e      	ldr	r2, [pc, #504]	; (800aec8 <HAL_UART_MspInit+0x21c>)
 800acce:	4293      	cmp	r3, r2
 800acd0:	d005      	beq.n	800acde <HAL_UART_MspInit+0x32>
 800acd2:	4a7e      	ldr	r2, [pc, #504]	; (800aecc <HAL_UART_MspInit+0x220>)
 800acd4:	4293      	cmp	r3, r2
 800acd6:	d074      	beq.n	800adc2 <HAL_UART_MspInit+0x116>
 800acd8:	b039      	add	sp, #228	; 0xe4
 800acda:	e8bd 83f0 	ldmia.w	sp!, {r4, r5, r6, r7, r8, r9, pc}
 800acde:	2302      	movs	r3, #2
 800ace0:	a809      	add	r0, sp, #36	; 0x24
 800ace2:	9426      	str	r4, [sp, #152]	; 0x98
 800ace4:	9309      	str	r3, [sp, #36]	; 0x24
 800ace6:	f7f8 ff85 	bl	8003bf4 <HAL_RCCEx_PeriphCLKConfig>
 800acea:	2800      	cmp	r0, #0
 800acec:	f040 80df 	bne.w	800aeae <HAL_UART_MspInit+0x202>
 800acf0:	4b77      	ldr	r3, [pc, #476]	; (800aed0 <HAL_UART_MspInit+0x224>)
 800acf2:	2406      	movs	r4, #6
 800acf4:	f44f 58c0 	mov.w	r8, #6144	; 0x1800
 800acf8:	f04f 0902 	mov.w	r9, #2
 800acfc:	f8d3 20e8 	ldr.w	r2, [r3, #232]	; 0xe8
 800ad00:	a904      	add	r1, sp, #16
 800ad02:	4874      	ldr	r0, [pc, #464]	; (800aed4 <HAL_UART_MspInit+0x228>)
 800ad04:	f442 2200 	orr.w	r2, r2, #524288	; 0x80000
 800ad08:	4e73      	ldr	r6, [pc, #460]	; (800aed8 <HAL_UART_MspInit+0x22c>)
 800ad0a:	f8c3 20e8 	str.w	r2, [r3, #232]	; 0xe8
 800ad0e:	f8d3 20e8 	ldr.w	r2, [r3, #232]	; 0xe8
 800ad12:	f402 2200 	and.w	r2, r2, #524288	; 0x80000
 800ad16:	9200      	str	r2, [sp, #0]
 800ad18:	9a00      	ldr	r2, [sp, #0]
 800ad1a:	f8d3 20e0 	ldr.w	r2, [r3, #224]	; 0xe0
 800ad1e:	f042 0201 	orr.w	r2, r2, #1
 800ad22:	f8c3 20e0 	str.w	r2, [r3, #224]	; 0xe0
 800ad26:	2200      	movs	r2, #0
 800ad28:	f8d3 30e0 	ldr.w	r3, [r3, #224]	; 0xe0
 800ad2c:	9408      	str	r4, [sp, #32]
 800ad2e:	f003 0301 	and.w	r3, r3, #1
 800ad32:	9301      	str	r3, [sp, #4]
 800ad34:	2300      	movs	r3, #0
 800ad36:	9c01      	ldr	r4, [sp, #4]
 800ad38:	e9cd 2306 	strd	r2, r3, [sp, #24]
 800ad3c:	e9cd 8904 	strd	r8, r9, [sp, #16]
 800ad40:	f7f7 fe4c 	bl	80029dc <HAL_GPIO_Init>
 800ad44:	4b65      	ldr	r3, [pc, #404]	; (800aedc <HAL_UART_MspInit+0x230>)
 800ad46:	f44f 6080 	mov.w	r0, #1024	; 0x400
 800ad4a:	f44f 3100 	mov.w	r1, #131072	; 0x20000
 800ad4e:	2240      	movs	r2, #64	; 0x40
 800ad50:	6033      	str	r3, [r6, #0]
 800ad52:	2300      	movs	r3, #0
 800ad54:	6130      	str	r0, [r6, #16]
 800ad56:	4630      	mov	r0, r6
 800ad58:	6231      	str	r1, [r6, #32]
 800ad5a:	60f3      	str	r3, [r6, #12]
 800ad5c:	61f3      	str	r3, [r6, #28]
 800ad5e:	6273      	str	r3, [r6, #36]	; 0x24
 800ad60:	e9c6 2201 	strd	r2, r2, [r6, #4]
 800ad64:	e9c6 3305 	strd	r3, r3, [r6, #20]
 800ad68:	f7f6 fc68 	bl	800163c <HAL_DMA_Init>
 800ad6c:	2800      	cmp	r0, #0
 800ad6e:	f040 809b 	bne.w	800aea8 <HAL_UART_MspInit+0x1fc>
 800ad72:	4c5b      	ldr	r4, [pc, #364]	; (800aee0 <HAL_UART_MspInit+0x234>)
 800ad74:	203f      	movs	r0, #63	; 0x3f
 800ad76:	4b5b      	ldr	r3, [pc, #364]	; (800aee4 <HAL_UART_MspInit+0x238>)
 800ad78:	f44f 6780 	mov.w	r7, #1024	; 0x400
 800ad7c:	f44f 7180 	mov.w	r1, #256	; 0x100
 800ad80:	f44f 3200 	mov.w	r2, #131072	; 0x20000
 800ad84:	6023      	str	r3, [r4, #0]
 800ad86:	2300      	movs	r3, #0
 800ad88:	6060      	str	r0, [r4, #4]
 800ad8a:	4620      	mov	r0, r4
 800ad8c:	67ae      	str	r6, [r5, #120]	; 0x78
 800ad8e:	63b5      	str	r5, [r6, #56]	; 0x38
 800ad90:	6127      	str	r7, [r4, #16]
 800ad92:	6263      	str	r3, [r4, #36]	; 0x24
 800ad94:	e9c4 1207 	strd	r1, r2, [r4, #28]
 800ad98:	e9c4 3302 	strd	r3, r3, [r4, #8]
 800ad9c:	e9c4 3305 	strd	r3, r3, [r4, #20]
 800ada0:	f7f6 fc4c 	bl	800163c <HAL_DMA_Init>
 800ada4:	2800      	cmp	r0, #0
 800ada6:	d17c      	bne.n	800aea2 <HAL_UART_MspInit+0x1f6>
 800ada8:	2200      	movs	r2, #0
 800adaa:	2105      	movs	r1, #5
 800adac:	2034      	movs	r0, #52	; 0x34
 800adae:	67ec      	str	r4, [r5, #124]	; 0x7c
 800adb0:	63a5      	str	r5, [r4, #56]	; 0x38
 800adb2:	f7f6 fa21 	bl	80011f8 <HAL_NVIC_SetPriority>
 800adb6:	2034      	movs	r0, #52	; 0x34
 800adb8:	f7f6 fa58 	bl	800126c <HAL_NVIC_EnableIRQ>
 800adbc:	b039      	add	sp, #228	; 0xe4
 800adbe:	e8bd 83f0 	ldmia.w	sp!, {r4, r5, r6, r7, r8, r9, pc}
 800adc2:	2302      	movs	r3, #2
 800adc4:	a809      	add	r0, sp, #36	; 0x24
 800adc6:	9426      	str	r4, [sp, #152]	; 0x98
 800adc8:	9309      	str	r3, [sp, #36]	; 0x24
 800adca:	f7f8 ff13 	bl	8003bf4 <HAL_RCCEx_PeriphCLKConfig>
 800adce:	2800      	cmp	r0, #0
 800add0:	d170      	bne.n	800aeb4 <HAL_UART_MspInit+0x208>
 800add2:	4b3f      	ldr	r3, [pc, #252]	; (800aed0 <HAL_UART_MspInit+0x224>)
 800add4:	2407      	movs	r4, #7
 800add6:	f04f 080c 	mov.w	r8, #12
 800adda:	f04f 0902 	mov.w	r9, #2
 800adde:	f8d3 20e8 	ldr.w	r2, [r3, #232]	; 0xe8
 800ade2:	a904      	add	r1, sp, #16
 800ade4:	483b      	ldr	r0, [pc, #236]	; (800aed4 <HAL_UART_MspInit+0x228>)
 800ade6:	f442 3200 	orr.w	r2, r2, #131072	; 0x20000
 800adea:	4e3f      	ldr	r6, [pc, #252]	; (800aee8 <HAL_UART_MspInit+0x23c>)
 800adec:	f8c3 20e8 	str.w	r2, [r3, #232]	; 0xe8
 800adf0:	f8d3 20e8 	ldr.w	r2, [r3, #232]	; 0xe8
 800adf4:	f402 3200 	and.w	r2, r2, #131072	; 0x20000
 800adf8:	9202      	str	r2, [sp, #8]
 800adfa:	9a02      	ldr	r2, [sp, #8]
 800adfc:	f8d3 20e0 	ldr.w	r2, [r3, #224]	; 0xe0
 800ae00:	f042 0201 	orr.w	r2, r2, #1
 800ae04:	f8c3 20e0 	str.w	r2, [r3, #224]	; 0xe0
 800ae08:	2200      	movs	r2, #0
 800ae0a:	f8d3 30e0 	ldr.w	r3, [r3, #224]	; 0xe0
 800ae0e:	9408      	str	r4, [sp, #32]
 800ae10:	f003 0301 	and.w	r3, r3, #1
 800ae14:	9303      	str	r3, [sp, #12]
 800ae16:	2300      	movs	r3, #0
 800ae18:	9c03      	ldr	r4, [sp, #12]
 800ae1a:	e9cd 2306 	strd	r2, r3, [sp, #24]
 800ae1e:	e9cd 8904 	strd	r8, r9, [sp, #16]
 800ae22:	f7f7 fddb 	bl	80029dc <HAL_GPIO_Init>
 800ae26:	4a31      	ldr	r2, [pc, #196]	; (800aeec <HAL_UART_MspInit+0x240>)
 800ae28:	232b      	movs	r3, #43	; 0x2b
 800ae2a:	f44f 6080 	mov.w	r0, #1024	; 0x400
 800ae2e:	f44f 7180 	mov.w	r1, #256	; 0x100
 800ae32:	6032      	str	r2, [r6, #0]
 800ae34:	6073      	str	r3, [r6, #4]
 800ae36:	f44f 3200 	mov.w	r2, #131072	; 0x20000
 800ae3a:	2300      	movs	r3, #0
 800ae3c:	6130      	str	r0, [r6, #16]
 800ae3e:	4630      	mov	r0, r6
 800ae40:	6273      	str	r3, [r6, #36]	; 0x24
 800ae42:	e9c6 1207 	strd	r1, r2, [r6, #28]
 800ae46:	e9c6 3302 	strd	r3, r3, [r6, #8]
 800ae4a:	e9c6 3305 	strd	r3, r3, [r6, #20]
 800ae4e:	f7f6 fbf5 	bl	800163c <HAL_DMA_Init>
 800ae52:	2800      	cmp	r0, #0
 800ae54:	d134      	bne.n	800aec0 <HAL_UART_MspInit+0x214>
 800ae56:	4c26      	ldr	r4, [pc, #152]	; (800aef0 <HAL_UART_MspInit+0x244>)
 800ae58:	202c      	movs	r0, #44	; 0x2c
 800ae5a:	4b26      	ldr	r3, [pc, #152]	; (800aef4 <HAL_UART_MspInit+0x248>)
 800ae5c:	2740      	movs	r7, #64	; 0x40
 800ae5e:	f44f 6180 	mov.w	r1, #1024	; 0x400
 800ae62:	f44f 3200 	mov.w	r2, #131072	; 0x20000
 800ae66:	6023      	str	r3, [r4, #0]
 800ae68:	2300      	movs	r3, #0
 800ae6a:	6060      	str	r0, [r4, #4]
 800ae6c:	4620      	mov	r0, r4
 800ae6e:	67ee      	str	r6, [r5, #124]	; 0x7c
 800ae70:	63b5      	str	r5, [r6, #56]	; 0x38
 800ae72:	60a7      	str	r7, [r4, #8]
 800ae74:	6121      	str	r1, [r4, #16]
 800ae76:	6222      	str	r2, [r4, #32]
 800ae78:	60e3      	str	r3, [r4, #12]
 800ae7a:	61e3      	str	r3, [r4, #28]
 800ae7c:	6263      	str	r3, [r4, #36]	; 0x24
 800ae7e:	e9c4 3305 	strd	r3, r3, [r4, #20]
 800ae82:	f7f6 fbdb 	bl	800163c <HAL_DMA_Init>
 800ae86:	b9c0      	cbnz	r0, 800aeba <HAL_UART_MspInit+0x20e>
 800ae88:	2200      	movs	r2, #0
 800ae8a:	2105      	movs	r1, #5
 800ae8c:	2026      	movs	r0, #38	; 0x26
 800ae8e:	67ac      	str	r4, [r5, #120]	; 0x78
 800ae90:	63a5      	str	r5, [r4, #56]	; 0x38
 800ae92:	f7f6 f9b1 	bl	80011f8 <HAL_NVIC_SetPriority>
 800ae96:	2026      	movs	r0, #38	; 0x26
 800ae98:	f7f6 f9e8 	bl	800126c <HAL_NVIC_EnableIRQ>
 800ae9c:	b039      	add	sp, #228	; 0xe4
 800ae9e:	e8bd 83f0 	ldmia.w	sp!, {r4, r5, r6, r7, r8, r9, pc}
 800aea2:	f7ff fcd7 	bl	800a854 <Error_Handler>
 800aea6:	e77f      	b.n	800ada8 <HAL_UART_MspInit+0xfc>
 800aea8:	f7ff fcd4 	bl	800a854 <Error_Handler>
 800aeac:	e761      	b.n	800ad72 <HAL_UART_MspInit+0xc6>
 800aeae:	f7ff fcd1 	bl	800a854 <Error_Handler>
 800aeb2:	e71d      	b.n	800acf0 <HAL_UART_MspInit+0x44>
 800aeb4:	f7ff fcce 	bl	800a854 <Error_Handler>
 800aeb8:	e78b      	b.n	800add2 <HAL_UART_MspInit+0x126>
 800aeba:	f7ff fccb 	bl	800a854 <Error_Handler>
 800aebe:	e7e3      	b.n	800ae88 <HAL_UART_MspInit+0x1dc>
 800aec0:	f7ff fcc8 	bl	800a854 <Error_Handler>
 800aec4:	e7c7      	b.n	800ae56 <HAL_UART_MspInit+0x1aa>
 800aec6:	bf00      	nop
 800aec8:	40004c00 	.word	0x40004c00
 800aecc:	40004400 	.word	0x40004400
 800aed0:	58024400 	.word	0x58024400
 800aed4:	58020000 	.word	0x58020000
 800aed8:	24027d0c 	.word	0x24027d0c
 800aedc:	40020010 	.word	0x40020010
 800aee0:	240273c4 	.word	0x240273c4
 800aee4:	40020028 	.word	0x40020028
 800aee8:	24027440 	.word	0x24027440
 800aeec:	40020058 	.word	0x40020058
 800aef0:	240277f8 	.word	0x240277f8
 800aef4:	40020070 	.word	0x40020070

0800aef8 <HAL_InitTick>:
 800aef8:	280f      	cmp	r0, #15
 800aefa:	d901      	bls.n	800af00 <HAL_InitTick+0x8>
 800aefc:	2001      	movs	r0, #1
 800aefe:	4770      	bx	lr
 800af00:	b530      	push	{r4, r5, lr}
 800af02:	4601      	mov	r1, r0
 800af04:	b08b      	sub	sp, #44	; 0x2c
 800af06:	2200      	movs	r2, #0
 800af08:	4604      	mov	r4, r0
 800af0a:	2036      	movs	r0, #54	; 0x36
 800af0c:	f7f6 f974 	bl	80011f8 <HAL_NVIC_SetPriority>
 800af10:	2036      	movs	r0, #54	; 0x36
 800af12:	f7f6 f9ab 	bl	800126c <HAL_NVIC_EnableIRQ>
 800af16:	4b1a      	ldr	r3, [pc, #104]	; (800af80 <HAL_InitTick+0x88>)
 800af18:	4a1a      	ldr	r2, [pc, #104]	; (800af84 <HAL_InitTick+0x8c>)
 800af1a:	4669      	mov	r1, sp
 800af1c:	a802      	add	r0, sp, #8
 800af1e:	6014      	str	r4, [r2, #0]
 800af20:	f8d3 20e8 	ldr.w	r2, [r3, #232]	; 0xe8
 800af24:	f042 0210 	orr.w	r2, r2, #16
 800af28:	f8c3 20e8 	str.w	r2, [r3, #232]	; 0xe8
 800af2c:	f8d3 30e8 	ldr.w	r3, [r3, #232]	; 0xe8
 800af30:	f003 0310 	and.w	r3, r3, #16
 800af34:	9301      	str	r3, [sp, #4]
 800af36:	9b01      	ldr	r3, [sp, #4]
 800af38:	f7f8 fd38 	bl	80039ac <HAL_RCC_GetClockConfig>
 800af3c:	9b07      	ldr	r3, [sp, #28]
 800af3e:	b9bb      	cbnz	r3, 800af70 <HAL_InitTick+0x78>
 800af40:	f7f8 fca4 	bl	800388c <HAL_RCC_GetPCLK1Freq>
 800af44:	4b10      	ldr	r3, [pc, #64]	; (800af88 <HAL_InitTick+0x90>)
 800af46:	2200      	movs	r2, #0
 800af48:	4c10      	ldr	r4, [pc, #64]	; (800af8c <HAL_InitTick+0x94>)
 800af4a:	f240 35e7 	movw	r5, #999	; 0x3e7
 800af4e:	fba3 1300 	umull	r1, r3, r3, r0
 800af52:	490f      	ldr	r1, [pc, #60]	; (800af90 <HAL_InitTick+0x98>)
 800af54:	4620      	mov	r0, r4
 800af56:	60e5      	str	r5, [r4, #12]
 800af58:	0c9b      	lsrs	r3, r3, #18
 800af5a:	6021      	str	r1, [r4, #0]
 800af5c:	6122      	str	r2, [r4, #16]
 800af5e:	3b01      	subs	r3, #1
 800af60:	e9c4 3201 	strd	r3, r2, [r4, #4]
 800af64:	f7fa fcfc 	bl	8005960 <HAL_TIM_Base_Init>
 800af68:	b130      	cbz	r0, 800af78 <HAL_InitTick+0x80>
 800af6a:	2001      	movs	r0, #1
 800af6c:	b00b      	add	sp, #44	; 0x2c
 800af6e:	bd30      	pop	{r4, r5, pc}
 800af70:	f7f8 fc8c 	bl	800388c <HAL_RCC_GetPCLK1Freq>
 800af74:	0040      	lsls	r0, r0, #1
 800af76:	e7e5      	b.n	800af44 <HAL_InitTick+0x4c>
 800af78:	4620      	mov	r0, r4
 800af7a:	f7fa fd9f 	bl	8005abc <HAL_TIM_Base_Start_IT>
 800af7e:	e7f5      	b.n	800af6c <HAL_InitTick+0x74>
 800af80:	58024400 	.word	0x58024400
 800af84:	24000004 	.word	0x24000004
 800af88:	431bde83 	.word	0x431bde83
 800af8c:	24027dd0 	.word	0x24027dd0
 800af90:	40001000 	.word	0x40001000

0800af94 <NMI_Handler>:
 800af94:	4770      	bx	lr
 800af96:	bf00      	nop

0800af98 <HardFault_Handler>:
 800af98:	e7fe      	b.n	800af98 <HardFault_Handler>
 800af9a:	bf00      	nop

0800af9c <MemManage_Handler>:
 800af9c:	e7fe      	b.n	800af9c <MemManage_Handler>
 800af9e:	bf00      	nop

0800afa0 <BusFault_Handler>:
 800afa0:	e7fe      	b.n	800afa0 <BusFault_Handler>
 800afa2:	bf00      	nop

0800afa4 <UsageFault_Handler>:
 800afa4:	e7fe      	b.n	800afa4 <UsageFault_Handler>
 800afa6:	bf00      	nop

0800afa8 <DebugMon_Handler>:
 800afa8:	4770      	bx	lr
 800afaa:	bf00      	nop

0800afac <EXTI0_IRQHandler>:
 800afac:	2001      	movs	r0, #1
 800afae:	f7f7 be55 	b.w	8002c5c <HAL_GPIO_EXTI_IRQHandler>
 800afb2:	bf00      	nop

0800afb4 <DMA1_Stream0_IRQHandler>:
 800afb4:	4801      	ldr	r0, [pc, #4]	; (800afbc <DMA1_Stream0_IRQHandler+0x8>)
 800afb6:	f7f7 b9b3 	b.w	8002320 <HAL_DMA_IRQHandler>
 800afba:	bf00      	nop
 800afbc:	24027d0c 	.word	0x24027d0c

0800afc0 <DMA1_Stream1_IRQHandler>:
 800afc0:	4801      	ldr	r0, [pc, #4]	; (800afc8 <DMA1_Stream1_IRQHandler+0x8>)
 800afc2:	f7f7 b9ad 	b.w	8002320 <HAL_DMA_IRQHandler>
 800afc6:	bf00      	nop
 800afc8:	240273c4 	.word	0x240273c4

0800afcc <DMA1_Stream2_IRQHandler>:
 800afcc:	4801      	ldr	r0, [pc, #4]	; (800afd4 <DMA1_Stream2_IRQHandler+0x8>)
 800afce:	f7f7 b9a7 	b.w	8002320 <HAL_DMA_IRQHandler>
 800afd2:	bf00      	nop
 800afd4:	240278ac 	.word	0x240278ac

0800afd8 <DMA1_Stream3_IRQHandler>:
 800afd8:	4801      	ldr	r0, [pc, #4]	; (800afe0 <DMA1_Stream3_IRQHandler+0x8>)
 800afda:	f7f7 b9a1 	b.w	8002320 <HAL_DMA_IRQHandler>
 800afde:	bf00      	nop
 800afe0:	24027440 	.word	0x24027440

0800afe4 <DMA1_Stream4_IRQHandler>:
 800afe4:	4801      	ldr	r0, [pc, #4]	; (800afec <DMA1_Stream4_IRQHandler+0x8>)
 800afe6:	f7f7 b99b 	b.w	8002320 <HAL_DMA_IRQHandler>
 800afea:	bf00      	nop
 800afec:	240277f8 	.word	0x240277f8

0800aff0 <DMA1_Stream5_IRQHandler>:
 800aff0:	4801      	ldr	r0, [pc, #4]	; (800aff8 <DMA1_Stream5_IRQHandler+0x8>)
 800aff2:	f7f7 b995 	b.w	8002320 <HAL_DMA_IRQHandler>
 800aff6:	bf00      	nop
 800aff8:	24027b4c 	.word	0x24027b4c

0800affc <ADC_IRQHandler>:
 800affc:	4804      	ldr	r0, [pc, #16]	; (800b010 <ADC_IRQHandler+0x14>)
 800affe:	b508      	push	{r3, lr}
 800b000:	f7f5 fb36 	bl	8000670 <HAL_ADC_IRQHandler>
 800b004:	4803      	ldr	r0, [pc, #12]	; (800b014 <ADC_IRQHandler+0x18>)
 800b006:	e8bd 4008 	ldmia.w	sp!, {r3, lr}
 800b00a:	f7f5 bb31 	b.w	8000670 <HAL_ADC_IRQHandler>
 800b00e:	bf00      	nop
 800b010:	24027730 	.word	0x24027730
 800b014:	2402758c 	.word	0x2402758c

0800b018 <SPI2_IRQHandler>:
 800b018:	4801      	ldr	r0, [pc, #4]	; (800b020 <SPI2_IRQHandler+0x8>)
 800b01a:	f7fa baed 	b.w	80055f8 <HAL_SPI_IRQHandler>
 800b01e:	bf00      	nop
 800b020:	240274b8 	.word	0x240274b8

0800b024 <USART2_IRQHandler>:
 800b024:	4801      	ldr	r0, [pc, #4]	; (800b02c <USART2_IRQHandler+0x8>)
 800b026:	f7fb bb51 	b.w	80066cc <HAL_UART_IRQHandler>
 800b02a:	bf00      	nop
 800b02c:	24027abc 	.word	0x24027abc

0800b030 <EXTI15_10_IRQHandler>:
 800b030:	b508      	push	{r3, lr}
 800b032:	f44f 6080 	mov.w	r0, #1024	; 0x400
 800b036:	f7f7 fe11 	bl	8002c5c <HAL_GPIO_EXTI_IRQHandler>
 800b03a:	f44f 6000 	mov.w	r0, #2048	; 0x800
 800b03e:	f7f7 fe0d 	bl	8002c5c <HAL_GPIO_EXTI_IRQHandler>
 800b042:	f44f 5080 	mov.w	r0, #4096	; 0x1000
 800b046:	f7f7 fe09 	bl	8002c5c <HAL_GPIO_EXTI_IRQHandler>
 800b04a:	f44f 5000 	mov.w	r0, #8192	; 0x2000
 800b04e:	f7f7 fe05 	bl	8002c5c <HAL_GPIO_EXTI_IRQHandler>
 800b052:	f44f 4080 	mov.w	r0, #16384	; 0x4000
 800b056:	f7f7 fe01 	bl	8002c5c <HAL_GPIO_EXTI_IRQHandler>
 800b05a:	f44f 4000 	mov.w	r0, #32768	; 0x8000
 800b05e:	e8bd 4008 	ldmia.w	sp!, {r3, lr}
 800b062:	f7f7 bdfb 	b.w	8002c5c <HAL_GPIO_EXTI_IRQHandler>
 800b066:	bf00      	nop

0800b068 <UART4_IRQHandler>:
 800b068:	4801      	ldr	r0, [pc, #4]	; (800b070 <UART4_IRQHandler+0x8>)
 800b06a:	f7fb bb2f 	b.w	80066cc <HAL_UART_IRQHandler>
 800b06e:	bf00      	nop
 800b070:	24027994 	.word	0x24027994

0800b074 <TIM6_DAC_IRQHandler>:
 800b074:	4801      	ldr	r0, [pc, #4]	; (800b07c <TIM6_DAC_IRQHandler+0x8>)
 800b076:	f7fa bfa7 	b.w	8005fc8 <HAL_TIM_IRQHandler>
 800b07a:	bf00      	nop
 800b07c:	24027dd0 	.word	0x24027dd0

0800b080 <SystemInit>:
 800b080:	b430      	push	{r4, r5}
 800b082:	4c19      	ldr	r4, [pc, #100]	; (800b0e8 <SystemInit+0x68>)
 800b084:	2200      	movs	r2, #0
 800b086:	4b19      	ldr	r3, [pc, #100]	; (800b0ec <SystemInit+0x6c>)
 800b088:	f8d4 1088 	ldr.w	r1, [r4, #136]	; 0x88
 800b08c:	4818      	ldr	r0, [pc, #96]	; (800b0f0 <SystemInit+0x70>)
 800b08e:	f441 0170 	orr.w	r1, r1, #15728640	; 0xf00000
 800b092:	4d18      	ldr	r5, [pc, #96]	; (800b0f4 <SystemInit+0x74>)
 800b094:	f8c4 1088 	str.w	r1, [r4, #136]	; 0x88
 800b098:	681c      	ldr	r4, [r3, #0]
 800b09a:	4917      	ldr	r1, [pc, #92]	; (800b0f8 <SystemInit+0x78>)
 800b09c:	f044 0401 	orr.w	r4, r4, #1
 800b0a0:	601c      	str	r4, [r3, #0]
 800b0a2:	611a      	str	r2, [r3, #16]
 800b0a4:	681c      	ldr	r4, [r3, #0]
 800b0a6:	4020      	ands	r0, r4
 800b0a8:	6018      	str	r0, [r3, #0]
 800b0aa:	619a      	str	r2, [r3, #24]
 800b0ac:	61da      	str	r2, [r3, #28]
 800b0ae:	621a      	str	r2, [r3, #32]
 800b0b0:	629a      	str	r2, [r3, #40]	; 0x28
 800b0b2:	62da      	str	r2, [r3, #44]	; 0x2c
 800b0b4:	631a      	str	r2, [r3, #48]	; 0x30
 800b0b6:	635a      	str	r2, [r3, #52]	; 0x34
 800b0b8:	639a      	str	r2, [r3, #56]	; 0x38
 800b0ba:	63da      	str	r2, [r3, #60]	; 0x3c
 800b0bc:	641a      	str	r2, [r3, #64]	; 0x40
 800b0be:	645a      	str	r2, [r3, #68]	; 0x44
 800b0c0:	6818      	ldr	r0, [r3, #0]
 800b0c2:	f420 2080 	bic.w	r0, r0, #262144	; 0x40000
 800b0c6:	6018      	str	r0, [r3, #0]
 800b0c8:	661a      	str	r2, [r3, #96]	; 0x60
 800b0ca:	682b      	ldr	r3, [r5, #0]
 800b0cc:	4019      	ands	r1, r3
 800b0ce:	f1b1 5f00 	cmp.w	r1, #536870912	; 0x20000000
 800b0d2:	d202      	bcs.n	800b0da <SystemInit+0x5a>
 800b0d4:	4b09      	ldr	r3, [pc, #36]	; (800b0fc <SystemInit+0x7c>)
 800b0d6:	2201      	movs	r2, #1
 800b0d8:	601a      	str	r2, [r3, #0]
 800b0da:	4b03      	ldr	r3, [pc, #12]	; (800b0e8 <SystemInit+0x68>)
 800b0dc:	f04f 6200 	mov.w	r2, #134217728	; 0x8000000
 800b0e0:	bc30      	pop	{r4, r5}
 800b0e2:	609a      	str	r2, [r3, #8]
 800b0e4:	4770      	bx	lr
 800b0e6:	bf00      	nop
 800b0e8:	e000ed00 	.word	0xe000ed00
 800b0ec:	58024400 	.word	0x58024400
 800b0f0:	eaf6ed7f 	.word	0xeaf6ed7f
 800b0f4:	5c001000 	.word	0x5c001000
 800b0f8:	ffff0000 	.word	0xffff0000
 800b0fc:	51008108 	.word	0x51008108

0800b100 <Reset_Handler>:
 800b100:	f8df d034 	ldr.w	sp, [pc, #52]	; 800b138 <LoopFillZerobss+0x14>
 800b104:	2100      	movs	r1, #0
 800b106:	e003      	b.n	800b110 <LoopCopyDataInit>

0800b108 <CopyDataInit>:
 800b108:	4b0c      	ldr	r3, [pc, #48]	; (800b13c <LoopFillZerobss+0x18>)
 800b10a:	585b      	ldr	r3, [r3, r1]
 800b10c:	5043      	str	r3, [r0, r1]
 800b10e:	3104      	adds	r1, #4

0800b110 <LoopCopyDataInit>:
 800b110:	480b      	ldr	r0, [pc, #44]	; (800b140 <LoopFillZerobss+0x1c>)
 800b112:	4b0c      	ldr	r3, [pc, #48]	; (800b144 <LoopFillZerobss+0x20>)
 800b114:	1842      	adds	r2, r0, r1
 800b116:	429a      	cmp	r2, r3
 800b118:	d3f6      	bcc.n	800b108 <CopyDataInit>
 800b11a:	4a0b      	ldr	r2, [pc, #44]	; (800b148 <LoopFillZerobss+0x24>)
 800b11c:	e002      	b.n	800b124 <LoopFillZerobss>

0800b11e <FillZerobss>:
 800b11e:	2300      	movs	r3, #0
 800b120:	f842 3b04 	str.w	r3, [r2], #4

0800b124 <LoopFillZerobss>:
 800b124:	4b09      	ldr	r3, [pc, #36]	; (800b14c <LoopFillZerobss+0x28>)
 800b126:	429a      	cmp	r2, r3
 800b128:	d3f9      	bcc.n	800b11e <FillZerobss>
 800b12a:	f7ff ffa9 	bl	800b080 <SystemInit>
 800b12e:	f000 fb3f 	bl	800b7b0 <__libc_init_array>
 800b132:	f7fe fe71 	bl	8009e18 <main>
 800b136:	4770      	bx	lr
 800b138:	24080000 	.word	0x24080000
 800b13c:	0800baf8 	.word	0x0800baf8
 800b140:	24000000 	.word	0x24000000
 800b144:	24000078 	.word	0x24000078
 800b148:	24000078 	.word	0x24000078
 800b14c:	24027e28 	.word	0x24027e28

0800b150 <ADC3_IRQHandler>:
 800b150:	e7fe      	b.n	800b150 <ADC3_IRQHandler>
	...

0800b154 <B_tcpStart>:
 800b154:	e92d 4ff0 	stmdb	sp!, {r4, r5, r6, r7, r8, r9, sl, fp, lr}
 800b158:	469a      	mov	sl, r3
 800b15a:	b083      	sub	sp, #12
 800b15c:	4683      	mov	fp, r0
 800b15e:	2020      	movs	r0, #32
 800b160:	460c      	mov	r4, r1
 800b162:	4616      	mov	r6, r2
 800b164:	ea4f 088a 	mov.w	r8, sl, lsl #2
 800b168:	f7fe fb60 	bl	800982c <pvPortMalloc>
 800b16c:	4607      	mov	r7, r0
 800b16e:	4640      	mov	r0, r8
 800b170:	f887 a008 	strb.w	sl, [r7, #8]
 800b174:	f7fe fb5a 	bl	800982c <pvPortMalloc>
 800b178:	6078      	str	r0, [r7, #4]
 800b17a:	f1ba 0f00 	cmp.w	sl, #0
 800b17e:	d028      	beq.n	800b1d2 <B_tcpStart+0x7e>
 800b180:	1dc2      	adds	r2, r0, #7
 800b182:	ea44 0100 	orr.w	r1, r4, r0
 800b186:	4605      	mov	r5, r0
 800b188:	1b12      	subs	r2, r2, r4
 800b18a:	f3c1 0102 	ubfx	r1, r1, #0, #3
 800b18e:	2a0e      	cmp	r2, #14
 800b190:	bf94      	ite	ls
 800b192:	2200      	movls	r2, #0
 800b194:	2201      	movhi	r2, #1
 800b196:	2900      	cmp	r1, #0
 800b198:	bf18      	it	ne
 800b19a:	2200      	movne	r2, #0
 800b19c:	b3aa      	cbz	r2, 800b20a <B_tcpStart+0xb6>
 800b19e:	f10a 32ff 	add.w	r2, sl, #4294967295
 800b1a2:	2a0b      	cmp	r2, #11
 800b1a4:	d931      	bls.n	800b20a <B_tcpStart+0xb6>
 800b1a6:	ea4f 005a 	mov.w	r0, sl, lsr #1
 800b1aa:	f1a4 0208 	sub.w	r2, r4, #8
 800b1ae:	4629      	mov	r1, r5
 800b1b0:	eb05 00c0 	add.w	r0, r5, r0, lsl #3
 800b1b4:	e9f2 8902 	ldrd	r8, r9, [r2, #8]!
 800b1b8:	e8e1 8902 	strd	r8, r9, [r1], #8
 800b1bc:	4281      	cmp	r1, r0
 800b1be:	d1f9      	bne.n	800b1b4 <B_tcpStart+0x60>
 800b1c0:	f03a 03fe 	bics.w	r3, sl, #254	; 0xfe
 800b1c4:	f02a 0201 	bic.w	r2, sl, #1
 800b1c8:	d003      	beq.n	800b1d2 <B_tcpStart+0x7e>
 800b1ca:	f854 3022 	ldr.w	r3, [r4, r2, lsl #2]
 800b1ce:	f845 3022 	str.w	r3, [r5, r2, lsl #2]
 800b1d2:	9b0c      	ldr	r3, [sp, #48]	; 0x30
 800b1d4:	2200      	movs	r2, #0
 800b1d6:	2110      	movs	r1, #16
 800b1d8:	f887 b000 	strb.w	fp, [r7]
 800b1dc:	61fb      	str	r3, [r7, #28]
 800b1de:	2040      	movs	r0, #64	; 0x40
 800b1e0:	743a      	strb	r2, [r7, #16]
 800b1e2:	60fe      	str	r6, [r7, #12]
 800b1e4:	f7fc fa1e 	bl	8007624 <xQueueGenericCreate>
 800b1e8:	f107 0218 	add.w	r2, r7, #24
 800b1ec:	2104      	movs	r1, #4
 800b1ee:	6178      	str	r0, [r7, #20]
 800b1f0:	463b      	mov	r3, r7
 800b1f2:	9201      	str	r2, [sp, #4]
 800b1f4:	9100      	str	r1, [sp, #0]
 800b1f6:	f44f 7280 	mov.w	r2, #256	; 0x100
 800b1fa:	4908      	ldr	r1, [pc, #32]	; (800b21c <B_tcpStart+0xc8>)
 800b1fc:	4808      	ldr	r0, [pc, #32]	; (800b220 <B_tcpStart+0xcc>)
 800b1fe:	f7fd f9c9 	bl	8008594 <xTaskCreate>
 800b202:	4638      	mov	r0, r7
 800b204:	b003      	add	sp, #12
 800b206:	e8bd 8ff0 	ldmia.w	sp!, {r4, r5, r6, r7, r8, r9, sl, fp, pc}
 800b20a:	3d04      	subs	r5, #4
 800b20c:	44a0      	add	r8, r4
 800b20e:	f854 3b04 	ldr.w	r3, [r4], #4
 800b212:	4544      	cmp	r4, r8
 800b214:	f845 3f04 	str.w	r3, [r5, #4]!
 800b218:	d1f9      	bne.n	800b20e <B_tcpStart+0xba>
 800b21a:	e7da      	b.n	800b1d2 <B_tcpStart+0x7e>
 800b21c:	0800ba70 	.word	0x0800ba70
 800b220:	0800b39d 	.word	0x0800b39d

0800b224 <B_tcpSend>:
 800b224:	e92d 43f8 	stmdb	sp!, {r3, r4, r5, r6, r7, r8, r9, lr}
 800b228:	4606      	mov	r6, r0
 800b22a:	f44f 7084 	mov.w	r0, #264	; 0x108
 800b22e:	4617      	mov	r7, r2
 800b230:	460d      	mov	r5, r1
 800b232:	f7fe fafb 	bl	800982c <pvPortMalloc>
 800b236:	23a5      	movs	r3, #165	; 0xa5
 800b238:	7047      	strb	r7, [r0, #1]
 800b23a:	4604      	mov	r4, r0
 800b23c:	7003      	strb	r3, [r0, #0]
 800b23e:	f100 0804 	add.w	r8, r0, #4
 800b242:	7833      	ldrb	r3, [r6, #0]
 800b244:	f107 0904 	add.w	r9, r7, #4
 800b248:	463a      	mov	r2, r7
 800b24a:	4629      	mov	r1, r5
 800b24c:	70a3      	strb	r3, [r4, #2]
 800b24e:	4640      	mov	r0, r8
 800b250:	7c33      	ldrb	r3, [r6, #16]
 800b252:	70e3      	strb	r3, [r4, #3]
 800b254:	f000 fad2 	bl	800b7fc <memcpy>
 800b258:	464a      	mov	r2, r9
 800b25a:	4621      	mov	r1, r4
 800b25c:	69f0      	ldr	r0, [r6, #28]
 800b25e:	f7f6 f893 	bl	8001388 <HAL_CRC_Calculate>
 800b262:	2fa1      	cmp	r7, #161	; 0xa1
 800b264:	ea6f 0000 	mvn.w	r0, r0
 800b268:	d069      	beq.n	800b33e <B_tcpSend+0x11a>
 800b26a:	2f56      	cmp	r7, #86	; 0x56
 800b26c:	d067      	beq.n	800b33e <B_tcpSend+0x11a>
 800b26e:	2104      	movs	r1, #4
 800b270:	f104 0803 	add.w	r8, r4, #3
 800b274:	f04f 0c05 	mov.w	ip, #5
 800b278:	460b      	mov	r3, r1
 800b27a:	7c32      	ldrb	r2, [r6, #16]
 800b27c:	2aa5      	cmp	r2, #165	; 0xa5
 800b27e:	d056      	beq.n	800b32e <B_tcpSend+0x10a>
 800b280:	2a5a      	cmp	r2, #90	; 0x5a
 800b282:	d054      	beq.n	800b32e <B_tcpSend+0x10a>
 800b284:	1c51      	adds	r1, r2, #1
 800b286:	f888 2000 	strb.w	r2, [r8]
 800b28a:	7431      	strb	r1, [r6, #16]
 800b28c:	b19f      	cbz	r7, 800b2b6 <B_tcpSend+0x92>
 800b28e:	4629      	mov	r1, r5
 800b290:	f04f 085a 	mov.w	r8, #90	; 0x5a
 800b294:	442f      	add	r7, r5
 800b296:	f811 5b01 	ldrb.w	r5, [r1], #1
 800b29a:	1c5a      	adds	r2, r3, #1
 800b29c:	f103 0e02 	add.w	lr, r3, #2
 800b2a0:	2d5a      	cmp	r5, #90	; 0x5a
 800b2a2:	4694      	mov	ip, r2
 800b2a4:	b292      	uxth	r2, r2
 800b2a6:	d053      	beq.n	800b350 <B_tcpSend+0x12c>
 800b2a8:	2da5      	cmp	r5, #165	; 0xa5
 800b2aa:	d051      	beq.n	800b350 <B_tcpSend+0x12c>
 800b2ac:	42b9      	cmp	r1, r7
 800b2ae:	54e5      	strb	r5, [r4, r3]
 800b2b0:	fa1f f38c 	uxth.w	r3, ip
 800b2b4:	d1ef      	bne.n	800b296 <B_tcpSend+0x72>
 800b2b6:	0e02      	lsrs	r2, r0, #24
 800b2b8:	18e1      	adds	r1, r4, r3
 800b2ba:	2aa5      	cmp	r2, #165	; 0xa5
 800b2bc:	54e2      	strb	r2, [r4, r3]
 800b2be:	d055      	beq.n	800b36c <B_tcpSend+0x148>
 800b2c0:	2a5a      	cmp	r2, #90	; 0x5a
 800b2c2:	d053      	beq.n	800b36c <B_tcpSend+0x148>
 800b2c4:	f3c0 4207 	ubfx	r2, r0, #16, #8
 800b2c8:	1c59      	adds	r1, r3, #1
 800b2ca:	2aa5      	cmp	r2, #165	; 0xa5
 800b2cc:	b289      	uxth	r1, r1
 800b2ce:	eb04 0501 	add.w	r5, r4, r1
 800b2d2:	5462      	strb	r2, [r4, r1]
 800b2d4:	d05c      	beq.n	800b390 <B_tcpSend+0x16c>
 800b2d6:	2a5a      	cmp	r2, #90	; 0x5a
 800b2d8:	d05a      	beq.n	800b390 <B_tcpSend+0x16c>
 800b2da:	f3c0 2507 	ubfx	r5, r0, #8, #8
 800b2de:	1c4a      	adds	r2, r1, #1
 800b2e0:	2da5      	cmp	r5, #165	; 0xa5
 800b2e2:	b292      	uxth	r2, r2
 800b2e4:	eb04 0702 	add.w	r7, r4, r2
 800b2e8:	54a5      	strb	r5, [r4, r2]
 800b2ea:	d04b      	beq.n	800b384 <B_tcpSend+0x160>
 800b2ec:	2d5a      	cmp	r5, #90	; 0x5a
 800b2ee:	d049      	beq.n	800b384 <B_tcpSend+0x160>
 800b2f0:	b2c0      	uxtb	r0, r0
 800b2f2:	1c57      	adds	r7, r2, #1
 800b2f4:	285a      	cmp	r0, #90	; 0x5a
 800b2f6:	b2bf      	uxth	r7, r7
 800b2f8:	eb04 0307 	add.w	r3, r4, r7
 800b2fc:	55e0      	strb	r0, [r4, r7]
 800b2fe:	d03b      	beq.n	800b378 <B_tcpSend+0x154>
 800b300:	28a5      	cmp	r0, #165	; 0xa5
 800b302:	d039      	beq.n	800b378 <B_tcpSend+0x154>
 800b304:	3701      	adds	r7, #1
 800b306:	7a33      	ldrb	r3, [r6, #8]
 800b308:	b2bf      	uxth	r7, r7
 800b30a:	b15b      	cbz	r3, 800b324 <B_tcpSend+0x100>
 800b30c:	2500      	movs	r5, #0
 800b30e:	6873      	ldr	r3, [r6, #4]
 800b310:	463a      	mov	r2, r7
 800b312:	4621      	mov	r1, r4
 800b314:	f853 0025 	ldr.w	r0, [r3, r5, lsl #2]
 800b318:	3501      	adds	r5, #1
 800b31a:	f000 f9d3 	bl	800b6c4 <B_uartSend>
 800b31e:	7a33      	ldrb	r3, [r6, #8]
 800b320:	42ab      	cmp	r3, r5
 800b322:	dcf4      	bgt.n	800b30e <B_tcpSend+0xea>
 800b324:	4620      	mov	r0, r4
 800b326:	e8bd 43f8 	ldmia.w	sp!, {r3, r4, r5, r6, r7, r8, r9, lr}
 800b32a:	f7fe bb3d 	b.w	80099a8 <vPortFree>
 800b32e:	225a      	movs	r2, #90	; 0x5a
 800b330:	4663      	mov	r3, ip
 800b332:	f888 2000 	strb.w	r2, [r8]
 800b336:	eb04 0801 	add.w	r8, r4, r1
 800b33a:	7c32      	ldrb	r2, [r6, #16]
 800b33c:	e7a2      	b.n	800b284 <B_tcpSend+0x60>
 800b33e:	2105      	movs	r1, #5
 800b340:	225a      	movs	r2, #90	; 0x5a
 800b342:	f04f 0c06 	mov.w	ip, #6
 800b346:	f884 9003 	strb.w	r9, [r4, #3]
 800b34a:	460b      	mov	r3, r1
 800b34c:	70a2      	strb	r2, [r4, #2]
 800b34e:	e794      	b.n	800b27a <B_tcpSend+0x56>
 800b350:	f804 8003 	strb.w	r8, [r4, r3]
 800b354:	42b9      	cmp	r1, r7
 800b356:	f811 5c01 	ldrb.w	r5, [r1, #-1]
 800b35a:	fa1f f38e 	uxth.w	r3, lr
 800b35e:	54a5      	strb	r5, [r4, r2]
 800b360:	d199      	bne.n	800b296 <B_tcpSend+0x72>
 800b362:	0e02      	lsrs	r2, r0, #24
 800b364:	18e1      	adds	r1, r4, r3
 800b366:	2aa5      	cmp	r2, #165	; 0xa5
 800b368:	54e2      	strb	r2, [r4, r3]
 800b36a:	d1a9      	bne.n	800b2c0 <B_tcpSend+0x9c>
 800b36c:	3301      	adds	r3, #1
 800b36e:	255a      	movs	r5, #90	; 0x5a
 800b370:	704a      	strb	r2, [r1, #1]
 800b372:	b29b      	uxth	r3, r3
 800b374:	700d      	strb	r5, [r1, #0]
 800b376:	e7a5      	b.n	800b2c4 <B_tcpSend+0xa0>
 800b378:	1c97      	adds	r7, r2, #2
 800b37a:	225a      	movs	r2, #90	; 0x5a
 800b37c:	7058      	strb	r0, [r3, #1]
 800b37e:	b2bf      	uxth	r7, r7
 800b380:	701a      	strb	r2, [r3, #0]
 800b382:	e7bf      	b.n	800b304 <B_tcpSend+0xe0>
 800b384:	1c8b      	adds	r3, r1, #2
 800b386:	215a      	movs	r1, #90	; 0x5a
 800b388:	707d      	strb	r5, [r7, #1]
 800b38a:	b29a      	uxth	r2, r3
 800b38c:	7039      	strb	r1, [r7, #0]
 800b38e:	e7af      	b.n	800b2f0 <B_tcpSend+0xcc>
 800b390:	3302      	adds	r3, #2
 800b392:	275a      	movs	r7, #90	; 0x5a
 800b394:	706a      	strb	r2, [r5, #1]
 800b396:	b299      	uxth	r1, r3
 800b398:	702f      	strb	r7, [r5, #0]
 800b39a:	e79e      	b.n	800b2da <B_tcpSend+0xb6>

0800b39c <tcpRxTask>:
 800b39c:	e92d 4ff0 	stmdb	sp!, {r4, r5, r6, r7, r8, r9, sl, fp, lr}
 800b3a0:	2300      	movs	r3, #0
 800b3a2:	b0cb      	sub	sp, #300	; 0x12c
 800b3a4:	f64f 72ff 	movw	r2, #65535	; 0xffff
 800b3a8:	4681      	mov	r9, r0
 800b3aa:	f10d 0824 	add.w	r8, sp, #36	; 0x24
 800b3ae:	469a      	mov	sl, r3
 800b3b0:	469b      	mov	fp, r3
 800b3b2:	461e      	mov	r6, r3
 800b3b4:	461f      	mov	r7, r3
 800b3b6:	461d      	mov	r5, r3
 800b3b8:	9303      	str	r3, [sp, #12]
 800b3ba:	9201      	str	r2, [sp, #4]
 800b3bc:	9302      	str	r3, [sp, #8]
 800b3be:	f8d9 000c 	ldr.w	r0, [r9, #12]
 800b3c2:	f000 f995 	bl	800b6f0 <B_uartRead>
 800b3c6:	4603      	mov	r3, r0
 800b3c8:	6840      	ldr	r0, [r0, #4]
 800b3ca:	b188      	cbz	r0, 800b3f0 <tcpRxTask+0x54>
 800b3cc:	465a      	mov	r2, fp
 800b3ce:	2400      	movs	r4, #0
 800b3d0:	469b      	mov	fp, r3
 800b3d2:	f8db 1000 	ldr.w	r1, [fp]
 800b3d6:	5d09      	ldrb	r1, [r1, r4]
 800b3d8:	b90a      	cbnz	r2, 800b3de <tcpRxTask+0x42>
 800b3da:	295a      	cmp	r1, #90	; 0x5a
 800b3dc:	d00c      	beq.n	800b3f8 <tcpRxTask+0x5c>
 800b3de:	b96e      	cbnz	r6, 800b3fc <tcpRxTask+0x60>
 800b3e0:	29a5      	cmp	r1, #165	; 0xa5
 800b3e2:	d025      	beq.n	800b430 <tcpRxTask+0x94>
 800b3e4:	2200      	movs	r2, #0
 800b3e6:	3401      	adds	r4, #1
 800b3e8:	4284      	cmp	r4, r0
 800b3ea:	d3f2      	bcc.n	800b3d2 <tcpRxTask+0x36>
 800b3ec:	465b      	mov	r3, fp
 800b3ee:	4693      	mov	fp, r2
 800b3f0:	4618      	mov	r0, r3
 800b3f2:	f000 f98b 	bl	800b70c <B_uartDoneRead>
 800b3f6:	e7e2      	b.n	800b3be <tcpRxTask+0x22>
 800b3f8:	2201      	movs	r2, #1
 800b3fa:	e7f4      	b.n	800b3e6 <tcpRxTask+0x4a>
 800b3fc:	b957      	cbnz	r7, 800b414 <tcpRxTask+0x78>
 800b3fe:	f105 0c01 	add.w	ip, r5, #1
 800b402:	f808 1005 	strb.w	r1, [r8, r5]
 800b406:	463a      	mov	r2, r7
 800b408:	f8db 0004 	ldr.w	r0, [fp, #4]
 800b40c:	fa1f f58c 	uxth.w	r5, ip
 800b410:	460f      	mov	r7, r1
 800b412:	e7e8      	b.n	800b3e6 <tcpRxTask+0x4a>
 800b414:	f1ba 0f00 	cmp.w	sl, #0
 800b418:	d115      	bne.n	800b446 <tcpRxTask+0xaa>
 800b41a:	f105 0c01 	add.w	ip, r5, #1
 800b41e:	f808 1005 	strb.w	r1, [r8, r5]
 800b422:	4652      	mov	r2, sl
 800b424:	f8db 0004 	ldr.w	r0, [fp, #4]
 800b428:	fa1f f58c 	uxth.w	r5, ip
 800b42c:	468a      	mov	sl, r1
 800b42e:	e7da      	b.n	800b3e6 <tcpRxTask+0x4a>
 800b430:	f105 0c01 	add.w	ip, r5, #1
 800b434:	f808 1005 	strb.w	r1, [r8, r5]
 800b438:	4632      	mov	r2, r6
 800b43a:	f8db 0004 	ldr.w	r0, [fp, #4]
 800b43e:	fa1f f58c 	uxth.w	r5, ip
 800b442:	2601      	movs	r6, #1
 800b444:	e7cf      	b.n	800b3e6 <tcpRxTask+0x4a>
 800b446:	9b01      	ldr	r3, [sp, #4]
 800b448:	f64f 72ff 	movw	r2, #65535	; 0xffff
 800b44c:	4293      	cmp	r3, r2
 800b44e:	d00c      	beq.n	800b46a <tcpRxTask+0xce>
 800b450:	1cfa      	adds	r2, r7, #3
 800b452:	42aa      	cmp	r2, r5
 800b454:	db13      	blt.n	800b47e <tcpRxTask+0xe2>
 800b456:	f105 0c01 	add.w	ip, r5, #1
 800b45a:	f808 1005 	strb.w	r1, [r8, r5]
 800b45e:	2200      	movs	r2, #0
 800b460:	f8db 0004 	ldr.w	r0, [fp, #4]
 800b464:	fa1f f58c 	uxth.w	r5, ip
 800b468:	e7bd      	b.n	800b3e6 <tcpRxTask+0x4a>
 800b46a:	1c6a      	adds	r2, r5, #1
 800b46c:	b28b      	uxth	r3, r1
 800b46e:	f808 1005 	strb.w	r1, [r8, r5]
 800b472:	9301      	str	r3, [sp, #4]
 800b474:	b295      	uxth	r5, r2
 800b476:	f8db 0004 	ldr.w	r0, [fp, #4]
 800b47a:	2200      	movs	r2, #0
 800b47c:	e7b3      	b.n	800b3e6 <tcpRxTask+0x4a>
 800b47e:	9b02      	ldr	r3, [sp, #8]
 800b480:	f107 0e07 	add.w	lr, r7, #7
 800b484:	eb05 0c03 	add.w	ip, r5, r3
 800b488:	45e6      	cmp	lr, ip
 800b48a:	dbab      	blt.n	800b3e4 <tcpRxTask+0x48>
 800b48c:	f1c3 0203 	rsb	r2, r3, #3
 800b490:	f103 0c01 	add.w	ip, r3, #1
 800b494:	00d2      	lsls	r2, r2, #3
 800b496:	fa5f f38c 	uxtb.w	r3, ip
 800b49a:	4091      	lsls	r1, r2
 800b49c:	9a03      	ldr	r2, [sp, #12]
 800b49e:	2b04      	cmp	r3, #4
 800b4a0:	9302      	str	r3, [sp, #8]
 800b4a2:	ea42 0201 	orr.w	r2, r2, r1
 800b4a6:	9203      	str	r2, [sp, #12]
 800b4a8:	d19c      	bne.n	800b3e4 <tcpRxTask+0x48>
 800b4aa:	462a      	mov	r2, r5
 800b4ac:	4641      	mov	r1, r8
 800b4ae:	f8d9 001c 	ldr.w	r0, [r9, #28]
 800b4b2:	f7f5 ff69 	bl	8001388 <HAL_CRC_Calculate>
 800b4b6:	9b03      	ldr	r3, [sp, #12]
 800b4b8:	43c0      	mvns	r0, r0
 800b4ba:	4298      	cmp	r0, r3
 800b4bc:	d121      	bne.n	800b502 <tcpRxTask+0x166>
 800b4be:	f1ba 0f02 	cmp.w	sl, #2
 800b4c2:	d01e      	beq.n	800b502 <tcpRxTask+0x166>
 800b4c4:	9a01      	ldr	r2, [sp, #4]
 800b4c6:	a805      	add	r0, sp, #20
 800b4c8:	9308      	str	r3, [sp, #32]
 800b4ca:	2300      	movs	r3, #0
 800b4cc:	f88d 2017 	strb.w	r2, [sp, #23]
 800b4d0:	aa0a      	add	r2, sp, #40	; 0x28
 800b4d2:	461e      	mov	r6, r3
 800b4d4:	461d      	mov	r5, r3
 800b4d6:	f88d 7016 	strb.w	r7, [sp, #22]
 800b4da:	461f      	mov	r7, r3
 800b4dc:	f88d a014 	strb.w	sl, [sp, #20]
 800b4e0:	9302      	str	r3, [sp, #8]
 800b4e2:	f88d a015 	strb.w	sl, [sp, #21]
 800b4e6:	469a      	mov	sl, r3
 800b4e8:	9207      	str	r2, [sp, #28]
 800b4ea:	9303      	str	r3, [sp, #12]
 800b4ec:	f8cd 8018 	str.w	r8, [sp, #24]
 800b4f0:	f7ff f95e 	bl	800a7b0 <serialParse>
 800b4f4:	f64f 73ff 	movw	r3, #65535	; 0xffff
 800b4f8:	9a03      	ldr	r2, [sp, #12]
 800b4fa:	f8db 0004 	ldr.w	r0, [fp, #4]
 800b4fe:	9301      	str	r3, [sp, #4]
 800b500:	e771      	b.n	800b3e6 <tcpRxTask+0x4a>
 800b502:	2300      	movs	r3, #0
 800b504:	f64f 72ff 	movw	r2, #65535	; 0xffff
 800b508:	f8db 0004 	ldr.w	r0, [fp, #4]
 800b50c:	469a      	mov	sl, r3
 800b50e:	461e      	mov	r6, r3
 800b510:	461f      	mov	r7, r3
 800b512:	461d      	mov	r5, r3
 800b514:	9303      	str	r3, [sp, #12]
 800b516:	e9cd 2301 	strd	r2, r3, [sp, #4]
 800b51a:	461a      	mov	r2, r3
 800b51c:	e763      	b.n	800b3e6 <tcpRxTask+0x4a>
 800b51e:	bf00      	nop

0800b520 <rxTask>:
 800b520:	6803      	ldr	r3, [r0, #0]
 800b522:	f8d3 3088 	ldr.w	r3, [r3, #136]	; 0x88
 800b526:	2b20      	cmp	r3, #32
 800b528:	e92d 4ff0 	stmdb	sp!, {r4, r5, r6, r7, r8, r9, sl, fp, lr}
 800b52c:	4604      	mov	r4, r0
 800b52e:	b083      	sub	sp, #12
 800b530:	d010      	beq.n	800b554 <rxTask+0x34>
 800b532:	2001      	movs	r0, #1
 800b534:	f7fd f988 	bl	8008848 <vTaskDelay>
 800b538:	6823      	ldr	r3, [r4, #0]
 800b53a:	f8d3 3088 	ldr.w	r3, [r3, #136]	; 0x88
 800b53e:	2b20      	cmp	r3, #32
 800b540:	d1f7      	bne.n	800b532 <rxTask+0x12>
 800b542:	f44f 6000 	mov.w	r0, #2048	; 0x800
 800b546:	f7fe f971 	bl	800982c <pvPortMalloc>
 800b54a:	60e0      	str	r0, [r4, #12]
 800b54c:	b948      	cbnz	r0, 800b562 <rxTask+0x42>
 800b54e:	2001      	movs	r0, #1
 800b550:	f7fd f97a 	bl	8008848 <vTaskDelay>
 800b554:	f44f 6000 	mov.w	r0, #2048	; 0x800
 800b558:	f7fe f968 	bl	800982c <pvPortMalloc>
 800b55c:	60e0      	str	r0, [r4, #12]
 800b55e:	2800      	cmp	r0, #0
 800b560:	d0f5      	beq.n	800b54e <rxTask+0x2e>
 800b562:	4601      	mov	r1, r0
 800b564:	f44f 6200 	mov.w	r2, #2048	; 0x800
 800b568:	6820      	ldr	r0, [r4, #0]
 800b56a:	f7fb fef1 	bl	8007350 <HAL_UART_Receive_DMA>
 800b56e:	e026      	b.n	800b5be <rxTask+0x9e>
 800b570:	6a22      	ldr	r2, [r4, #32]
 800b572:	429a      	cmp	r2, r3
 800b574:	d201      	bcs.n	800b57a <rxTask+0x5a>
 800b576:	461a      	mov	r2, r3
 800b578:	6223      	str	r3, [r4, #32]
 800b57a:	f5c2 6200 	rsb	r2, r2, #2048	; 0x800
 800b57e:	2300      	movs	r3, #0
 800b580:	9201      	str	r2, [sp, #4]
 800b582:	f884 3024 	strb.w	r3, [r4, #36]	; 0x24
 800b586:	f7fe f80f 	bl	80095a8 <vPortExitCritical>
 800b58a:	9801      	ldr	r0, [sp, #4]
 800b58c:	b1a0      	cbz	r0, 800b5b8 <rxTask+0x98>
 800b58e:	f7fe f94d 	bl	800982c <pvPortMalloc>
 800b592:	6a23      	ldr	r3, [r4, #32]
 800b594:	68e1      	ldr	r1, [r4, #12]
 800b596:	9a01      	ldr	r2, [sp, #4]
 800b598:	4419      	add	r1, r3
 800b59a:	9000      	str	r0, [sp, #0]
 800b59c:	f000 f92e 	bl	800b7fc <memcpy>
 800b5a0:	6a22      	ldr	r2, [r4, #32]
 800b5a2:	9d01      	ldr	r5, [sp, #4]
 800b5a4:	2300      	movs	r3, #0
 800b5a6:	4669      	mov	r1, sp
 800b5a8:	6920      	ldr	r0, [r4, #16]
 800b5aa:	4415      	add	r5, r2
 800b5ac:	461a      	mov	r2, r3
 800b5ae:	f3c5 050a 	ubfx	r5, r5, #0, #11
 800b5b2:	6225      	str	r5, [r4, #32]
 800b5b4:	f7fc f872 	bl	800769c <xQueueGenericSend>
 800b5b8:	2001      	movs	r0, #1
 800b5ba:	f7fd f945 	bl	8008848 <vTaskDelay>
 800b5be:	2300      	movs	r3, #0
 800b5c0:	9301      	str	r3, [sp, #4]
 800b5c2:	f7fd ffcf 	bl	8009564 <vPortEnterCritical>
 800b5c6:	6823      	ldr	r3, [r4, #0]
 800b5c8:	6fdb      	ldr	r3, [r3, #124]	; 0x7c
 800b5ca:	681a      	ldr	r2, [r3, #0]
 800b5cc:	6853      	ldr	r3, [r2, #4]
 800b5ce:	f894 2024 	ldrb.w	r2, [r4, #36]	; 0x24
 800b5d2:	f5c3 6300 	rsb	r3, r3, #2048	; 0x800
 800b5d6:	61e3      	str	r3, [r4, #28]
 800b5d8:	2a00      	cmp	r2, #0
 800b5da:	d1c9      	bne.n	800b570 <rxTask+0x50>
 800b5dc:	6a22      	ldr	r2, [r4, #32]
 800b5de:	429a      	cmp	r2, r3
 800b5e0:	d2d1      	bcs.n	800b586 <rxTask+0x66>
 800b5e2:	1a9b      	subs	r3, r3, r2
 800b5e4:	9301      	str	r3, [sp, #4]
 800b5e6:	e7ce      	b.n	800b586 <rxTask+0x66>

0800b5e8 <txTask>:
 800b5e8:	b510      	push	{r4, lr}
 800b5ea:	4604      	mov	r4, r0
 800b5ec:	b082      	sub	sp, #8
 800b5ee:	4669      	mov	r1, sp
 800b5f0:	f04f 32ff 	mov.w	r2, #4294967295
 800b5f4:	68a0      	ldr	r0, [r4, #8]
 800b5f6:	f7fc fa63 	bl	8007ac0 <xQueueReceive>
 800b5fa:	f8bd 2004 	ldrh.w	r2, [sp, #4]
 800b5fe:	9900      	ldr	r1, [sp, #0]
 800b600:	6820      	ldr	r0, [r4, #0]
 800b602:	f7fa ff67 	bl	80064d4 <HAL_UART_Transmit_DMA>
 800b606:	f04f 31ff 	mov.w	r1, #4294967295
 800b60a:	6860      	ldr	r0, [r4, #4]
 800b60c:	f7fc fbdc 	bl	8007dc8 <xQueueSemaphoreTake>
 800b610:	9800      	ldr	r0, [sp, #0]
 800b612:	f7fe f9c9 	bl	80099a8 <vPortFree>
 800b616:	e7ea      	b.n	800b5ee <txTask+0x6>

0800b618 <B_uartStart>:
 800b618:	b5f0      	push	{r4, r5, r6, r7, lr}
 800b61a:	4d25      	ldr	r5, [pc, #148]	; (800b6b0 <B_uartStart+0x98>)
 800b61c:	b083      	sub	sp, #12
 800b61e:	4606      	mov	r6, r0
 800b620:	682f      	ldr	r7, [r5, #0]
 800b622:	2f00      	cmp	r7, #0
 800b624:	d037      	beq.n	800b696 <B_uartStart+0x7e>
 800b626:	686b      	ldr	r3, [r5, #4]
 800b628:	2b00      	cmp	r3, #0
 800b62a:	d03f      	beq.n	800b6ac <B_uartStart+0x94>
 800b62c:	68ab      	ldr	r3, [r5, #8]
 800b62e:	b38b      	cbz	r3, 800b694 <B_uartStart+0x7c>
 800b630:	2203      	movs	r2, #3
 800b632:	2100      	movs	r1, #0
 800b634:	2001      	movs	r0, #1
 800b636:	f7fb fff5 	bl	8007624 <xQueueGenericCreate>
 800b63a:	2200      	movs	r2, #0
 800b63c:	6060      	str	r0, [r4, #4]
 800b63e:	2108      	movs	r1, #8
 800b640:	2040      	movs	r0, #64	; 0x40
 800b642:	f7fb ffef 	bl	8007624 <xQueueGenericCreate>
 800b646:	2200      	movs	r2, #0
 800b648:	60a0      	str	r0, [r4, #8]
 800b64a:	2108      	movs	r1, #8
 800b64c:	2040      	movs	r0, #64	; 0x40
 800b64e:	f7fb ffe9 	bl	8007624 <xQueueGenericCreate>
 800b652:	f104 0214 	add.w	r2, r4, #20
 800b656:	2105      	movs	r1, #5
 800b658:	6120      	str	r0, [r4, #16]
 800b65a:	4623      	mov	r3, r4
 800b65c:	9201      	str	r2, [sp, #4]
 800b65e:	9100      	str	r1, [sp, #0]
 800b660:	f44f 7280 	mov.w	r2, #256	; 0x100
 800b664:	4913      	ldr	r1, [pc, #76]	; (800b6b4 <B_uartStart+0x9c>)
 800b666:	4814      	ldr	r0, [pc, #80]	; (800b6b8 <B_uartStart+0xa0>)
 800b668:	f7fc ff94 	bl	8008594 <xTaskCreate>
 800b66c:	f104 0218 	add.w	r2, r4, #24
 800b670:	2106      	movs	r1, #6
 800b672:	4623      	mov	r3, r4
 800b674:	9201      	str	r2, [sp, #4]
 800b676:	f44f 7280 	mov.w	r2, #256	; 0x100
 800b67a:	9100      	str	r1, [sp, #0]
 800b67c:	480f      	ldr	r0, [pc, #60]	; (800b6bc <B_uartStart+0xa4>)
 800b67e:	490d      	ldr	r1, [pc, #52]	; (800b6b4 <B_uartStart+0x9c>)
 800b680:	f7fc ff88 	bl	8008594 <xTaskCreate>
 800b684:	2300      	movs	r3, #0
 800b686:	4620      	mov	r0, r4
 800b688:	f884 3024 	strb.w	r3, [r4, #36]	; 0x24
 800b68c:	e9c4 3307 	strd	r3, r3, [r4, #28]
 800b690:	b003      	add	sp, #12
 800b692:	bdf0      	pop	{r4, r5, r6, r7, pc}
 800b694:	2702      	movs	r7, #2
 800b696:	2028      	movs	r0, #40	; 0x28
 800b698:	f7fe f8c8 	bl	800982c <pvPortMalloc>
 800b69c:	4a08      	ldr	r2, [pc, #32]	; (800b6c0 <B_uartStart+0xa8>)
 800b69e:	4604      	mov	r4, r0
 800b6a0:	f845 0027 	str.w	r0, [r5, r7, lsl #2]
 800b6a4:	f842 6027 	str.w	r6, [r2, r7, lsl #2]
 800b6a8:	6006      	str	r6, [r0, #0]
 800b6aa:	e7c1      	b.n	800b630 <B_uartStart+0x18>
 800b6ac:	2701      	movs	r7, #1
 800b6ae:	e7f2      	b.n	800b696 <B_uartStart+0x7e>
 800b6b0:	24027358 	.word	0x24027358
 800b6b4:	0800ba7c 	.word	0x0800ba7c
 800b6b8:	0800b5e9 	.word	0x0800b5e9
 800b6bc:	0800b521 	.word	0x0800b521
 800b6c0:	24027368 	.word	0x24027368

0800b6c4 <B_uartSend>:
 800b6c4:	b530      	push	{r4, r5, lr}
 800b6c6:	4614      	mov	r4, r2
 800b6c8:	b085      	sub	sp, #20
 800b6ca:	4605      	mov	r5, r0
 800b6cc:	4610      	mov	r0, r2
 800b6ce:	9101      	str	r1, [sp, #4]
 800b6d0:	f7fe f8ac 	bl	800982c <pvPortMalloc>
 800b6d4:	9901      	ldr	r1, [sp, #4]
 800b6d6:	4622      	mov	r2, r4
 800b6d8:	9002      	str	r0, [sp, #8]
 800b6da:	f000 f88f 	bl	800b7fc <memcpy>
 800b6de:	2300      	movs	r3, #0
 800b6e0:	a902      	add	r1, sp, #8
 800b6e2:	68a8      	ldr	r0, [r5, #8]
 800b6e4:	461a      	mov	r2, r3
 800b6e6:	9403      	str	r4, [sp, #12]
 800b6e8:	f7fb ffd8 	bl	800769c <xQueueGenericSend>
 800b6ec:	b005      	add	sp, #20
 800b6ee:	bd30      	pop	{r4, r5, pc}

0800b6f0 <B_uartRead>:
 800b6f0:	b538      	push	{r3, r4, r5, lr}
 800b6f2:	4605      	mov	r5, r0
 800b6f4:	2008      	movs	r0, #8
 800b6f6:	f7fe f899 	bl	800982c <pvPortMalloc>
 800b6fa:	4604      	mov	r4, r0
 800b6fc:	f04f 32ff 	mov.w	r2, #4294967295
 800b700:	6928      	ldr	r0, [r5, #16]
 800b702:	4621      	mov	r1, r4
 800b704:	f7fc f9dc 	bl	8007ac0 <xQueueReceive>
 800b708:	4620      	mov	r0, r4
 800b70a:	bd38      	pop	{r3, r4, r5, pc}

0800b70c <B_uartDoneRead>:
 800b70c:	b510      	push	{r4, lr}
 800b70e:	4604      	mov	r4, r0
 800b710:	6800      	ldr	r0, [r0, #0]
 800b712:	f7fe f949 	bl	80099a8 <vPortFree>
 800b716:	4620      	mov	r0, r4
 800b718:	e8bd 4010 	ldmia.w	sp!, {r4, lr}
 800b71c:	f7fe b944 	b.w	80099a8 <vPortFree>

0800b720 <HAL_UART_TxCpltCallback>:
 800b720:	4b0d      	ldr	r3, [pc, #52]	; (800b758 <HAL_UART_TxCpltCallback+0x38>)
 800b722:	681a      	ldr	r2, [r3, #0]
 800b724:	4290      	cmp	r0, r2
 800b726:	d009      	beq.n	800b73c <HAL_UART_TxCpltCallback+0x1c>
 800b728:	685a      	ldr	r2, [r3, #4]
 800b72a:	4290      	cmp	r0, r2
 800b72c:	d00e      	beq.n	800b74c <HAL_UART_TxCpltCallback+0x2c>
 800b72e:	689a      	ldr	r2, [r3, #8]
 800b730:	4290      	cmp	r0, r2
 800b732:	d00d      	beq.n	800b750 <HAL_UART_TxCpltCallback+0x30>
 800b734:	68db      	ldr	r3, [r3, #12]
 800b736:	4283      	cmp	r3, r0
 800b738:	d00c      	beq.n	800b754 <HAL_UART_TxCpltCallback+0x34>
 800b73a:	4770      	bx	lr
 800b73c:	2300      	movs	r3, #0
 800b73e:	4a07      	ldr	r2, [pc, #28]	; (800b75c <HAL_UART_TxCpltCallback+0x3c>)
 800b740:	2100      	movs	r1, #0
 800b742:	f852 3023 	ldr.w	r3, [r2, r3, lsl #2]
 800b746:	6858      	ldr	r0, [r3, #4]
 800b748:	f7fc b964 	b.w	8007a14 <xQueueGiveFromISR>
 800b74c:	2301      	movs	r3, #1
 800b74e:	e7f6      	b.n	800b73e <HAL_UART_TxCpltCallback+0x1e>
 800b750:	2302      	movs	r3, #2
 800b752:	e7f4      	b.n	800b73e <HAL_UART_TxCpltCallback+0x1e>
 800b754:	2303      	movs	r3, #3
 800b756:	e7f2      	b.n	800b73e <HAL_UART_TxCpltCallback+0x1e>
 800b758:	24027368 	.word	0x24027368
 800b75c:	24027358 	.word	0x24027358

0800b760 <HAL_UART_RxCpltCallback>:
 800b760:	4b11      	ldr	r3, [pc, #68]	; (800b7a8 <HAL_UART_RxCpltCallback+0x48>)
 800b762:	681a      	ldr	r2, [r3, #0]
 800b764:	4290      	cmp	r0, r2
 800b766:	d011      	beq.n	800b78c <HAL_UART_RxCpltCallback+0x2c>
 800b768:	685a      	ldr	r2, [r3, #4]
 800b76a:	4290      	cmp	r0, r2
 800b76c:	d016      	beq.n	800b79c <HAL_UART_RxCpltCallback+0x3c>
 800b76e:	689a      	ldr	r2, [r3, #8]
 800b770:	4290      	cmp	r0, r2
 800b772:	d015      	beq.n	800b7a0 <HAL_UART_RxCpltCallback+0x40>
 800b774:	68db      	ldr	r3, [r3, #12]
 800b776:	4283      	cmp	r3, r0
 800b778:	d014      	beq.n	800b7a4 <HAL_UART_RxCpltCallback+0x44>
 800b77a:	f04f 0350 	mov.w	r3, #80	; 0x50
 800b77e:	f383 8811 	msr	BASEPRI, r3
 800b782:	f3bf 8f6f 	isb	sy
 800b786:	f3bf 8f4f 	dsb	sy
 800b78a:	e7fe      	b.n	800b78a <HAL_UART_RxCpltCallback+0x2a>
 800b78c:	2300      	movs	r3, #0
 800b78e:	4907      	ldr	r1, [pc, #28]	; (800b7ac <HAL_UART_RxCpltCallback+0x4c>)
 800b790:	2201      	movs	r2, #1
 800b792:	f851 3023 	ldr.w	r3, [r1, r3, lsl #2]
 800b796:	f883 2024 	strb.w	r2, [r3, #36]	; 0x24
 800b79a:	4770      	bx	lr
 800b79c:	2301      	movs	r3, #1
 800b79e:	e7f6      	b.n	800b78e <HAL_UART_RxCpltCallback+0x2e>
 800b7a0:	2302      	movs	r3, #2
 800b7a2:	e7f4      	b.n	800b78e <HAL_UART_RxCpltCallback+0x2e>
 800b7a4:	2303      	movs	r3, #3
 800b7a6:	e7f2      	b.n	800b78e <HAL_UART_RxCpltCallback+0x2e>
 800b7a8:	24027368 	.word	0x24027368
 800b7ac:	24027358 	.word	0x24027358

0800b7b0 <__libc_init_array>:
 800b7b0:	b570      	push	{r4, r5, r6, lr}
 800b7b2:	4d0d      	ldr	r5, [pc, #52]	; (800b7e8 <__libc_init_array+0x38>)
 800b7b4:	4c0d      	ldr	r4, [pc, #52]	; (800b7ec <__libc_init_array+0x3c>)
 800b7b6:	1b64      	subs	r4, r4, r5
 800b7b8:	10a4      	asrs	r4, r4, #2
 800b7ba:	2600      	movs	r6, #0
 800b7bc:	42a6      	cmp	r6, r4
 800b7be:	d109      	bne.n	800b7d4 <__libc_init_array+0x24>
 800b7c0:	4d0b      	ldr	r5, [pc, #44]	; (800b7f0 <__libc_init_array+0x40>)
 800b7c2:	4c0c      	ldr	r4, [pc, #48]	; (800b7f4 <__libc_init_array+0x44>)
 800b7c4:	f000 f8f6 	bl	800b9b4 <_init>
 800b7c8:	1b64      	subs	r4, r4, r5
 800b7ca:	10a4      	asrs	r4, r4, #2
 800b7cc:	2600      	movs	r6, #0
 800b7ce:	42a6      	cmp	r6, r4
 800b7d0:	d105      	bne.n	800b7de <__libc_init_array+0x2e>
 800b7d2:	bd70      	pop	{r4, r5, r6, pc}
 800b7d4:	f855 3b04 	ldr.w	r3, [r5], #4
 800b7d8:	4798      	blx	r3
 800b7da:	3601      	adds	r6, #1
 800b7dc:	e7ee      	b.n	800b7bc <__libc_init_array+0xc>
 800b7de:	f855 3b04 	ldr.w	r3, [r5], #4
 800b7e2:	4798      	blx	r3
 800b7e4:	3601      	adds	r6, #1
 800b7e6:	e7f2      	b.n	800b7ce <__libc_init_array+0x1e>
 800b7e8:	0800baf0 	.word	0x0800baf0
 800b7ec:	0800baf0 	.word	0x0800baf0
 800b7f0:	0800baf0 	.word	0x0800baf0
 800b7f4:	0800baf4 	.word	0x0800baf4

0800b7f8 <__retarget_lock_acquire_recursive>:
 800b7f8:	4770      	bx	lr

0800b7fa <__retarget_lock_release_recursive>:
 800b7fa:	4770      	bx	lr

0800b7fc <memcpy>:
 800b7fc:	440a      	add	r2, r1
 800b7fe:	4291      	cmp	r1, r2
 800b800:	f100 33ff 	add.w	r3, r0, #4294967295
 800b804:	d100      	bne.n	800b808 <memcpy+0xc>
 800b806:	4770      	bx	lr
 800b808:	b510      	push	{r4, lr}
 800b80a:	f811 4b01 	ldrb.w	r4, [r1], #1
 800b80e:	f803 4f01 	strb.w	r4, [r3, #1]!
 800b812:	4291      	cmp	r1, r2
 800b814:	d1f9      	bne.n	800b80a <memcpy+0xe>
 800b816:	bd10      	pop	{r4, pc}

0800b818 <memset>:
 800b818:	4402      	add	r2, r0
 800b81a:	4603      	mov	r3, r0
 800b81c:	4293      	cmp	r3, r2
 800b81e:	d100      	bne.n	800b822 <memset+0xa>
 800b820:	4770      	bx	lr
 800b822:	f803 1b01 	strb.w	r1, [r3], #1
 800b826:	e7f9      	b.n	800b81c <memset+0x4>

0800b828 <cleanup_glue>:
 800b828:	b538      	push	{r3, r4, r5, lr}
 800b82a:	460c      	mov	r4, r1
 800b82c:	6809      	ldr	r1, [r1, #0]
 800b82e:	4605      	mov	r5, r0
 800b830:	b109      	cbz	r1, 800b836 <cleanup_glue+0xe>
 800b832:	f7ff fff9 	bl	800b828 <cleanup_glue>
 800b836:	4621      	mov	r1, r4
 800b838:	4628      	mov	r0, r5
 800b83a:	e8bd 4038 	ldmia.w	sp!, {r3, r4, r5, lr}
 800b83e:	f000 b869 	b.w	800b914 <_free_r>
	...

0800b844 <_reclaim_reent>:
 800b844:	4b2c      	ldr	r3, [pc, #176]	; (800b8f8 <_reclaim_reent+0xb4>)
 800b846:	681b      	ldr	r3, [r3, #0]
 800b848:	4283      	cmp	r3, r0
 800b84a:	b570      	push	{r4, r5, r6, lr}
 800b84c:	4604      	mov	r4, r0
 800b84e:	d051      	beq.n	800b8f4 <_reclaim_reent+0xb0>
 800b850:	6a43      	ldr	r3, [r0, #36]	; 0x24
 800b852:	b143      	cbz	r3, 800b866 <_reclaim_reent+0x22>
 800b854:	68db      	ldr	r3, [r3, #12]
 800b856:	2b00      	cmp	r3, #0
 800b858:	d14a      	bne.n	800b8f0 <_reclaim_reent+0xac>
 800b85a:	6a63      	ldr	r3, [r4, #36]	; 0x24
 800b85c:	6819      	ldr	r1, [r3, #0]
 800b85e:	b111      	cbz	r1, 800b866 <_reclaim_reent+0x22>
 800b860:	4620      	mov	r0, r4
 800b862:	f000 f857 	bl	800b914 <_free_r>
 800b866:	6961      	ldr	r1, [r4, #20]
 800b868:	b111      	cbz	r1, 800b870 <_reclaim_reent+0x2c>
 800b86a:	4620      	mov	r0, r4
 800b86c:	f000 f852 	bl	800b914 <_free_r>
 800b870:	6a61      	ldr	r1, [r4, #36]	; 0x24
 800b872:	b111      	cbz	r1, 800b87a <_reclaim_reent+0x36>
 800b874:	4620      	mov	r0, r4
 800b876:	f000 f84d 	bl	800b914 <_free_r>
 800b87a:	6ba1      	ldr	r1, [r4, #56]	; 0x38
 800b87c:	b111      	cbz	r1, 800b884 <_reclaim_reent+0x40>
 800b87e:	4620      	mov	r0, r4
 800b880:	f000 f848 	bl	800b914 <_free_r>
 800b884:	6be1      	ldr	r1, [r4, #60]	; 0x3c
 800b886:	b111      	cbz	r1, 800b88e <_reclaim_reent+0x4a>
 800b888:	4620      	mov	r0, r4
 800b88a:	f000 f843 	bl	800b914 <_free_r>
 800b88e:	6c21      	ldr	r1, [r4, #64]	; 0x40
 800b890:	b111      	cbz	r1, 800b898 <_reclaim_reent+0x54>
 800b892:	4620      	mov	r0, r4
 800b894:	f000 f83e 	bl	800b914 <_free_r>
 800b898:	6de1      	ldr	r1, [r4, #92]	; 0x5c
 800b89a:	b111      	cbz	r1, 800b8a2 <_reclaim_reent+0x5e>
 800b89c:	4620      	mov	r0, r4
 800b89e:	f000 f839 	bl	800b914 <_free_r>
 800b8a2:	6da1      	ldr	r1, [r4, #88]	; 0x58
 800b8a4:	b111      	cbz	r1, 800b8ac <_reclaim_reent+0x68>
 800b8a6:	4620      	mov	r0, r4
 800b8a8:	f000 f834 	bl	800b914 <_free_r>
 800b8ac:	6b61      	ldr	r1, [r4, #52]	; 0x34
 800b8ae:	b111      	cbz	r1, 800b8b6 <_reclaim_reent+0x72>
 800b8b0:	4620      	mov	r0, r4
 800b8b2:	f000 f82f 	bl	800b914 <_free_r>
 800b8b6:	69a3      	ldr	r3, [r4, #24]
 800b8b8:	b1e3      	cbz	r3, 800b8f4 <_reclaim_reent+0xb0>
 800b8ba:	6aa3      	ldr	r3, [r4, #40]	; 0x28
 800b8bc:	4620      	mov	r0, r4
 800b8be:	4798      	blx	r3
 800b8c0:	6ca1      	ldr	r1, [r4, #72]	; 0x48
 800b8c2:	b1b9      	cbz	r1, 800b8f4 <_reclaim_reent+0xb0>
 800b8c4:	4620      	mov	r0, r4
 800b8c6:	e8bd 4070 	ldmia.w	sp!, {r4, r5, r6, lr}
 800b8ca:	f7ff bfad 	b.w	800b828 <cleanup_glue>
 800b8ce:	5949      	ldr	r1, [r1, r5]
 800b8d0:	b941      	cbnz	r1, 800b8e4 <_reclaim_reent+0xa0>
 800b8d2:	3504      	adds	r5, #4
 800b8d4:	6a63      	ldr	r3, [r4, #36]	; 0x24
 800b8d6:	2d80      	cmp	r5, #128	; 0x80
 800b8d8:	68d9      	ldr	r1, [r3, #12]
 800b8da:	d1f8      	bne.n	800b8ce <_reclaim_reent+0x8a>
 800b8dc:	4620      	mov	r0, r4
 800b8de:	f000 f819 	bl	800b914 <_free_r>
 800b8e2:	e7ba      	b.n	800b85a <_reclaim_reent+0x16>
 800b8e4:	680e      	ldr	r6, [r1, #0]
 800b8e6:	4620      	mov	r0, r4
 800b8e8:	f000 f814 	bl	800b914 <_free_r>
 800b8ec:	4631      	mov	r1, r6
 800b8ee:	e7ef      	b.n	800b8d0 <_reclaim_reent+0x8c>
 800b8f0:	2500      	movs	r5, #0
 800b8f2:	e7ef      	b.n	800b8d4 <_reclaim_reent+0x90>
 800b8f4:	bd70      	pop	{r4, r5, r6, pc}
 800b8f6:	bf00      	nop
 800b8f8:	24000014 	.word	0x24000014

0800b8fc <__malloc_lock>:
 800b8fc:	4801      	ldr	r0, [pc, #4]	; (800b904 <__malloc_lock+0x8>)
 800b8fe:	f7ff bf7b 	b.w	800b7f8 <__retarget_lock_acquire_recursive>
 800b902:	bf00      	nop
 800b904:	24027e20 	.word	0x24027e20

0800b908 <__malloc_unlock>:
 800b908:	4801      	ldr	r0, [pc, #4]	; (800b910 <__malloc_unlock+0x8>)
 800b90a:	f7ff bf76 	b.w	800b7fa <__retarget_lock_release_recursive>
 800b90e:	bf00      	nop
 800b910:	24027e20 	.word	0x24027e20

0800b914 <_free_r>:
 800b914:	b537      	push	{r0, r1, r2, r4, r5, lr}
 800b916:	2900      	cmp	r1, #0
 800b918:	d048      	beq.n	800b9ac <_free_r+0x98>
 800b91a:	f851 3c04 	ldr.w	r3, [r1, #-4]
 800b91e:	9001      	str	r0, [sp, #4]
 800b920:	2b00      	cmp	r3, #0
 800b922:	f1a1 0404 	sub.w	r4, r1, #4
 800b926:	bfb8      	it	lt
 800b928:	18e4      	addlt	r4, r4, r3
 800b92a:	f7ff ffe7 	bl	800b8fc <__malloc_lock>
 800b92e:	4a20      	ldr	r2, [pc, #128]	; (800b9b0 <_free_r+0x9c>)
 800b930:	9801      	ldr	r0, [sp, #4]
 800b932:	6813      	ldr	r3, [r2, #0]
 800b934:	4615      	mov	r5, r2
 800b936:	b933      	cbnz	r3, 800b946 <_free_r+0x32>
 800b938:	6063      	str	r3, [r4, #4]
 800b93a:	6014      	str	r4, [r2, #0]
 800b93c:	b003      	add	sp, #12
 800b93e:	e8bd 4030 	ldmia.w	sp!, {r4, r5, lr}
 800b942:	f7ff bfe1 	b.w	800b908 <__malloc_unlock>
 800b946:	42a3      	cmp	r3, r4
 800b948:	d90b      	bls.n	800b962 <_free_r+0x4e>
 800b94a:	6821      	ldr	r1, [r4, #0]
 800b94c:	1862      	adds	r2, r4, r1
 800b94e:	4293      	cmp	r3, r2
 800b950:	bf04      	itt	eq
 800b952:	681a      	ldreq	r2, [r3, #0]
 800b954:	685b      	ldreq	r3, [r3, #4]
 800b956:	6063      	str	r3, [r4, #4]
 800b958:	bf04      	itt	eq
 800b95a:	1852      	addeq	r2, r2, r1
 800b95c:	6022      	streq	r2, [r4, #0]
 800b95e:	602c      	str	r4, [r5, #0]
 800b960:	e7ec      	b.n	800b93c <_free_r+0x28>
 800b962:	461a      	mov	r2, r3
 800b964:	685b      	ldr	r3, [r3, #4]
 800b966:	b10b      	cbz	r3, 800b96c <_free_r+0x58>
 800b968:	42a3      	cmp	r3, r4
 800b96a:	d9fa      	bls.n	800b962 <_free_r+0x4e>
 800b96c:	6811      	ldr	r1, [r2, #0]
 800b96e:	1855      	adds	r5, r2, r1
 800b970:	42a5      	cmp	r5, r4
 800b972:	d10b      	bne.n	800b98c <_free_r+0x78>
 800b974:	6824      	ldr	r4, [r4, #0]
 800b976:	4421      	add	r1, r4
 800b978:	1854      	adds	r4, r2, r1
 800b97a:	42a3      	cmp	r3, r4
 800b97c:	6011      	str	r1, [r2, #0]
 800b97e:	d1dd      	bne.n	800b93c <_free_r+0x28>
 800b980:	681c      	ldr	r4, [r3, #0]
 800b982:	685b      	ldr	r3, [r3, #4]
 800b984:	6053      	str	r3, [r2, #4]
 800b986:	4421      	add	r1, r4
 800b988:	6011      	str	r1, [r2, #0]
 800b98a:	e7d7      	b.n	800b93c <_free_r+0x28>
 800b98c:	d902      	bls.n	800b994 <_free_r+0x80>
 800b98e:	230c      	movs	r3, #12
 800b990:	6003      	str	r3, [r0, #0]
 800b992:	e7d3      	b.n	800b93c <_free_r+0x28>
 800b994:	6825      	ldr	r5, [r4, #0]
 800b996:	1961      	adds	r1, r4, r5
 800b998:	428b      	cmp	r3, r1
 800b99a:	bf04      	itt	eq
 800b99c:	6819      	ldreq	r1, [r3, #0]
 800b99e:	685b      	ldreq	r3, [r3, #4]
 800b9a0:	6063      	str	r3, [r4, #4]
 800b9a2:	bf04      	itt	eq
 800b9a4:	1949      	addeq	r1, r1, r5
 800b9a6:	6021      	streq	r1, [r4, #0]
 800b9a8:	6054      	str	r4, [r2, #4]
 800b9aa:	e7c7      	b.n	800b93c <_free_r+0x28>
 800b9ac:	b003      	add	sp, #12
 800b9ae:	bd30      	pop	{r4, r5, pc}
 800b9b0:	24027378 	.word	0x24027378

0800b9b4 <_init>:
 800b9b4:	b5f8      	push	{r3, r4, r5, r6, r7, lr}
 800b9b6:	bf00      	nop
 800b9b8:	bcf8      	pop	{r3, r4, r5, r6, r7}
 800b9ba:	bc08      	pop	{r3}
 800b9bc:	469e      	mov	lr, r3
 800b9be:	4770      	bx	lr

0800b9c0 <_fini>:
 800b9c0:	b5f8      	push	{r3, r4, r5, r6, r7, lr}
 800b9c2:	bf00      	nop
 800b9c4:	bcf8      	pop	{r3, r4, r5, r6, r7}
 800b9c6:	bc08      	pop	{r3}
 800b9c8:	469e      	mov	lr, r3
 800b9ca:	4770      	bx	lr
